ARM GAS  /tmp/ccDFtLCb.s 			page 1


   1              		.cpu cortex-m4
   2              		.eabi_attribute 27, 1
   3              		.eabi_attribute 28, 1
   4              		.eabi_attribute 20, 1
   5              		.eabi_attribute 21, 1
   6              		.eabi_attribute 23, 3
   7              		.eabi_attribute 24, 1
   8              		.eabi_attribute 25, 1
   9              		.eabi_attribute 26, 1
  10              		.eabi_attribute 30, 1
  11              		.eabi_attribute 34, 1
  12              		.eabi_attribute 18, 4
  13              		.file	"main.c"
  14              		.text
  15              	.Ltext0:
  16              		.cfi_sections	.debug_frame
  17              		.section	.text.HAL_UART_RxCpltCallback,"ax",%progbits
  18              		.align	1
  19              		.global	HAL_UART_RxCpltCallback
  20              		.arch armv7e-m
  21              		.syntax unified
  22              		.thumb
  23              		.thumb_func
  24              		.fpu fpv4-sp-d16
  26              	HAL_UART_RxCpltCallback:
  27              	.LVL0:
  28              	.LFB239:
  29              		.file 1 "Core/Src/main.c"
   1:Core/Src/main.c **** /* USER CODE BEGIN Header */
   2:Core/Src/main.c **** /**
   3:Core/Src/main.c ****   ******************************************************************************
   4:Core/Src/main.c ****   * @file           : main.c
   5:Core/Src/main.c ****   * @brief          : Main program body
   6:Core/Src/main.c ****   ******************************************************************************
   7:Core/Src/main.c ****   * @attention
   8:Core/Src/main.c ****   *
   9:Core/Src/main.c ****   * Copyright (c) 2022 STMicroelectronics.
  10:Core/Src/main.c ****   * All rights reserved.
  11:Core/Src/main.c ****   *
  12:Core/Src/main.c ****   * This software is licensed under terms that can be found in the LICENSE file
  13:Core/Src/main.c ****   * in the root directory of this software component.
  14:Core/Src/main.c ****   * If no LICENSE file comes with this software, it is provided AS-IS.
  15:Core/Src/main.c ****   *
  16:Core/Src/main.c ****   ******************************************************************************
  17:Core/Src/main.c **** 
  18:Core/Src/main.c **** 
  19:Core/Src/main.c **** ********************************************************************************
  20:Core/Src/main.c **** *
  21:Core/Src/main.c **** * Created on: March 15, 2022
  22:Core/Src/main.c **** *     Author: Nipun Dhananjaya Weerakkodi -> nipun.dhananjaya@gmail.com
  23:Core/Src/main.c **** ********************************************************************************
  24:Core/Src/main.c **** */
  25:Core/Src/main.c **** 
  26:Core/Src/main.c **** /* USER CODE END Header */
  27:Core/Src/main.c **** /* Includes ------------------------------------------------------------------*/
  28:Core/Src/main.c **** #include "main.h"
  29:Core/Src/main.c **** #include "cmsis_os.h"
ARM GAS  /tmp/ccDFtLCb.s 			page 2


  30:Core/Src/main.c **** #include "adc.h"
  31:Core/Src/main.c **** #include "dma.h"
  32:Core/Src/main.c **** #include "i2c.h"
  33:Core/Src/main.c **** #include "usart.h"
  34:Core/Src/main.c **** #include "usb_host.h"
  35:Core/Src/main.c **** #include "gpio.h"
  36:Core/Src/main.c **** #include "variables.h"
  37:Core/Src/main.c **** #include "string.h"
  38:Core/Src/main.c **** 
  39:Core/Src/main.c **** 
  40:Core/Src/main.c **** 
  41:Core/Src/main.c **** void SystemClock_Config(void);
  42:Core/Src/main.c **** void MX_FREERTOS_Init(void);
  43:Core/Src/main.c **** 
  44:Core/Src/main.c **** void HAL_UART_RxCpltCallback(UART_HandleTypeDef *huart)
  45:Core/Src/main.c **** {
  30              		.loc 1 45 1 view -0
  31              		.cfi_startproc
  32              		@ args = 0, pretend = 0, frame = 0
  33              		@ frame_needed = 0, uses_anonymous_args = 0
  34              		@ link register save eliminated.
  35              		.loc 1 45 1 is_stmt 0 view .LVU1
  36 0000 10B4     		push	{r4}
  37              	.LCFI0:
  38              		.cfi_def_cfa_offset 4
  39              		.cfi_offset 4, -4
  46:Core/Src/main.c ****     // front legs
  47:Core/Src/main.c ****     if (huart->Instance == USART1){
  40              		.loc 1 47 5 is_stmt 1 view .LVU2
  41              		.loc 1 47 14 is_stmt 0 view .LVU3
  42 0002 0268     		ldr	r2, [r0]
  43              		.loc 1 47 8 view .LVU4
  44 0004 214B     		ldr	r3, .L13
  45 0006 9A42     		cmp	r2, r3
  46 0008 1FD0     		beq	.L11
  47              	.L3:
  48:Core/Src/main.c ****       for (int i = 0; i < 4; i ++){
  49:Core/Src/main.c ****         joint_ang_feedback[0][i] = rx1_buf[i];
  50:Core/Src/main.c ****         joint_ang_feedback[1][i] = rx1_buf[i+4];
  51:Core/Src/main.c ****       }
  52:Core/Src/main.c ****       // HAL_Delay(5);
  53:Core/Src/main.c ****       // HAL_UART_Receive_DMA(&huart1, rx1_buf, RX1_BUF_SIZE);
  54:Core/Src/main.c ****     }
  55:Core/Src/main.c **** 
  56:Core/Src/main.c ****     // back legs
  57:Core/Src/main.c ****     if (huart->Instance == USART6){
  48              		.loc 1 57 5 is_stmt 1 view .LVU5
  49              		.loc 1 57 14 is_stmt 0 view .LVU6
  50 000a 0268     		ldr	r2, [r0]
  51              		.loc 1 57 8 view .LVU7
  52 000c 204B     		ldr	r3, .L13+4
  53 000e 9A42     		cmp	r2, r3
  54 0010 3AD0     		beq	.L12
  55              	.LVL1:
  56              	.L1:
  58:Core/Src/main.c ****       for (int i = 0; i < 4; i ++){
  59:Core/Src/main.c ****         joint_ang_feedback[2][i] = rx6_buf[i];
ARM GAS  /tmp/ccDFtLCb.s 			page 3


  60:Core/Src/main.c ****         joint_ang_feedback[3][i] = rx6_buf[i+4];
  61:Core/Src/main.c ****       }
  62:Core/Src/main.c ****       // HAL_Delay(5);
  63:Core/Src/main.c ****       // HAL_UART_Receive_DMA(&huart6, rx6_buf, RX6_BUF_SIZE);
  64:Core/Src/main.c ****     }
  65:Core/Src/main.c **** }
  57              		.loc 1 65 1 view .LVU8
  58 0012 5DF8044B 		ldr	r4, [sp], #4
  59              	.LCFI1:
  60              		.cfi_remember_state
  61              		.cfi_restore 4
  62              		.cfi_def_cfa_offset 0
  63 0016 7047     		bx	lr
  64              	.LVL2:
  65              	.L4:
  66              	.LCFI2:
  67              		.cfi_restore_state
  68              	.LBB4:
  49:Core/Src/main.c ****         joint_ang_feedback[1][i] = rx1_buf[i+4];
  69              		.loc 1 49 9 is_stmt 1 discriminator 3 view .LVU9
  49:Core/Src/main.c ****         joint_ang_feedback[1][i] = rx1_buf[i+4];
  70              		.loc 1 49 43 is_stmt 0 discriminator 3 view .LVU10
  71 0018 1E4C     		ldr	r4, .L13+8
  72 001a E25C     		ldrb	r2, [r4, r3]	@ zero_extendqisi2
  73 001c 07EE902A 		vmov	s15, r2	@ int
  49:Core/Src/main.c ****         joint_ang_feedback[1][i] = rx1_buf[i+4];
  74              		.loc 1 49 34 discriminator 3 view .LVU11
  75 0020 1D4A     		ldr	r2, .L13+12
  76 0022 02EB8301 		add	r1, r2, r3, lsl #2
  77 0026 F8EE677A 		vcvt.f32.u32	s15, s15
  78 002a C1ED007A 		vstr.32	s15, [r1]
  50:Core/Src/main.c ****       }
  79              		.loc 1 50 9 is_stmt 1 discriminator 3 view .LVU12
  50:Core/Src/main.c ****       }
  80              		.loc 1 50 45 is_stmt 0 discriminator 3 view .LVU13
  81 002e 191D     		adds	r1, r3, #4
  50:Core/Src/main.c ****       }
  82              		.loc 1 50 43 discriminator 3 view .LVU14
  83 0030 645C     		ldrb	r4, [r4, r1]	@ zero_extendqisi2
  84 0032 07EE904A 		vmov	s15, r4	@ int
  50:Core/Src/main.c ****       }
  85              		.loc 1 50 34 discriminator 3 view .LVU15
  86 0036 02EB8102 		add	r2, r2, r1, lsl #2
  87 003a F8EE677A 		vcvt.f32.u32	s15, s15
  88 003e C2ED007A 		vstr.32	s15, [r2]
  48:Core/Src/main.c ****         joint_ang_feedback[0][i] = rx1_buf[i];
  89              		.loc 1 48 30 is_stmt 1 discriminator 3 view .LVU16
  48:Core/Src/main.c ****         joint_ang_feedback[0][i] = rx1_buf[i];
  90              		.loc 1 48 32 is_stmt 0 discriminator 3 view .LVU17
  91 0042 0133     		adds	r3, r3, #1
  92              	.LVL3:
  93              	.L2:
  48:Core/Src/main.c ****         joint_ang_feedback[0][i] = rx1_buf[i];
  94              		.loc 1 48 23 is_stmt 1 discriminator 1 view .LVU18
  48:Core/Src/main.c ****         joint_ang_feedback[0][i] = rx1_buf[i];
  95              		.loc 1 48 7 is_stmt 0 discriminator 1 view .LVU19
  96 0044 032B     		cmp	r3, #3
ARM GAS  /tmp/ccDFtLCb.s 			page 4


  97 0046 E7DD     		ble	.L4
  98 0048 DFE7     		b	.L3
  99              	.LVL4:
 100              	.L11:
  48:Core/Src/main.c ****         joint_ang_feedback[0][i] = rx1_buf[i];
 101              		.loc 1 48 16 view .LVU20
 102 004a 0023     		movs	r3, #0
 103 004c FAE7     		b	.L2
 104              	.LVL5:
 105              	.L7:
  48:Core/Src/main.c ****         joint_ang_feedback[0][i] = rx1_buf[i];
 106              		.loc 1 48 16 view .LVU21
 107              	.LBE4:
 108              	.LBB5:
  59:Core/Src/main.c ****         joint_ang_feedback[3][i] = rx6_buf[i+4];
 109              		.loc 1 59 9 is_stmt 1 discriminator 3 view .LVU22
  59:Core/Src/main.c ****         joint_ang_feedback[3][i] = rx6_buf[i+4];
 110              		.loc 1 59 43 is_stmt 0 discriminator 3 view .LVU23
 111 004e 1348     		ldr	r0, .L13+16
 112 0050 C25C     		ldrb	r2, [r0, r3]	@ zero_extendqisi2
 113 0052 07EE902A 		vmov	s15, r2	@ int
  59:Core/Src/main.c ****         joint_ang_feedback[3][i] = rx6_buf[i+4];
 114              		.loc 1 59 34 discriminator 3 view .LVU24
 115 0056 104A     		ldr	r2, .L13+12
 116 0058 03F10801 		add	r1, r3, #8
 117 005c 02EB8101 		add	r1, r2, r1, lsl #2
 118 0060 F8EE677A 		vcvt.f32.u32	s15, s15
 119 0064 C1ED007A 		vstr.32	s15, [r1]
  60:Core/Src/main.c ****       }
 120              		.loc 1 60 9 is_stmt 1 discriminator 3 view .LVU25
  60:Core/Src/main.c ****       }
 121              		.loc 1 60 45 is_stmt 0 discriminator 3 view .LVU26
 122 0068 191D     		adds	r1, r3, #4
  60:Core/Src/main.c ****       }
 123              		.loc 1 60 43 discriminator 3 view .LVU27
 124 006a 415C     		ldrb	r1, [r0, r1]	@ zero_extendqisi2
 125 006c 07EE901A 		vmov	s15, r1	@ int
  60:Core/Src/main.c ****       }
 126              		.loc 1 60 34 discriminator 3 view .LVU28
 127 0070 03F10C01 		add	r1, r3, #12
 128 0074 02EB8102 		add	r2, r2, r1, lsl #2
 129 0078 F8EE677A 		vcvt.f32.u32	s15, s15
 130 007c C2ED007A 		vstr.32	s15, [r2]
  58:Core/Src/main.c ****         joint_ang_feedback[2][i] = rx6_buf[i];
 131              		.loc 1 58 30 is_stmt 1 discriminator 3 view .LVU29
  58:Core/Src/main.c ****         joint_ang_feedback[2][i] = rx6_buf[i];
 132              		.loc 1 58 32 is_stmt 0 discriminator 3 view .LVU30
 133 0080 0133     		adds	r3, r3, #1
 134              	.LVL6:
 135              	.L5:
  58:Core/Src/main.c ****         joint_ang_feedback[2][i] = rx6_buf[i];
 136              		.loc 1 58 23 is_stmt 1 discriminator 1 view .LVU31
  58:Core/Src/main.c ****         joint_ang_feedback[2][i] = rx6_buf[i];
 137              		.loc 1 58 7 is_stmt 0 discriminator 1 view .LVU32
 138 0082 032B     		cmp	r3, #3
 139 0084 E3DD     		ble	.L7
 140 0086 C4E7     		b	.L1
ARM GAS  /tmp/ccDFtLCb.s 			page 5


 141              	.LVL7:
 142              	.L12:
  58:Core/Src/main.c ****         joint_ang_feedback[2][i] = rx6_buf[i];
 143              		.loc 1 58 16 view .LVU33
 144 0088 0023     		movs	r3, #0
 145 008a FAE7     		b	.L5
 146              	.L14:
 147              		.align	2
 148              	.L13:
 149 008c 00100140 		.word	1073811456
 150 0090 00140140 		.word	1073812480
 151 0094 00000000 		.word	rx1_buf
 152 0098 00000000 		.word	joint_ang_feedback
 153 009c 00000000 		.word	rx6_buf
 154              	.LBE5:
 155              		.cfi_endproc
 156              	.LFE239:
 158              		.section	.text.HAL_UART_TxCpltCallback,"ax",%progbits
 159              		.align	1
 160              		.global	HAL_UART_TxCpltCallback
 161              		.syntax unified
 162              		.thumb
 163              		.thumb_func
 164              		.fpu fpv4-sp-d16
 166              	HAL_UART_TxCpltCallback:
 167              	.LVL8:
 168              	.LFB240:
  66:Core/Src/main.c **** 
  67:Core/Src/main.c **** 
  68:Core/Src/main.c **** void HAL_UART_TxCpltCallback(UART_HandleTypeDef *huart)
  69:Core/Src/main.c **** {
 169              		.loc 1 69 1 is_stmt 1 view -0
 170              		.cfi_startproc
 171              		@ args = 0, pretend = 0, frame = 24
 172              		@ frame_needed = 0, uses_anonymous_args = 0
 173              		.loc 1 69 1 is_stmt 0 view .LVU35
 174 0000 10B5     		push	{r4, lr}
 175              	.LCFI3:
 176              		.cfi_def_cfa_offset 8
 177              		.cfi_offset 4, -8
 178              		.cfi_offset 14, -4
 179 0002 86B0     		sub	sp, sp, #24
 180              	.LCFI4:
 181              		.cfi_def_cfa_offset 32
 182 0004 0446     		mov	r4, r0
  70:Core/Src/main.c ****     // front legs
  71:Core/Src/main.c ****     if (huart->Instance == USART1){ 
 183              		.loc 1 71 5 is_stmt 1 view .LVU36
 184              		.loc 1 71 14 is_stmt 0 view .LVU37
 185 0006 0268     		ldr	r2, [r0]
 186              		.loc 1 71 8 view .LVU38
 187 0008 1C4B     		ldr	r3, .L29
 188 000a 9A42     		cmp	r2, r3
 189 000c 05D0     		beq	.L25
 190              	.LVL9:
 191              	.L17:
  72:Core/Src/main.c ****       float transmit_data[6];
ARM GAS  /tmp/ccDFtLCb.s 			page 6


  73:Core/Src/main.c ****       for (uint8_t i=0; i<6; i++){
  74:Core/Src/main.c ****         transmit_data[i] = joint_ang[i];
  75:Core/Src/main.c ****       }
  76:Core/Src/main.c ****       tx1_buf = (uint8_t*)transmit_data;
  77:Core/Src/main.c ****       HAL_UART_Transmit_DMA(&huart1, tx1_buf , TX1_BUF_SIZE);
  78:Core/Src/main.c ****     }
  79:Core/Src/main.c **** 
  80:Core/Src/main.c ****     // back legs
  81:Core/Src/main.c ****     if (huart->Instance == USART6){
 192              		.loc 1 81 5 is_stmt 1 view .LVU39
 193              		.loc 1 81 14 is_stmt 0 view .LVU40
 194 000e 2268     		ldr	r2, [r4]
 195              		.loc 1 81 8 view .LVU41
 196 0010 1B4B     		ldr	r3, .L29+4
 197 0012 9A42     		cmp	r2, r3
 198 0014 19D0     		beq	.L26
 199              	.L15:
  82:Core/Src/main.c ****       float transmit_data[6];
  83:Core/Src/main.c ****       for (uint8_t i=0; i<6; i++){
  84:Core/Src/main.c ****         transmit_data[i] = joint_ang[i+6];
  85:Core/Src/main.c ****       }
  86:Core/Src/main.c ****       tx6_buf = (uint8_t*)transmit_data;
  87:Core/Src/main.c ****       HAL_UART_Transmit_DMA(&huart6, tx6_buf, TX6_BUF_SIZE);
  88:Core/Src/main.c ****     }
  89:Core/Src/main.c **** }
 200              		.loc 1 89 1 view .LVU42
 201 0016 06B0     		add	sp, sp, #24
 202              	.LCFI5:
 203              		.cfi_remember_state
 204              		.cfi_def_cfa_offset 8
 205              		@ sp needed
 206 0018 10BD     		pop	{r4, pc}
 207              	.LVL10:
 208              	.L25:
 209              	.LCFI6:
 210              		.cfi_restore_state
 211              	.LBB6:
 212              	.LBB7:
  73:Core/Src/main.c ****         transmit_data[i] = joint_ang[i];
 213              		.loc 1 73 20 view .LVU43
 214 001a 0023     		movs	r3, #0
 215              	.L16:
 216              	.LVL11:
  73:Core/Src/main.c ****         transmit_data[i] = joint_ang[i];
 217              		.loc 1 73 25 is_stmt 1 discriminator 1 view .LVU44
  73:Core/Src/main.c ****         transmit_data[i] = joint_ang[i];
 218              		.loc 1 73 7 is_stmt 0 discriminator 1 view .LVU45
 219 001c 052B     		cmp	r3, #5
 220 001e 0BD8     		bhi	.L27
  74:Core/Src/main.c ****       }
 221              		.loc 1 74 9 is_stmt 1 discriminator 3 view .LVU46
  74:Core/Src/main.c ****       }
 222              		.loc 1 74 37 is_stmt 0 discriminator 3 view .LVU47
 223 0020 184A     		ldr	r2, .L29+8
 224 0022 02EB8302 		add	r2, r2, r3, lsl #2
 225 0026 1168     		ldr	r1, [r2]	@ float
  74:Core/Src/main.c ****       }
ARM GAS  /tmp/ccDFtLCb.s 			page 7


 226              		.loc 1 74 26 discriminator 3 view .LVU48
 227 0028 06AA     		add	r2, sp, #24
 228 002a 02EB8302 		add	r2, r2, r3, lsl #2
 229 002e 42F8181C 		str	r1, [r2, #-24]	@ float
  73:Core/Src/main.c ****         transmit_data[i] = joint_ang[i];
 230              		.loc 1 73 30 is_stmt 1 discriminator 3 view .LVU49
  73:Core/Src/main.c ****         transmit_data[i] = joint_ang[i];
 231              		.loc 1 73 31 is_stmt 0 discriminator 3 view .LVU50
 232 0032 0133     		adds	r3, r3, #1
 233              	.LVL12:
  73:Core/Src/main.c ****         transmit_data[i] = joint_ang[i];
 234              		.loc 1 73 31 discriminator 3 view .LVU51
 235 0034 DBB2     		uxtb	r3, r3
 236              	.LVL13:
  73:Core/Src/main.c ****         transmit_data[i] = joint_ang[i];
 237              		.loc 1 73 31 discriminator 3 view .LVU52
 238 0036 F1E7     		b	.L16
 239              	.L27:
  73:Core/Src/main.c ****         transmit_data[i] = joint_ang[i];
 240              		.loc 1 73 31 discriminator 3 view .LVU53
 241              	.LBE7:
  76:Core/Src/main.c ****       HAL_UART_Transmit_DMA(&huart1, tx1_buf , TX1_BUF_SIZE);
 242              		.loc 1 76 7 is_stmt 1 view .LVU54
  76:Core/Src/main.c ****       HAL_UART_Transmit_DMA(&huart1, tx1_buf , TX1_BUF_SIZE);
 243              		.loc 1 76 15 is_stmt 0 view .LVU55
 244 0038 134B     		ldr	r3, .L29+12
 245              	.LVL14:
  76:Core/Src/main.c ****       HAL_UART_Transmit_DMA(&huart1, tx1_buf , TX1_BUF_SIZE);
 246              		.loc 1 76 15 view .LVU56
 247 003a C3F800D0 		str	sp, [r3]
  77:Core/Src/main.c ****     }
 248              		.loc 1 77 7 is_stmt 1 view .LVU57
 249 003e 1822     		movs	r2, #24
 250 0040 6946     		mov	r1, sp
 251 0042 1248     		ldr	r0, .L29+16
 252              	.LVL15:
  77:Core/Src/main.c ****     }
 253              		.loc 1 77 7 is_stmt 0 view .LVU58
 254 0044 FFF7FEFF 		bl	HAL_UART_Transmit_DMA
 255              	.LVL16:
 256 0048 E1E7     		b	.L17
 257              	.L26:
  77:Core/Src/main.c ****     }
 258              		.loc 1 77 7 view .LVU59
 259              	.LBE6:
 260              	.LBB8:
 261              	.LBB9:
  83:Core/Src/main.c ****         transmit_data[i] = joint_ang[i+6];
 262              		.loc 1 83 20 view .LVU60
 263 004a 0023     		movs	r3, #0
 264              	.L19:
 265              	.LVL17:
  83:Core/Src/main.c ****         transmit_data[i] = joint_ang[i+6];
 266              		.loc 1 83 25 is_stmt 1 discriminator 1 view .LVU61
  83:Core/Src/main.c ****         transmit_data[i] = joint_ang[i+6];
 267              		.loc 1 83 7 is_stmt 0 discriminator 1 view .LVU62
 268 004c 052B     		cmp	r3, #5
ARM GAS  /tmp/ccDFtLCb.s 			page 8


 269 004e 0CD8     		bhi	.L28
  84:Core/Src/main.c ****       }
 270              		.loc 1 84 9 is_stmt 1 discriminator 3 view .LVU63
  84:Core/Src/main.c ****       }
 271              		.loc 1 84 39 is_stmt 0 discriminator 3 view .LVU64
 272 0050 991D     		adds	r1, r3, #6
  84:Core/Src/main.c ****       }
 273              		.loc 1 84 37 discriminator 3 view .LVU65
 274 0052 0C4A     		ldr	r2, .L29+8
 275 0054 02EB8102 		add	r2, r2, r1, lsl #2
 276 0058 1168     		ldr	r1, [r2]	@ float
  84:Core/Src/main.c ****       }
 277              		.loc 1 84 26 discriminator 3 view .LVU66
 278 005a 06AA     		add	r2, sp, #24
 279 005c 02EB8302 		add	r2, r2, r3, lsl #2
 280 0060 42F8181C 		str	r1, [r2, #-24]	@ float
  83:Core/Src/main.c ****         transmit_data[i] = joint_ang[i+6];
 281              		.loc 1 83 30 is_stmt 1 discriminator 3 view .LVU67
  83:Core/Src/main.c ****         transmit_data[i] = joint_ang[i+6];
 282              		.loc 1 83 31 is_stmt 0 discriminator 3 view .LVU68
 283 0064 0133     		adds	r3, r3, #1
 284              	.LVL18:
  83:Core/Src/main.c ****         transmit_data[i] = joint_ang[i+6];
 285              		.loc 1 83 31 discriminator 3 view .LVU69
 286 0066 DBB2     		uxtb	r3, r3
 287              	.LVL19:
  83:Core/Src/main.c ****         transmit_data[i] = joint_ang[i+6];
 288              		.loc 1 83 31 discriminator 3 view .LVU70
 289 0068 F0E7     		b	.L19
 290              	.L28:
  83:Core/Src/main.c ****         transmit_data[i] = joint_ang[i+6];
 291              		.loc 1 83 31 discriminator 3 view .LVU71
 292              	.LBE9:
  86:Core/Src/main.c ****       HAL_UART_Transmit_DMA(&huart6, tx6_buf, TX6_BUF_SIZE);
 293              		.loc 1 86 7 is_stmt 1 view .LVU72
  86:Core/Src/main.c ****       HAL_UART_Transmit_DMA(&huart6, tx6_buf, TX6_BUF_SIZE);
 294              		.loc 1 86 15 is_stmt 0 view .LVU73
 295 006a 094B     		ldr	r3, .L29+20
 296              	.LVL20:
  86:Core/Src/main.c ****       HAL_UART_Transmit_DMA(&huart6, tx6_buf, TX6_BUF_SIZE);
 297              		.loc 1 86 15 view .LVU74
 298 006c C3F800D0 		str	sp, [r3]
  87:Core/Src/main.c ****     }
 299              		.loc 1 87 7 is_stmt 1 view .LVU75
 300 0070 1822     		movs	r2, #24
 301 0072 6946     		mov	r1, sp
 302 0074 0748     		ldr	r0, .L29+24
 303 0076 FFF7FEFF 		bl	HAL_UART_Transmit_DMA
 304              	.LVL21:
 305              	.LBE8:
 306              		.loc 1 89 1 is_stmt 0 view .LVU76
 307 007a CCE7     		b	.L15
 308              	.L30:
 309              		.align	2
 310              	.L29:
 311 007c 00100140 		.word	1073811456
 312 0080 00140140 		.word	1073812480
ARM GAS  /tmp/ccDFtLCb.s 			page 9


 313 0084 00000000 		.word	joint_ang
 314 0088 00000000 		.word	tx1_buf
 315 008c 00000000 		.word	huart1
 316 0090 00000000 		.word	tx6_buf
 317 0094 00000000 		.word	huart6
 318              		.cfi_endproc
 319              	.LFE240:
 321              		.section	.text.HAL_TIM_PeriodElapsedCallback,"ax",%progbits
 322              		.align	1
 323              		.global	HAL_TIM_PeriodElapsedCallback
 324              		.syntax unified
 325              		.thumb
 326              		.thumb_func
 327              		.fpu fpv4-sp-d16
 329              	HAL_TIM_PeriodElapsedCallback:
 330              	.LVL22:
 331              	.LFB243:
  90:Core/Src/main.c **** 
  91:Core/Src/main.c **** int main(void)
  92:Core/Src/main.c **** {
  93:Core/Src/main.c ****   HAL_Init();
  94:Core/Src/main.c ****   SystemClock_Config();
  95:Core/Src/main.c ****   MX_GPIO_Init();
  96:Core/Src/main.c ****   MX_DMA_Init();
  97:Core/Src/main.c ****   MX_I2C1_Init();
  98:Core/Src/main.c ****   MX_USART2_UART_Init();
  99:Core/Src/main.c ****   MX_I2C3_Init();
 100:Core/Src/main.c ****   MX_USART1_UART_Init();
 101:Core/Src/main.c ****   MX_USART6_UART_Init();
 102:Core/Src/main.c ****   MX_ADC1_Init();
 103:Core/Src/main.c **** 
 104:Core/Src/main.c **** 
 105:Core/Src/main.c **** 
 106:Core/Src/main.c ****   // front legs
 107:Core/Src/main.c ****   HAL_UART_Receive_DMA(&huart1, rx1_buf, RX1_BUF_SIZE);
 108:Core/Src/main.c ****   float transmit_data1[6];
 109:Core/Src/main.c ****   for (uint8_t i=0; i<6; i++) {transmit_data1[i] = joint_ang[i];}
 110:Core/Src/main.c ****   tx1_buf = (uint8_t*)transmit_data1;
 111:Core/Src/main.c ****   HAL_UART_Transmit_DMA(&huart1, tx1_buf, TX1_BUF_SIZE);
 112:Core/Src/main.c **** 
 113:Core/Src/main.c ****   // back legs
 114:Core/Src/main.c ****   float transmit_data2[6];
 115:Core/Src/main.c ****   for (uint8_t i=0; i<6; i++) {transmit_data2[i] = joint_ang[i+6];}
 116:Core/Src/main.c ****   tx6_buf = (uint8_t*)transmit_data2;
 117:Core/Src/main.c ****   HAL_UART_Receive_DMA(&huart6, rx6_buf, RX6_BUF_SIZE);
 118:Core/Src/main.c ****   HAL_UART_Transmit_DMA(&huart6, tx6_buf, RX6_BUF_SIZE);
 119:Core/Src/main.c **** 
 120:Core/Src/main.c **** 
 121:Core/Src/main.c ****   /* Init scheduler */
 122:Core/Src/main.c ****   osKernelInitialize();  /* Call init function for freertos objects (in freertos.c) */
 123:Core/Src/main.c ****   MX_FREERTOS_Init();
 124:Core/Src/main.c ****   /* Start scheduler */
 125:Core/Src/main.c ****   osKernelStart();
 126:Core/Src/main.c ****   /* We should never get here as control is now taken by the scheduler */
 127:Core/Src/main.c ****   /* Infinite loop */
 128:Core/Src/main.c ****   /* USER CODE BEGIN WHILE */
 129:Core/Src/main.c ****   while (1)
ARM GAS  /tmp/ccDFtLCb.s 			page 10


 130:Core/Src/main.c ****   {
 131:Core/Src/main.c ****     /* USER CODE END WHILE */
 132:Core/Src/main.c ****     int x = HAL_ADC_GetValue(&hadc1);
 133:Core/Src/main.c ****     /* USER CODE BEGIN 3 */
 134:Core/Src/main.c ****   }
 135:Core/Src/main.c ****   /* USER CODE END 3 */
 136:Core/Src/main.c **** }
 137:Core/Src/main.c **** 
 138:Core/Src/main.c **** /**
 139:Core/Src/main.c ****   * @brief System Clock Configuration
 140:Core/Src/main.c ****   * @retval None
 141:Core/Src/main.c ****   */
 142:Core/Src/main.c **** void SystemClock_Config(void)
 143:Core/Src/main.c **** {
 144:Core/Src/main.c ****   RCC_OscInitTypeDef RCC_OscInitStruct = {0};
 145:Core/Src/main.c ****   RCC_ClkInitTypeDef RCC_ClkInitStruct = {0};
 146:Core/Src/main.c **** 
 147:Core/Src/main.c ****   /** Configure the main internal regulator output voltage
 148:Core/Src/main.c ****   */
 149:Core/Src/main.c ****   __HAL_RCC_PWR_CLK_ENABLE();
 150:Core/Src/main.c ****   __HAL_PWR_VOLTAGESCALING_CONFIG(PWR_REGULATOR_VOLTAGE_SCALE1);
 151:Core/Src/main.c **** 
 152:Core/Src/main.c ****   /** Initializes the RCC Oscillators according to the specified parameters
 153:Core/Src/main.c ****   * in the RCC_OscInitTypeDef structure.
 154:Core/Src/main.c ****   */
 155:Core/Src/main.c ****   RCC_OscInitStruct.OscillatorType = RCC_OSCILLATORTYPE_HSE;
 156:Core/Src/main.c ****   RCC_OscInitStruct.HSEState = RCC_HSE_ON;
 157:Core/Src/main.c ****   RCC_OscInitStruct.PLL.PLLState = RCC_PLL_ON;
 158:Core/Src/main.c ****   RCC_OscInitStruct.PLL.PLLSource = RCC_PLLSOURCE_HSE;
 159:Core/Src/main.c ****   RCC_OscInitStruct.PLL.PLLM = 8;
 160:Core/Src/main.c ****   RCC_OscInitStruct.PLL.PLLN = 336;
 161:Core/Src/main.c ****   RCC_OscInitStruct.PLL.PLLP = RCC_PLLP_DIV2;
 162:Core/Src/main.c ****   RCC_OscInitStruct.PLL.PLLQ = 7;
 163:Core/Src/main.c ****   if (HAL_RCC_OscConfig(&RCC_OscInitStruct) != HAL_OK)
 164:Core/Src/main.c ****   {
 165:Core/Src/main.c ****     Error_Handler();
 166:Core/Src/main.c ****   }
 167:Core/Src/main.c **** 
 168:Core/Src/main.c ****   /** Initializes the CPU, AHB and APB buses clocks
 169:Core/Src/main.c ****   */
 170:Core/Src/main.c ****   RCC_ClkInitStruct.ClockType = RCC_CLOCKTYPE_HCLK|RCC_CLOCKTYPE_SYSCLK
 171:Core/Src/main.c ****                               |RCC_CLOCKTYPE_PCLK1|RCC_CLOCKTYPE_PCLK2;
 172:Core/Src/main.c ****   RCC_ClkInitStruct.SYSCLKSource = RCC_SYSCLKSOURCE_PLLCLK;
 173:Core/Src/main.c ****   RCC_ClkInitStruct.AHBCLKDivider = RCC_SYSCLK_DIV1;
 174:Core/Src/main.c ****   RCC_ClkInitStruct.APB1CLKDivider = RCC_HCLK_DIV4;
 175:Core/Src/main.c ****   RCC_ClkInitStruct.APB2CLKDivider = RCC_HCLK_DIV2;
 176:Core/Src/main.c **** 
 177:Core/Src/main.c ****   if (HAL_RCC_ClockConfig(&RCC_ClkInitStruct, FLASH_LATENCY_5) != HAL_OK)
 178:Core/Src/main.c ****   {
 179:Core/Src/main.c ****     Error_Handler();
 180:Core/Src/main.c ****   }
 181:Core/Src/main.c **** }
 182:Core/Src/main.c **** 
 183:Core/Src/main.c **** /* USER CODE BEGIN 4 */
 184:Core/Src/main.c **** 
 185:Core/Src/main.c **** /* USER CODE END 4 */
 186:Core/Src/main.c **** 
ARM GAS  /tmp/ccDFtLCb.s 			page 11


 187:Core/Src/main.c **** /**
 188:Core/Src/main.c ****   * @brief  Period elapsed callback in non blocking mode
 189:Core/Src/main.c ****   * @note   This function is called  when TIM1 interrupt took place, inside
 190:Core/Src/main.c ****   * HAL_TIM_IRQHandler(). It makes a direct call to HAL_IncTick() to increment
 191:Core/Src/main.c ****   * a global variable "uwTick" used as application time base.
 192:Core/Src/main.c ****   * @param  htim : TIM handle
 193:Core/Src/main.c ****   * @retval None
 194:Core/Src/main.c ****   */
 195:Core/Src/main.c **** void HAL_TIM_PeriodElapsedCallback(TIM_HandleTypeDef *htim)
 196:Core/Src/main.c **** {
 332              		.loc 1 196 1 is_stmt 1 view -0
 333              		.cfi_startproc
 334              		@ args = 0, pretend = 0, frame = 0
 335              		@ frame_needed = 0, uses_anonymous_args = 0
 336              		.loc 1 196 1 is_stmt 0 view .LVU78
 337 0000 08B5     		push	{r3, lr}
 338              	.LCFI7:
 339              		.cfi_def_cfa_offset 8
 340              		.cfi_offset 3, -8
 341              		.cfi_offset 14, -4
 197:Core/Src/main.c ****   /* USER CODE BEGIN Callback 0 */
 198:Core/Src/main.c **** 
 199:Core/Src/main.c ****   /* USER CODE END Callback 0 */
 200:Core/Src/main.c ****   if (htim->Instance == TIM1) {
 342              		.loc 1 200 3 is_stmt 1 view .LVU79
 343              		.loc 1 200 11 is_stmt 0 view .LVU80
 344 0002 0268     		ldr	r2, [r0]
 345              		.loc 1 200 6 view .LVU81
 346 0004 034B     		ldr	r3, .L35
 347 0006 9A42     		cmp	r2, r3
 348 0008 00D0     		beq	.L34
 349              	.LVL23:
 350              	.L31:
 201:Core/Src/main.c ****     HAL_IncTick();
 202:Core/Src/main.c ****   }
 203:Core/Src/main.c ****   /* USER CODE BEGIN Callback 1 */
 204:Core/Src/main.c **** 
 205:Core/Src/main.c ****   /* USER CODE END Callback 1 */
 206:Core/Src/main.c **** }
 351              		.loc 1 206 1 view .LVU82
 352 000a 08BD     		pop	{r3, pc}
 353              	.LVL24:
 354              	.L34:
 201:Core/Src/main.c ****     HAL_IncTick();
 355              		.loc 1 201 5 is_stmt 1 view .LVU83
 356 000c FFF7FEFF 		bl	HAL_IncTick
 357              	.LVL25:
 358              		.loc 1 206 1 is_stmt 0 view .LVU84
 359 0010 FBE7     		b	.L31
 360              	.L36:
 361 0012 00BF     		.align	2
 362              	.L35:
 363 0014 00000140 		.word	1073807360
 364              		.cfi_endproc
 365              	.LFE243:
 367              		.section	.text.Error_Handler,"ax",%progbits
 368              		.align	1
ARM GAS  /tmp/ccDFtLCb.s 			page 12


 369              		.global	Error_Handler
 370              		.syntax unified
 371              		.thumb
 372              		.thumb_func
 373              		.fpu fpv4-sp-d16
 375              	Error_Handler:
 376              	.LFB244:
 207:Core/Src/main.c **** 
 208:Core/Src/main.c **** /**
 209:Core/Src/main.c ****   * @brief  This function is executed in case of error occurrence.
 210:Core/Src/main.c ****   * @retval None
 211:Core/Src/main.c ****   */
 212:Core/Src/main.c **** void Error_Handler(void)
 213:Core/Src/main.c **** {
 377              		.loc 1 213 1 is_stmt 1 view -0
 378              		.cfi_startproc
 379              		@ Volatile: function does not return.
 380              		@ args = 0, pretend = 0, frame = 0
 381              		@ frame_needed = 0, uses_anonymous_args = 0
 382              		@ link register save eliminated.
 214:Core/Src/main.c ****   /* USER CODE BEGIN Error_Handler_Debug */
 215:Core/Src/main.c ****   /* User can add his own implementation to report the HAL error return state */
 216:Core/Src/main.c ****   __disable_irq();
 383              		.loc 1 216 3 view .LVU86
 384              	.LBB10:
 385              	.LBI10:
 386              		.file 2 "Drivers/CMSIS/Include/cmsis_gcc.h"
   1:Drivers/CMSIS/Include/cmsis_gcc.h **** /**************************************************************************//**
   2:Drivers/CMSIS/Include/cmsis_gcc.h ****  * @file     cmsis_gcc.h
   3:Drivers/CMSIS/Include/cmsis_gcc.h ****  * @brief    CMSIS compiler GCC header file
   4:Drivers/CMSIS/Include/cmsis_gcc.h ****  * @version  V5.0.4
   5:Drivers/CMSIS/Include/cmsis_gcc.h ****  * @date     09. April 2018
   6:Drivers/CMSIS/Include/cmsis_gcc.h ****  ******************************************************************************/
   7:Drivers/CMSIS/Include/cmsis_gcc.h **** /*
   8:Drivers/CMSIS/Include/cmsis_gcc.h ****  * Copyright (c) 2009-2018 Arm Limited. All rights reserved.
   9:Drivers/CMSIS/Include/cmsis_gcc.h ****  *
  10:Drivers/CMSIS/Include/cmsis_gcc.h ****  * SPDX-License-Identifier: Apache-2.0
  11:Drivers/CMSIS/Include/cmsis_gcc.h ****  *
  12:Drivers/CMSIS/Include/cmsis_gcc.h ****  * Licensed under the Apache License, Version 2.0 (the License); you may
  13:Drivers/CMSIS/Include/cmsis_gcc.h ****  * not use this file except in compliance with the License.
  14:Drivers/CMSIS/Include/cmsis_gcc.h ****  * You may obtain a copy of the License at
  15:Drivers/CMSIS/Include/cmsis_gcc.h ****  *
  16:Drivers/CMSIS/Include/cmsis_gcc.h ****  * www.apache.org/licenses/LICENSE-2.0
  17:Drivers/CMSIS/Include/cmsis_gcc.h ****  *
  18:Drivers/CMSIS/Include/cmsis_gcc.h ****  * Unless required by applicable law or agreed to in writing, software
  19:Drivers/CMSIS/Include/cmsis_gcc.h ****  * distributed under the License is distributed on an AS IS BASIS, WITHOUT
  20:Drivers/CMSIS/Include/cmsis_gcc.h ****  * WARRANTIES OR CONDITIONS OF ANY KIND, either express or implied.
  21:Drivers/CMSIS/Include/cmsis_gcc.h ****  * See the License for the specific language governing permissions and
  22:Drivers/CMSIS/Include/cmsis_gcc.h ****  * limitations under the License.
  23:Drivers/CMSIS/Include/cmsis_gcc.h ****  */
  24:Drivers/CMSIS/Include/cmsis_gcc.h **** 
  25:Drivers/CMSIS/Include/cmsis_gcc.h **** #ifndef __CMSIS_GCC_H
  26:Drivers/CMSIS/Include/cmsis_gcc.h **** #define __CMSIS_GCC_H
  27:Drivers/CMSIS/Include/cmsis_gcc.h **** 
  28:Drivers/CMSIS/Include/cmsis_gcc.h **** /* ignore some GCC warnings */
  29:Drivers/CMSIS/Include/cmsis_gcc.h **** #pragma GCC diagnostic push
  30:Drivers/CMSIS/Include/cmsis_gcc.h **** #pragma GCC diagnostic ignored "-Wsign-conversion"
ARM GAS  /tmp/ccDFtLCb.s 			page 13


  31:Drivers/CMSIS/Include/cmsis_gcc.h **** #pragma GCC diagnostic ignored "-Wconversion"
  32:Drivers/CMSIS/Include/cmsis_gcc.h **** #pragma GCC diagnostic ignored "-Wunused-parameter"
  33:Drivers/CMSIS/Include/cmsis_gcc.h **** 
  34:Drivers/CMSIS/Include/cmsis_gcc.h **** /* Fallback for __has_builtin */
  35:Drivers/CMSIS/Include/cmsis_gcc.h **** #ifndef __has_builtin
  36:Drivers/CMSIS/Include/cmsis_gcc.h ****   #define __has_builtin(x) (0)
  37:Drivers/CMSIS/Include/cmsis_gcc.h **** #endif
  38:Drivers/CMSIS/Include/cmsis_gcc.h **** 
  39:Drivers/CMSIS/Include/cmsis_gcc.h **** /* CMSIS compiler specific defines */
  40:Drivers/CMSIS/Include/cmsis_gcc.h **** #ifndef   __ASM
  41:Drivers/CMSIS/Include/cmsis_gcc.h ****   #define __ASM                                  __asm
  42:Drivers/CMSIS/Include/cmsis_gcc.h **** #endif
  43:Drivers/CMSIS/Include/cmsis_gcc.h **** #ifndef   __INLINE
  44:Drivers/CMSIS/Include/cmsis_gcc.h ****   #define __INLINE                               inline
  45:Drivers/CMSIS/Include/cmsis_gcc.h **** #endif
  46:Drivers/CMSIS/Include/cmsis_gcc.h **** #ifndef   __STATIC_INLINE
  47:Drivers/CMSIS/Include/cmsis_gcc.h ****   #define __STATIC_INLINE                        static inline
  48:Drivers/CMSIS/Include/cmsis_gcc.h **** #endif
  49:Drivers/CMSIS/Include/cmsis_gcc.h **** #ifndef   __STATIC_FORCEINLINE                 
  50:Drivers/CMSIS/Include/cmsis_gcc.h ****   #define __STATIC_FORCEINLINE                   __attribute__((always_inline)) static inline
  51:Drivers/CMSIS/Include/cmsis_gcc.h **** #endif                                           
  52:Drivers/CMSIS/Include/cmsis_gcc.h **** #ifndef   __NO_RETURN
  53:Drivers/CMSIS/Include/cmsis_gcc.h ****   #define __NO_RETURN                            __attribute__((__noreturn__))
  54:Drivers/CMSIS/Include/cmsis_gcc.h **** #endif
  55:Drivers/CMSIS/Include/cmsis_gcc.h **** #ifndef   __USED
  56:Drivers/CMSIS/Include/cmsis_gcc.h ****   #define __USED                                 __attribute__((used))
  57:Drivers/CMSIS/Include/cmsis_gcc.h **** #endif
  58:Drivers/CMSIS/Include/cmsis_gcc.h **** #ifndef   __WEAK
  59:Drivers/CMSIS/Include/cmsis_gcc.h ****   #define __WEAK                                 __attribute__((weak))
  60:Drivers/CMSIS/Include/cmsis_gcc.h **** #endif
  61:Drivers/CMSIS/Include/cmsis_gcc.h **** #ifndef   __PACKED
  62:Drivers/CMSIS/Include/cmsis_gcc.h ****   #define __PACKED                               __attribute__((packed, aligned(1)))
  63:Drivers/CMSIS/Include/cmsis_gcc.h **** #endif
  64:Drivers/CMSIS/Include/cmsis_gcc.h **** #ifndef   __PACKED_STRUCT
  65:Drivers/CMSIS/Include/cmsis_gcc.h ****   #define __PACKED_STRUCT                        struct __attribute__((packed, aligned(1)))
  66:Drivers/CMSIS/Include/cmsis_gcc.h **** #endif
  67:Drivers/CMSIS/Include/cmsis_gcc.h **** #ifndef   __PACKED_UNION
  68:Drivers/CMSIS/Include/cmsis_gcc.h ****   #define __PACKED_UNION                         union __attribute__((packed, aligned(1)))
  69:Drivers/CMSIS/Include/cmsis_gcc.h **** #endif
  70:Drivers/CMSIS/Include/cmsis_gcc.h **** #ifndef   __UNALIGNED_UINT32        /* deprecated */
  71:Drivers/CMSIS/Include/cmsis_gcc.h ****   #pragma GCC diagnostic push
  72:Drivers/CMSIS/Include/cmsis_gcc.h ****   #pragma GCC diagnostic ignored "-Wpacked"
  73:Drivers/CMSIS/Include/cmsis_gcc.h ****   #pragma GCC diagnostic ignored "-Wattributes"
  74:Drivers/CMSIS/Include/cmsis_gcc.h ****   struct __attribute__((packed)) T_UINT32 { uint32_t v; };
  75:Drivers/CMSIS/Include/cmsis_gcc.h ****   #pragma GCC diagnostic pop
  76:Drivers/CMSIS/Include/cmsis_gcc.h ****   #define __UNALIGNED_UINT32(x)                  (((struct T_UINT32 *)(x))->v)
  77:Drivers/CMSIS/Include/cmsis_gcc.h **** #endif
  78:Drivers/CMSIS/Include/cmsis_gcc.h **** #ifndef   __UNALIGNED_UINT16_WRITE
  79:Drivers/CMSIS/Include/cmsis_gcc.h ****   #pragma GCC diagnostic push
  80:Drivers/CMSIS/Include/cmsis_gcc.h ****   #pragma GCC diagnostic ignored "-Wpacked"
  81:Drivers/CMSIS/Include/cmsis_gcc.h ****   #pragma GCC diagnostic ignored "-Wattributes"
  82:Drivers/CMSIS/Include/cmsis_gcc.h ****   __PACKED_STRUCT T_UINT16_WRITE { uint16_t v; };
  83:Drivers/CMSIS/Include/cmsis_gcc.h ****   #pragma GCC diagnostic pop
  84:Drivers/CMSIS/Include/cmsis_gcc.h ****   #define __UNALIGNED_UINT16_WRITE(addr, val)    (void)((((struct T_UINT16_WRITE *)(void *)(addr))-
  85:Drivers/CMSIS/Include/cmsis_gcc.h **** #endif
  86:Drivers/CMSIS/Include/cmsis_gcc.h **** #ifndef   __UNALIGNED_UINT16_READ
  87:Drivers/CMSIS/Include/cmsis_gcc.h ****   #pragma GCC diagnostic push
ARM GAS  /tmp/ccDFtLCb.s 			page 14


  88:Drivers/CMSIS/Include/cmsis_gcc.h ****   #pragma GCC diagnostic ignored "-Wpacked"
  89:Drivers/CMSIS/Include/cmsis_gcc.h ****   #pragma GCC diagnostic ignored "-Wattributes"
  90:Drivers/CMSIS/Include/cmsis_gcc.h ****   __PACKED_STRUCT T_UINT16_READ { uint16_t v; };
  91:Drivers/CMSIS/Include/cmsis_gcc.h ****   #pragma GCC diagnostic pop
  92:Drivers/CMSIS/Include/cmsis_gcc.h ****   #define __UNALIGNED_UINT16_READ(addr)          (((const struct T_UINT16_READ *)(const void *)(add
  93:Drivers/CMSIS/Include/cmsis_gcc.h **** #endif
  94:Drivers/CMSIS/Include/cmsis_gcc.h **** #ifndef   __UNALIGNED_UINT32_WRITE
  95:Drivers/CMSIS/Include/cmsis_gcc.h ****   #pragma GCC diagnostic push
  96:Drivers/CMSIS/Include/cmsis_gcc.h ****   #pragma GCC diagnostic ignored "-Wpacked"
  97:Drivers/CMSIS/Include/cmsis_gcc.h ****   #pragma GCC diagnostic ignored "-Wattributes"
  98:Drivers/CMSIS/Include/cmsis_gcc.h ****   __PACKED_STRUCT T_UINT32_WRITE { uint32_t v; };
  99:Drivers/CMSIS/Include/cmsis_gcc.h ****   #pragma GCC diagnostic pop
 100:Drivers/CMSIS/Include/cmsis_gcc.h ****   #define __UNALIGNED_UINT32_WRITE(addr, val)    (void)((((struct T_UINT32_WRITE *)(void *)(addr))-
 101:Drivers/CMSIS/Include/cmsis_gcc.h **** #endif
 102:Drivers/CMSIS/Include/cmsis_gcc.h **** #ifndef   __UNALIGNED_UINT32_READ
 103:Drivers/CMSIS/Include/cmsis_gcc.h ****   #pragma GCC diagnostic push
 104:Drivers/CMSIS/Include/cmsis_gcc.h ****   #pragma GCC diagnostic ignored "-Wpacked"
 105:Drivers/CMSIS/Include/cmsis_gcc.h ****   #pragma GCC diagnostic ignored "-Wattributes"
 106:Drivers/CMSIS/Include/cmsis_gcc.h ****   __PACKED_STRUCT T_UINT32_READ { uint32_t v; };
 107:Drivers/CMSIS/Include/cmsis_gcc.h ****   #pragma GCC diagnostic pop
 108:Drivers/CMSIS/Include/cmsis_gcc.h ****   #define __UNALIGNED_UINT32_READ(addr)          (((const struct T_UINT32_READ *)(const void *)(add
 109:Drivers/CMSIS/Include/cmsis_gcc.h **** #endif
 110:Drivers/CMSIS/Include/cmsis_gcc.h **** #ifndef   __ALIGNED
 111:Drivers/CMSIS/Include/cmsis_gcc.h ****   #define __ALIGNED(x)                           __attribute__((aligned(x)))
 112:Drivers/CMSIS/Include/cmsis_gcc.h **** #endif
 113:Drivers/CMSIS/Include/cmsis_gcc.h **** #ifndef   __RESTRICT
 114:Drivers/CMSIS/Include/cmsis_gcc.h ****   #define __RESTRICT                             __restrict
 115:Drivers/CMSIS/Include/cmsis_gcc.h **** #endif
 116:Drivers/CMSIS/Include/cmsis_gcc.h **** 
 117:Drivers/CMSIS/Include/cmsis_gcc.h **** 
 118:Drivers/CMSIS/Include/cmsis_gcc.h **** /* ###########################  Core Function Access  ########################### */
 119:Drivers/CMSIS/Include/cmsis_gcc.h **** /** \ingroup  CMSIS_Core_FunctionInterface
 120:Drivers/CMSIS/Include/cmsis_gcc.h ****     \defgroup CMSIS_Core_RegAccFunctions CMSIS Core Register Access Functions
 121:Drivers/CMSIS/Include/cmsis_gcc.h ****   @{
 122:Drivers/CMSIS/Include/cmsis_gcc.h ****  */
 123:Drivers/CMSIS/Include/cmsis_gcc.h **** 
 124:Drivers/CMSIS/Include/cmsis_gcc.h **** /**
 125:Drivers/CMSIS/Include/cmsis_gcc.h ****   \brief   Enable IRQ Interrupts
 126:Drivers/CMSIS/Include/cmsis_gcc.h ****   \details Enables IRQ interrupts by clearing the I-bit in the CPSR.
 127:Drivers/CMSIS/Include/cmsis_gcc.h ****            Can only be executed in Privileged modes.
 128:Drivers/CMSIS/Include/cmsis_gcc.h ****  */
 129:Drivers/CMSIS/Include/cmsis_gcc.h **** __STATIC_FORCEINLINE void __enable_irq(void)
 130:Drivers/CMSIS/Include/cmsis_gcc.h **** {
 131:Drivers/CMSIS/Include/cmsis_gcc.h ****   __ASM volatile ("cpsie i" : : : "memory");
 132:Drivers/CMSIS/Include/cmsis_gcc.h **** }
 133:Drivers/CMSIS/Include/cmsis_gcc.h **** 
 134:Drivers/CMSIS/Include/cmsis_gcc.h **** 
 135:Drivers/CMSIS/Include/cmsis_gcc.h **** /**
 136:Drivers/CMSIS/Include/cmsis_gcc.h ****   \brief   Disable IRQ Interrupts
 137:Drivers/CMSIS/Include/cmsis_gcc.h ****   \details Disables IRQ interrupts by setting the I-bit in the CPSR.
 138:Drivers/CMSIS/Include/cmsis_gcc.h ****            Can only be executed in Privileged modes.
 139:Drivers/CMSIS/Include/cmsis_gcc.h ****  */
 140:Drivers/CMSIS/Include/cmsis_gcc.h **** __STATIC_FORCEINLINE void __disable_irq(void)
 387              		.loc 2 140 27 view .LVU87
 388              	.LBB11:
 141:Drivers/CMSIS/Include/cmsis_gcc.h **** {
 142:Drivers/CMSIS/Include/cmsis_gcc.h ****   __ASM volatile ("cpsid i" : : : "memory");
ARM GAS  /tmp/ccDFtLCb.s 			page 15


 389              		.loc 2 142 3 view .LVU88
 390              		.syntax unified
 391              	@ 142 "Drivers/CMSIS/Include/cmsis_gcc.h" 1
 392 0000 72B6     		cpsid i
 393              	@ 0 "" 2
 394              		.thumb
 395              		.syntax unified
 396              	.L38:
 397              	.LBE11:
 398              	.LBE10:
 217:Core/Src/main.c ****   while (1)
 399              		.loc 1 217 3 discriminator 1 view .LVU89
 218:Core/Src/main.c ****   {
 219:Core/Src/main.c ****   }
 400              		.loc 1 219 3 discriminator 1 view .LVU90
 217:Core/Src/main.c ****   while (1)
 401              		.loc 1 217 9 discriminator 1 view .LVU91
 402 0002 FEE7     		b	.L38
 403              		.cfi_endproc
 404              	.LFE244:
 406              		.section	.text.SystemClock_Config,"ax",%progbits
 407              		.align	1
 408              		.global	SystemClock_Config
 409              		.syntax unified
 410              		.thumb
 411              		.thumb_func
 412              		.fpu fpv4-sp-d16
 414              	SystemClock_Config:
 415              	.LFB242:
 143:Core/Src/main.c ****   RCC_OscInitTypeDef RCC_OscInitStruct = {0};
 416              		.loc 1 143 1 view -0
 417              		.cfi_startproc
 418              		@ args = 0, pretend = 0, frame = 80
 419              		@ frame_needed = 0, uses_anonymous_args = 0
 420 0000 00B5     		push	{lr}
 421              	.LCFI8:
 422              		.cfi_def_cfa_offset 4
 423              		.cfi_offset 14, -4
 424 0002 95B0     		sub	sp, sp, #84
 425              	.LCFI9:
 426              		.cfi_def_cfa_offset 88
 144:Core/Src/main.c ****   RCC_ClkInitTypeDef RCC_ClkInitStruct = {0};
 427              		.loc 1 144 3 view .LVU93
 144:Core/Src/main.c ****   RCC_ClkInitTypeDef RCC_ClkInitStruct = {0};
 428              		.loc 1 144 22 is_stmt 0 view .LVU94
 429 0004 3022     		movs	r2, #48
 430 0006 0021     		movs	r1, #0
 431 0008 08A8     		add	r0, sp, #32
 432 000a FFF7FEFF 		bl	memset
 433              	.LVL26:
 145:Core/Src/main.c **** 
 434              		.loc 1 145 3 is_stmt 1 view .LVU95
 145:Core/Src/main.c **** 
 435              		.loc 1 145 22 is_stmt 0 view .LVU96
 436 000e 0023     		movs	r3, #0
 437 0010 0393     		str	r3, [sp, #12]
 438 0012 0493     		str	r3, [sp, #16]
ARM GAS  /tmp/ccDFtLCb.s 			page 16


 439 0014 0593     		str	r3, [sp, #20]
 440 0016 0693     		str	r3, [sp, #24]
 441 0018 0793     		str	r3, [sp, #28]
 149:Core/Src/main.c ****   __HAL_PWR_VOLTAGESCALING_CONFIG(PWR_REGULATOR_VOLTAGE_SCALE1);
 442              		.loc 1 149 3 is_stmt 1 view .LVU97
 443              	.LBB12:
 149:Core/Src/main.c ****   __HAL_PWR_VOLTAGESCALING_CONFIG(PWR_REGULATOR_VOLTAGE_SCALE1);
 444              		.loc 1 149 3 view .LVU98
 445 001a 0193     		str	r3, [sp, #4]
 149:Core/Src/main.c ****   __HAL_PWR_VOLTAGESCALING_CONFIG(PWR_REGULATOR_VOLTAGE_SCALE1);
 446              		.loc 1 149 3 view .LVU99
 447 001c 214A     		ldr	r2, .L45
 448 001e 116C     		ldr	r1, [r2, #64]
 449 0020 41F08051 		orr	r1, r1, #268435456
 450 0024 1164     		str	r1, [r2, #64]
 149:Core/Src/main.c ****   __HAL_PWR_VOLTAGESCALING_CONFIG(PWR_REGULATOR_VOLTAGE_SCALE1);
 451              		.loc 1 149 3 view .LVU100
 452 0026 126C     		ldr	r2, [r2, #64]
 453 0028 02F08052 		and	r2, r2, #268435456
 454 002c 0192     		str	r2, [sp, #4]
 149:Core/Src/main.c ****   __HAL_PWR_VOLTAGESCALING_CONFIG(PWR_REGULATOR_VOLTAGE_SCALE1);
 455              		.loc 1 149 3 view .LVU101
 456 002e 019A     		ldr	r2, [sp, #4]
 457              	.LBE12:
 149:Core/Src/main.c ****   __HAL_PWR_VOLTAGESCALING_CONFIG(PWR_REGULATOR_VOLTAGE_SCALE1);
 458              		.loc 1 149 3 view .LVU102
 150:Core/Src/main.c **** 
 459              		.loc 1 150 3 view .LVU103
 460              	.LBB13:
 150:Core/Src/main.c **** 
 461              		.loc 1 150 3 view .LVU104
 462 0030 0293     		str	r3, [sp, #8]
 150:Core/Src/main.c **** 
 463              		.loc 1 150 3 view .LVU105
 464 0032 1D4B     		ldr	r3, .L45+4
 465 0034 1A68     		ldr	r2, [r3]
 466 0036 42F48042 		orr	r2, r2, #16384
 467 003a 1A60     		str	r2, [r3]
 150:Core/Src/main.c **** 
 468              		.loc 1 150 3 view .LVU106
 469 003c 1B68     		ldr	r3, [r3]
 470 003e 03F48043 		and	r3, r3, #16384
 471 0042 0293     		str	r3, [sp, #8]
 150:Core/Src/main.c **** 
 472              		.loc 1 150 3 view .LVU107
 473 0044 029B     		ldr	r3, [sp, #8]
 474              	.LBE13:
 150:Core/Src/main.c **** 
 475              		.loc 1 150 3 view .LVU108
 155:Core/Src/main.c ****   RCC_OscInitStruct.HSEState = RCC_HSE_ON;
 476              		.loc 1 155 3 view .LVU109
 155:Core/Src/main.c ****   RCC_OscInitStruct.HSEState = RCC_HSE_ON;
 477              		.loc 1 155 36 is_stmt 0 view .LVU110
 478 0046 0123     		movs	r3, #1
 479 0048 0893     		str	r3, [sp, #32]
 156:Core/Src/main.c ****   RCC_OscInitStruct.PLL.PLLState = RCC_PLL_ON;
 480              		.loc 1 156 3 is_stmt 1 view .LVU111
ARM GAS  /tmp/ccDFtLCb.s 			page 17


 156:Core/Src/main.c ****   RCC_OscInitStruct.PLL.PLLState = RCC_PLL_ON;
 481              		.loc 1 156 30 is_stmt 0 view .LVU112
 482 004a 4FF48033 		mov	r3, #65536
 483 004e 0993     		str	r3, [sp, #36]
 157:Core/Src/main.c ****   RCC_OscInitStruct.PLL.PLLSource = RCC_PLLSOURCE_HSE;
 484              		.loc 1 157 3 is_stmt 1 view .LVU113
 157:Core/Src/main.c ****   RCC_OscInitStruct.PLL.PLLSource = RCC_PLLSOURCE_HSE;
 485              		.loc 1 157 34 is_stmt 0 view .LVU114
 486 0050 0223     		movs	r3, #2
 487 0052 0E93     		str	r3, [sp, #56]
 158:Core/Src/main.c ****   RCC_OscInitStruct.PLL.PLLM = 8;
 488              		.loc 1 158 3 is_stmt 1 view .LVU115
 158:Core/Src/main.c ****   RCC_OscInitStruct.PLL.PLLM = 8;
 489              		.loc 1 158 35 is_stmt 0 view .LVU116
 490 0054 4FF48002 		mov	r2, #4194304
 491 0058 0F92     		str	r2, [sp, #60]
 159:Core/Src/main.c ****   RCC_OscInitStruct.PLL.PLLN = 336;
 492              		.loc 1 159 3 is_stmt 1 view .LVU117
 159:Core/Src/main.c ****   RCC_OscInitStruct.PLL.PLLN = 336;
 493              		.loc 1 159 30 is_stmt 0 view .LVU118
 494 005a 0822     		movs	r2, #8
 495 005c 1092     		str	r2, [sp, #64]
 160:Core/Src/main.c ****   RCC_OscInitStruct.PLL.PLLP = RCC_PLLP_DIV2;
 496              		.loc 1 160 3 is_stmt 1 view .LVU119
 160:Core/Src/main.c ****   RCC_OscInitStruct.PLL.PLLP = RCC_PLLP_DIV2;
 497              		.loc 1 160 30 is_stmt 0 view .LVU120
 498 005e 4FF4A872 		mov	r2, #336
 499 0062 1192     		str	r2, [sp, #68]
 161:Core/Src/main.c ****   RCC_OscInitStruct.PLL.PLLQ = 7;
 500              		.loc 1 161 3 is_stmt 1 view .LVU121
 161:Core/Src/main.c ****   RCC_OscInitStruct.PLL.PLLQ = 7;
 501              		.loc 1 161 30 is_stmt 0 view .LVU122
 502 0064 1293     		str	r3, [sp, #72]
 162:Core/Src/main.c ****   if (HAL_RCC_OscConfig(&RCC_OscInitStruct) != HAL_OK)
 503              		.loc 1 162 3 is_stmt 1 view .LVU123
 162:Core/Src/main.c ****   if (HAL_RCC_OscConfig(&RCC_OscInitStruct) != HAL_OK)
 504              		.loc 1 162 30 is_stmt 0 view .LVU124
 505 0066 0723     		movs	r3, #7
 506 0068 1393     		str	r3, [sp, #76]
 163:Core/Src/main.c ****   {
 507              		.loc 1 163 3 is_stmt 1 view .LVU125
 163:Core/Src/main.c ****   {
 508              		.loc 1 163 7 is_stmt 0 view .LVU126
 509 006a 08A8     		add	r0, sp, #32
 510 006c FFF7FEFF 		bl	HAL_RCC_OscConfig
 511              	.LVL27:
 163:Core/Src/main.c ****   {
 512              		.loc 1 163 6 view .LVU127
 513 0070 98B9     		cbnz	r0, .L43
 170:Core/Src/main.c ****                               |RCC_CLOCKTYPE_PCLK1|RCC_CLOCKTYPE_PCLK2;
 514              		.loc 1 170 3 is_stmt 1 view .LVU128
 170:Core/Src/main.c ****                               |RCC_CLOCKTYPE_PCLK1|RCC_CLOCKTYPE_PCLK2;
 515              		.loc 1 170 31 is_stmt 0 view .LVU129
 516 0072 0F23     		movs	r3, #15
 517 0074 0393     		str	r3, [sp, #12]
 172:Core/Src/main.c ****   RCC_ClkInitStruct.AHBCLKDivider = RCC_SYSCLK_DIV1;
 518              		.loc 1 172 3 is_stmt 1 view .LVU130
ARM GAS  /tmp/ccDFtLCb.s 			page 18


 172:Core/Src/main.c ****   RCC_ClkInitStruct.AHBCLKDivider = RCC_SYSCLK_DIV1;
 519              		.loc 1 172 34 is_stmt 0 view .LVU131
 520 0076 0223     		movs	r3, #2
 521 0078 0493     		str	r3, [sp, #16]
 173:Core/Src/main.c ****   RCC_ClkInitStruct.APB1CLKDivider = RCC_HCLK_DIV4;
 522              		.loc 1 173 3 is_stmt 1 view .LVU132
 173:Core/Src/main.c ****   RCC_ClkInitStruct.APB1CLKDivider = RCC_HCLK_DIV4;
 523              		.loc 1 173 35 is_stmt 0 view .LVU133
 524 007a 0023     		movs	r3, #0
 525 007c 0593     		str	r3, [sp, #20]
 174:Core/Src/main.c ****   RCC_ClkInitStruct.APB2CLKDivider = RCC_HCLK_DIV2;
 526              		.loc 1 174 3 is_stmt 1 view .LVU134
 174:Core/Src/main.c ****   RCC_ClkInitStruct.APB2CLKDivider = RCC_HCLK_DIV2;
 527              		.loc 1 174 36 is_stmt 0 view .LVU135
 528 007e 4FF4A053 		mov	r3, #5120
 529 0082 0693     		str	r3, [sp, #24]
 175:Core/Src/main.c **** 
 530              		.loc 1 175 3 is_stmt 1 view .LVU136
 175:Core/Src/main.c **** 
 531              		.loc 1 175 36 is_stmt 0 view .LVU137
 532 0084 4FF48053 		mov	r3, #4096
 533 0088 0793     		str	r3, [sp, #28]
 177:Core/Src/main.c ****   {
 534              		.loc 1 177 3 is_stmt 1 view .LVU138
 177:Core/Src/main.c ****   {
 535              		.loc 1 177 7 is_stmt 0 view .LVU139
 536 008a 0521     		movs	r1, #5
 537 008c 03A8     		add	r0, sp, #12
 538 008e FFF7FEFF 		bl	HAL_RCC_ClockConfig
 539              	.LVL28:
 177:Core/Src/main.c ****   {
 540              		.loc 1 177 6 view .LVU140
 541 0092 20B9     		cbnz	r0, .L44
 181:Core/Src/main.c **** 
 542              		.loc 1 181 1 view .LVU141
 543 0094 15B0     		add	sp, sp, #84
 544              	.LCFI10:
 545              		.cfi_remember_state
 546              		.cfi_def_cfa_offset 4
 547              		@ sp needed
 548 0096 5DF804FB 		ldr	pc, [sp], #4
 549              	.L43:
 550              	.LCFI11:
 551              		.cfi_restore_state
 165:Core/Src/main.c ****   }
 552              		.loc 1 165 5 is_stmt 1 view .LVU142
 553 009a FFF7FEFF 		bl	Error_Handler
 554              	.LVL29:
 555              	.L44:
 179:Core/Src/main.c ****   }
 556              		.loc 1 179 5 view .LVU143
 557 009e FFF7FEFF 		bl	Error_Handler
 558              	.LVL30:
 559              	.L46:
 560 00a2 00BF     		.align	2
 561              	.L45:
 562 00a4 00380240 		.word	1073887232
ARM GAS  /tmp/ccDFtLCb.s 			page 19


 563 00a8 00700040 		.word	1073770496
 564              		.cfi_endproc
 565              	.LFE242:
 567              		.section	.text.main,"ax",%progbits
 568              		.align	1
 569              		.global	main
 570              		.syntax unified
 571              		.thumb
 572              		.thumb_func
 573              		.fpu fpv4-sp-d16
 575              	main:
 576              	.LFB241:
  92:Core/Src/main.c ****   HAL_Init();
 577              		.loc 1 92 1 view -0
 578              		.cfi_startproc
 579              		@ args = 0, pretend = 0, frame = 48
 580              		@ frame_needed = 0, uses_anonymous_args = 0
 581 0000 30B5     		push	{r4, r5, lr}
 582              	.LCFI12:
 583              		.cfi_def_cfa_offset 12
 584              		.cfi_offset 4, -12
 585              		.cfi_offset 5, -8
 586              		.cfi_offset 14, -4
 587 0002 8DB0     		sub	sp, sp, #52
 588              	.LCFI13:
 589              		.cfi_def_cfa_offset 64
  93:Core/Src/main.c ****   SystemClock_Config();
 590              		.loc 1 93 3 view .LVU145
 591 0004 FFF7FEFF 		bl	HAL_Init
 592              	.LVL31:
  94:Core/Src/main.c ****   MX_GPIO_Init();
 593              		.loc 1 94 3 view .LVU146
 594 0008 FFF7FEFF 		bl	SystemClock_Config
 595              	.LVL32:
  95:Core/Src/main.c ****   MX_DMA_Init();
 596              		.loc 1 95 3 view .LVU147
 597 000c FFF7FEFF 		bl	MX_GPIO_Init
 598              	.LVL33:
  96:Core/Src/main.c ****   MX_I2C1_Init();
 599              		.loc 1 96 3 view .LVU148
 600 0010 FFF7FEFF 		bl	MX_DMA_Init
 601              	.LVL34:
  97:Core/Src/main.c ****   MX_USART2_UART_Init();
 602              		.loc 1 97 3 view .LVU149
 603 0014 FFF7FEFF 		bl	MX_I2C1_Init
 604              	.LVL35:
  98:Core/Src/main.c ****   MX_I2C3_Init();
 605              		.loc 1 98 3 view .LVU150
 606 0018 FFF7FEFF 		bl	MX_USART2_UART_Init
 607              	.LVL36:
  99:Core/Src/main.c ****   MX_USART1_UART_Init();
 608              		.loc 1 99 3 view .LVU151
 609 001c FFF7FEFF 		bl	MX_I2C3_Init
 610              	.LVL37:
 100:Core/Src/main.c ****   MX_USART6_UART_Init();
 611              		.loc 1 100 3 view .LVU152
 612 0020 FFF7FEFF 		bl	MX_USART1_UART_Init
ARM GAS  /tmp/ccDFtLCb.s 			page 20


 613              	.LVL38:
 101:Core/Src/main.c ****   MX_ADC1_Init();
 614              		.loc 1 101 3 view .LVU153
 615 0024 FFF7FEFF 		bl	MX_USART6_UART_Init
 616              	.LVL39:
 102:Core/Src/main.c **** 
 617              		.loc 1 102 3 view .LVU154
 618 0028 FFF7FEFF 		bl	MX_ADC1_Init
 619              	.LVL40:
 107:Core/Src/main.c ****   float transmit_data1[6];
 620              		.loc 1 107 3 view .LVU155
 621 002c 2022     		movs	r2, #32
 622 002e 2149     		ldr	r1, .L54
 623 0030 2148     		ldr	r0, .L54+4
 624 0032 FFF7FEFF 		bl	HAL_UART_Receive_DMA
 625              	.LVL41:
 108:Core/Src/main.c ****   for (uint8_t i=0; i<6; i++) {transmit_data1[i] = joint_ang[i];}
 626              		.loc 1 108 3 view .LVU156
 109:Core/Src/main.c ****   tx1_buf = (uint8_t*)transmit_data1;
 627              		.loc 1 109 3 view .LVU157
 628              	.LBB14:
 109:Core/Src/main.c ****   tx1_buf = (uint8_t*)transmit_data1;
 629              		.loc 1 109 8 view .LVU158
 109:Core/Src/main.c ****   tx1_buf = (uint8_t*)transmit_data1;
 630              		.loc 1 109 16 is_stmt 0 view .LVU159
 631 0036 0023     		movs	r3, #0
 109:Core/Src/main.c ****   tx1_buf = (uint8_t*)transmit_data1;
 632              		.loc 1 109 3 view .LVU160
 633 0038 0AE0     		b	.L48
 634              	.LVL42:
 635              	.L49:
 109:Core/Src/main.c ****   tx1_buf = (uint8_t*)transmit_data1;
 636              		.loc 1 109 32 is_stmt 1 discriminator 3 view .LVU161
 109:Core/Src/main.c ****   tx1_buf = (uint8_t*)transmit_data1;
 637              		.loc 1 109 61 is_stmt 0 discriminator 3 view .LVU162
 638 003a 204A     		ldr	r2, .L54+8
 639 003c 02EB8302 		add	r2, r2, r3, lsl #2
 640 0040 1168     		ldr	r1, [r2]	@ float
 109:Core/Src/main.c ****   tx1_buf = (uint8_t*)transmit_data1;
 641              		.loc 1 109 50 discriminator 3 view .LVU163
 642 0042 0CAA     		add	r2, sp, #48
 643 0044 02EB8302 		add	r2, r2, r3, lsl #2
 644 0048 42F8181C 		str	r1, [r2, #-24]	@ float
 109:Core/Src/main.c ****   tx1_buf = (uint8_t*)transmit_data1;
 645              		.loc 1 109 26 is_stmt 1 discriminator 3 view .LVU164
 109:Core/Src/main.c ****   tx1_buf = (uint8_t*)transmit_data1;
 646              		.loc 1 109 27 is_stmt 0 discriminator 3 view .LVU165
 647 004c 0133     		adds	r3, r3, #1
 648              	.LVL43:
 109:Core/Src/main.c ****   tx1_buf = (uint8_t*)transmit_data1;
 649              		.loc 1 109 27 discriminator 3 view .LVU166
 650 004e DBB2     		uxtb	r3, r3
 651              	.LVL44:
 652              	.L48:
 109:Core/Src/main.c ****   tx1_buf = (uint8_t*)transmit_data1;
 653              		.loc 1 109 21 is_stmt 1 discriminator 1 view .LVU167
 109:Core/Src/main.c ****   tx1_buf = (uint8_t*)transmit_data1;
ARM GAS  /tmp/ccDFtLCb.s 			page 21


 654              		.loc 1 109 3 is_stmt 0 discriminator 1 view .LVU168
 655 0050 052B     		cmp	r3, #5
 656 0052 F2D9     		bls	.L49
 657              	.LBE14:
 110:Core/Src/main.c ****   HAL_UART_Transmit_DMA(&huart1, tx1_buf, TX1_BUF_SIZE);
 658              		.loc 1 110 3 is_stmt 1 view .LVU169
 110:Core/Src/main.c ****   HAL_UART_Transmit_DMA(&huart1, tx1_buf, TX1_BUF_SIZE);
 659              		.loc 1 110 11 is_stmt 0 view .LVU170
 660 0054 06A9     		add	r1, sp, #24
 661 0056 1A4B     		ldr	r3, .L54+12
 662              	.LVL45:
 110:Core/Src/main.c ****   HAL_UART_Transmit_DMA(&huart1, tx1_buf, TX1_BUF_SIZE);
 663              		.loc 1 110 11 view .LVU171
 664 0058 1960     		str	r1, [r3]
 111:Core/Src/main.c **** 
 665              		.loc 1 111 3 is_stmt 1 view .LVU172
 666 005a 1822     		movs	r2, #24
 667 005c 1648     		ldr	r0, .L54+4
 668 005e FFF7FEFF 		bl	HAL_UART_Transmit_DMA
 669              	.LVL46:
 114:Core/Src/main.c ****   for (uint8_t i=0; i<6; i++) {transmit_data2[i] = joint_ang[i+6];}
 670              		.loc 1 114 3 view .LVU173
 115:Core/Src/main.c ****   tx6_buf = (uint8_t*)transmit_data2;
 671              		.loc 1 115 3 view .LVU174
 672              	.LBB15:
 115:Core/Src/main.c ****   tx6_buf = (uint8_t*)transmit_data2;
 673              		.loc 1 115 8 view .LVU175
 115:Core/Src/main.c ****   tx6_buf = (uint8_t*)transmit_data2;
 674              		.loc 1 115 16 is_stmt 0 view .LVU176
 675 0062 0023     		movs	r3, #0
 115:Core/Src/main.c ****   tx6_buf = (uint8_t*)transmit_data2;
 676              		.loc 1 115 3 view .LVU177
 677 0064 0BE0     		b	.L50
 678              	.LVL47:
 679              	.L51:
 115:Core/Src/main.c ****   tx6_buf = (uint8_t*)transmit_data2;
 680              		.loc 1 115 32 is_stmt 1 discriminator 3 view .LVU178
 115:Core/Src/main.c ****   tx6_buf = (uint8_t*)transmit_data2;
 681              		.loc 1 115 63 is_stmt 0 discriminator 3 view .LVU179
 682 0066 991D     		adds	r1, r3, #6
 115:Core/Src/main.c ****   tx6_buf = (uint8_t*)transmit_data2;
 683              		.loc 1 115 61 discriminator 3 view .LVU180
 684 0068 144A     		ldr	r2, .L54+8
 685 006a 02EB8102 		add	r2, r2, r1, lsl #2
 686 006e 1168     		ldr	r1, [r2]	@ float
 115:Core/Src/main.c ****   tx6_buf = (uint8_t*)transmit_data2;
 687              		.loc 1 115 50 discriminator 3 view .LVU181
 688 0070 0CAA     		add	r2, sp, #48
 689 0072 02EB8302 		add	r2, r2, r3, lsl #2
 690 0076 42F8301C 		str	r1, [r2, #-48]	@ float
 115:Core/Src/main.c ****   tx6_buf = (uint8_t*)transmit_data2;
 691              		.loc 1 115 26 is_stmt 1 discriminator 3 view .LVU182
 115:Core/Src/main.c ****   tx6_buf = (uint8_t*)transmit_data2;
 692              		.loc 1 115 27 is_stmt 0 discriminator 3 view .LVU183
 693 007a 0133     		adds	r3, r3, #1
 694              	.LVL48:
 115:Core/Src/main.c ****   tx6_buf = (uint8_t*)transmit_data2;
ARM GAS  /tmp/ccDFtLCb.s 			page 22


 695              		.loc 1 115 27 discriminator 3 view .LVU184
 696 007c DBB2     		uxtb	r3, r3
 697              	.LVL49:
 698              	.L50:
 115:Core/Src/main.c ****   tx6_buf = (uint8_t*)transmit_data2;
 699              		.loc 1 115 21 is_stmt 1 discriminator 1 view .LVU185
 115:Core/Src/main.c ****   tx6_buf = (uint8_t*)transmit_data2;
 700              		.loc 1 115 3 is_stmt 0 discriminator 1 view .LVU186
 701 007e 052B     		cmp	r3, #5
 702 0080 F1D9     		bls	.L51
 703              	.LBE15:
 116:Core/Src/main.c ****   HAL_UART_Receive_DMA(&huart6, rx6_buf, RX6_BUF_SIZE);
 704              		.loc 1 116 3 is_stmt 1 view .LVU187
 116:Core/Src/main.c ****   HAL_UART_Receive_DMA(&huart6, rx6_buf, RX6_BUF_SIZE);
 705              		.loc 1 116 11 is_stmt 0 view .LVU188
 706 0082 104D     		ldr	r5, .L54+16
 707 0084 C5F800D0 		str	sp, [r5]
 117:Core/Src/main.c ****   HAL_UART_Transmit_DMA(&huart6, tx6_buf, RX6_BUF_SIZE);
 708              		.loc 1 117 3 is_stmt 1 view .LVU189
 709 0088 0F4C     		ldr	r4, .L54+20
 710 008a 2022     		movs	r2, #32
 711 008c 0F49     		ldr	r1, .L54+24
 712 008e 2046     		mov	r0, r4
 713 0090 FFF7FEFF 		bl	HAL_UART_Receive_DMA
 714              	.LVL50:
 118:Core/Src/main.c **** 
 715              		.loc 1 118 3 view .LVU190
 716 0094 2022     		movs	r2, #32
 717 0096 2968     		ldr	r1, [r5]
 718 0098 2046     		mov	r0, r4
 719 009a FFF7FEFF 		bl	HAL_UART_Transmit_DMA
 720              	.LVL51:
 122:Core/Src/main.c ****   MX_FREERTOS_Init();
 721              		.loc 1 122 3 view .LVU191
 722 009e FFF7FEFF 		bl	osKernelInitialize
 723              	.LVL52:
 123:Core/Src/main.c ****   /* Start scheduler */
 724              		.loc 1 123 3 view .LVU192
 725 00a2 FFF7FEFF 		bl	MX_FREERTOS_Init
 726              	.LVL53:
 125:Core/Src/main.c ****   /* We should never get here as control is now taken by the scheduler */
 727              		.loc 1 125 3 view .LVU193
 728 00a6 FFF7FEFF 		bl	osKernelStart
 729              	.LVL54:
 730              	.L52:
 129:Core/Src/main.c ****   {
 731              		.loc 1 129 3 discriminator 1 view .LVU194
 732              	.LBB16:
 132:Core/Src/main.c ****     /* USER CODE BEGIN 3 */
 733              		.loc 1 132 5 discriminator 1 view .LVU195
 132:Core/Src/main.c ****     /* USER CODE BEGIN 3 */
 734              		.loc 1 132 13 is_stmt 0 discriminator 1 view .LVU196
 735 00aa 0948     		ldr	r0, .L54+28
 736 00ac FFF7FEFF 		bl	HAL_ADC_GetValue
 737              	.LVL55:
 738              	.LBE16:
 129:Core/Src/main.c ****   {
ARM GAS  /tmp/ccDFtLCb.s 			page 23


 739              		.loc 1 129 9 is_stmt 1 discriminator 1 view .LVU197
 740 00b0 FBE7     		b	.L52
 741              	.L55:
 742 00b2 00BF     		.align	2
 743              	.L54:
 744 00b4 00000000 		.word	rx1_buf
 745 00b8 00000000 		.word	huart1
 746 00bc 00000000 		.word	joint_ang
 747 00c0 00000000 		.word	tx1_buf
 748 00c4 00000000 		.word	tx6_buf
 749 00c8 00000000 		.word	huart6
 750 00cc 00000000 		.word	rx6_buf
 751 00d0 00000000 		.word	hadc1
 752              		.cfi_endproc
 753              	.LFE241:
 755              		.comm	current_sense,48,4
 756              		.comm	joint_ang_feedback,64,4
 757              		.comm	servo_ang,48,4
 758              		.comm	joint_ang,48,4
 759              		.comm	tx6_buf,4,4
 760              		.comm	rx6_buf,32,4
 761              		.comm	tx1_buf,4,4
 762              		.comm	rx1_buf,32,4
 763              		.comm	uart6_ready,1,4
 764              		.comm	uart1_ready,1,4
 765              		.text
 766              	.Letext0:
 767              		.file 3 "/usr/lib/gcc/arm-none-eabi/9.2.1/include/stdint.h"
 768              		.file 4 "Drivers/CMSIS/Include/core_cm4.h"
 769              		.file 5 "Drivers/CMSIS/Device/ST/STM32F4xx/Include/system_stm32f4xx.h"
 770              		.file 6 "Drivers/CMSIS/Device/ST/STM32F4xx/Include/stm32f407xx.h"
 771              		.file 7 "Drivers/CMSIS/Device/ST/STM32F4xx/Include/stm32f4xx.h"
 772              		.file 8 "Drivers/STM32F4xx_HAL_Driver/Inc/stm32f4xx_hal_def.h"
 773              		.file 9 "Drivers/STM32F4xx_HAL_Driver/Inc/stm32f4xx_hal_rcc_ex.h"
 774              		.file 10 "Drivers/STM32F4xx_HAL_Driver/Inc/stm32f4xx_hal_rcc.h"
 775              		.file 11 "Drivers/STM32F4xx_HAL_Driver/Inc/stm32f4xx_hal_dma.h"
 776              		.file 12 "Drivers/STM32F4xx_HAL_Driver/Inc/stm32f4xx_hal_adc.h"
 777              		.file 13 "Drivers/STM32F4xx_HAL_Driver/Inc/stm32f4xx_hal_i2c.h"
 778              		.file 14 "Drivers/STM32F4xx_HAL_Driver/Inc/stm32f4xx_hal_tim.h"
 779              		.file 15 "Drivers/STM32F4xx_HAL_Driver/Inc/stm32f4xx_hal_uart.h"
 780              		.file 16 "Drivers/STM32F4xx_HAL_Driver/Inc/stm32f4xx_hal.h"
 781              		.file 17 "Core/Inc/adc.h"
 782              		.file 18 "Core/Inc/i2c.h"
 783              		.file 19 "Core/Inc/usart.h"
 784              		.file 20 "App/variables.h"
 785              		.file 21 "/usr/lib/gcc/arm-none-eabi/9.2.1/include/stddef.h"
 786              		.file 22 "/usr/include/newlib/sys/_types.h"
 787              		.file 23 "/usr/include/newlib/sys/reent.h"
 788              		.file 24 "/usr/include/newlib/sys/lock.h"
 789              		.file 25 "Core/Inc/gpio.h"
 790              		.file 26 "Core/Inc/dma.h"
 791              		.file 27 "Middlewares/Third_Party/FreeRTOS/Source/CMSIS_RTOS_V2/cmsis_os2.h"
 792              		.file 28 "<built-in>"
ARM GAS  /tmp/ccDFtLCb.s 			page 24

