ARM GAS  /tmp/ccKRVJ90.s 			page 1


   1              		.cpu cortex-m4
   2              		.eabi_attribute 27, 1
   3              		.eabi_attribute 28, 1
   4              		.eabi_attribute 20, 1
   5              		.eabi_attribute 21, 1
   6              		.eabi_attribute 23, 3
   7              		.eabi_attribute 24, 1
   8              		.eabi_attribute 25, 1
   9              		.eabi_attribute 26, 1
  10              		.eabi_attribute 30, 1
  11              		.eabi_attribute 34, 1
  12              		.eabi_attribute 18, 4
  13              		.file	"usbh_core.c"
  14              		.text
  15              	.Ltext0:
  16              		.cfi_sections	.debug_frame
  17              		.section	.text.DeInitStateMachine,"ax",%progbits
  18              		.align	1
  19              		.arch armv7e-m
  20              		.syntax unified
  21              		.thumb
  22              		.thumb_func
  23              		.fpu fpv4-sp-d16
  25              	DeInitStateMachine:
  26              	.LVL0:
  27              	.LFB244:
  28              		.file 1 "Middlewares/ST/STM32_USB_Host_Library/Core/Src/usbh_core.c"
   1:Middlewares/ST/STM32_USB_Host_Library/Core/Src/usbh_core.c **** /**
   2:Middlewares/ST/STM32_USB_Host_Library/Core/Src/usbh_core.c ****   ******************************************************************************
   3:Middlewares/ST/STM32_USB_Host_Library/Core/Src/usbh_core.c ****   * @file    usbh_core.c
   4:Middlewares/ST/STM32_USB_Host_Library/Core/Src/usbh_core.c ****   * @author  MCD Application Team
   5:Middlewares/ST/STM32_USB_Host_Library/Core/Src/usbh_core.c ****   * @brief   This file implements the functions for the core state machine process
   6:Middlewares/ST/STM32_USB_Host_Library/Core/Src/usbh_core.c ****   *          the enumeration and the control transfer process
   7:Middlewares/ST/STM32_USB_Host_Library/Core/Src/usbh_core.c ****   ******************************************************************************
   8:Middlewares/ST/STM32_USB_Host_Library/Core/Src/usbh_core.c ****   * @attention
   9:Middlewares/ST/STM32_USB_Host_Library/Core/Src/usbh_core.c ****   *
  10:Middlewares/ST/STM32_USB_Host_Library/Core/Src/usbh_core.c ****   * <h2><center>&copy; Copyright (c) 2015 STMicroelectronics.
  11:Middlewares/ST/STM32_USB_Host_Library/Core/Src/usbh_core.c ****   * All rights reserved.</center></h2>
  12:Middlewares/ST/STM32_USB_Host_Library/Core/Src/usbh_core.c ****   *
  13:Middlewares/ST/STM32_USB_Host_Library/Core/Src/usbh_core.c ****   * This software component is licensed by ST under Ultimate Liberty license
  14:Middlewares/ST/STM32_USB_Host_Library/Core/Src/usbh_core.c ****   * SLA0044, the "License"; You may not use this file except in compliance with
  15:Middlewares/ST/STM32_USB_Host_Library/Core/Src/usbh_core.c ****   * the License. You may obtain a copy of the License at:
  16:Middlewares/ST/STM32_USB_Host_Library/Core/Src/usbh_core.c ****   *                      www.st.com/SLA0044
  17:Middlewares/ST/STM32_USB_Host_Library/Core/Src/usbh_core.c ****   *
  18:Middlewares/ST/STM32_USB_Host_Library/Core/Src/usbh_core.c ****   ******************************************************************************
  19:Middlewares/ST/STM32_USB_Host_Library/Core/Src/usbh_core.c ****   */
  20:Middlewares/ST/STM32_USB_Host_Library/Core/Src/usbh_core.c **** 
  21:Middlewares/ST/STM32_USB_Host_Library/Core/Src/usbh_core.c **** /* Includes ------------------------------------------------------------------*/
  22:Middlewares/ST/STM32_USB_Host_Library/Core/Src/usbh_core.c **** #include "usbh_core.h"
  23:Middlewares/ST/STM32_USB_Host_Library/Core/Src/usbh_core.c **** 
  24:Middlewares/ST/STM32_USB_Host_Library/Core/Src/usbh_core.c **** 
  25:Middlewares/ST/STM32_USB_Host_Library/Core/Src/usbh_core.c **** /** @addtogroup USBH_LIB
  26:Middlewares/ST/STM32_USB_Host_Library/Core/Src/usbh_core.c ****   * @{
  27:Middlewares/ST/STM32_USB_Host_Library/Core/Src/usbh_core.c ****   */
  28:Middlewares/ST/STM32_USB_Host_Library/Core/Src/usbh_core.c **** 
  29:Middlewares/ST/STM32_USB_Host_Library/Core/Src/usbh_core.c **** /** @addtogroup USBH_LIB_CORE
  30:Middlewares/ST/STM32_USB_Host_Library/Core/Src/usbh_core.c ****   * @{
ARM GAS  /tmp/ccKRVJ90.s 			page 2


  31:Middlewares/ST/STM32_USB_Host_Library/Core/Src/usbh_core.c ****   */
  32:Middlewares/ST/STM32_USB_Host_Library/Core/Src/usbh_core.c **** 
  33:Middlewares/ST/STM32_USB_Host_Library/Core/Src/usbh_core.c **** /** @defgroup USBH_CORE
  34:Middlewares/ST/STM32_USB_Host_Library/Core/Src/usbh_core.c ****   * @brief This file handles the basic enumeration when a device is connected
  35:Middlewares/ST/STM32_USB_Host_Library/Core/Src/usbh_core.c ****   *          to the host.
  36:Middlewares/ST/STM32_USB_Host_Library/Core/Src/usbh_core.c ****   * @{
  37:Middlewares/ST/STM32_USB_Host_Library/Core/Src/usbh_core.c ****   */
  38:Middlewares/ST/STM32_USB_Host_Library/Core/Src/usbh_core.c **** 
  39:Middlewares/ST/STM32_USB_Host_Library/Core/Src/usbh_core.c **** 
  40:Middlewares/ST/STM32_USB_Host_Library/Core/Src/usbh_core.c **** /** @defgroup USBH_CORE_Private_Defines
  41:Middlewares/ST/STM32_USB_Host_Library/Core/Src/usbh_core.c ****   * @{
  42:Middlewares/ST/STM32_USB_Host_Library/Core/Src/usbh_core.c ****   */
  43:Middlewares/ST/STM32_USB_Host_Library/Core/Src/usbh_core.c **** #define USBH_ADDRESS_DEFAULT                     0x00U
  44:Middlewares/ST/STM32_USB_Host_Library/Core/Src/usbh_core.c **** #define USBH_ADDRESS_ASSIGNED                    0x01U
  45:Middlewares/ST/STM32_USB_Host_Library/Core/Src/usbh_core.c **** #define USBH_MPS_DEFAULT                         0x40U
  46:Middlewares/ST/STM32_USB_Host_Library/Core/Src/usbh_core.c **** /**
  47:Middlewares/ST/STM32_USB_Host_Library/Core/Src/usbh_core.c ****   * @}
  48:Middlewares/ST/STM32_USB_Host_Library/Core/Src/usbh_core.c ****   */
  49:Middlewares/ST/STM32_USB_Host_Library/Core/Src/usbh_core.c **** 
  50:Middlewares/ST/STM32_USB_Host_Library/Core/Src/usbh_core.c **** /** @defgroup USBH_CORE_Private_Macros
  51:Middlewares/ST/STM32_USB_Host_Library/Core/Src/usbh_core.c ****   * @{
  52:Middlewares/ST/STM32_USB_Host_Library/Core/Src/usbh_core.c ****   */
  53:Middlewares/ST/STM32_USB_Host_Library/Core/Src/usbh_core.c **** /**
  54:Middlewares/ST/STM32_USB_Host_Library/Core/Src/usbh_core.c ****   * @}
  55:Middlewares/ST/STM32_USB_Host_Library/Core/Src/usbh_core.c ****   */
  56:Middlewares/ST/STM32_USB_Host_Library/Core/Src/usbh_core.c **** 
  57:Middlewares/ST/STM32_USB_Host_Library/Core/Src/usbh_core.c **** 
  58:Middlewares/ST/STM32_USB_Host_Library/Core/Src/usbh_core.c **** /** @defgroup USBH_CORE_Private_Variables
  59:Middlewares/ST/STM32_USB_Host_Library/Core/Src/usbh_core.c ****   * @{
  60:Middlewares/ST/STM32_USB_Host_Library/Core/Src/usbh_core.c ****   */
  61:Middlewares/ST/STM32_USB_Host_Library/Core/Src/usbh_core.c **** #if (USBH_USE_OS == 1U)
  62:Middlewares/ST/STM32_USB_Host_Library/Core/Src/usbh_core.c **** #if (osCMSIS >= 0x20000U)
  63:Middlewares/ST/STM32_USB_Host_Library/Core/Src/usbh_core.c **** osThreadAttr_t USBH_Thread_Atrr;
  64:Middlewares/ST/STM32_USB_Host_Library/Core/Src/usbh_core.c **** #endif
  65:Middlewares/ST/STM32_USB_Host_Library/Core/Src/usbh_core.c **** #endif
  66:Middlewares/ST/STM32_USB_Host_Library/Core/Src/usbh_core.c **** 
  67:Middlewares/ST/STM32_USB_Host_Library/Core/Src/usbh_core.c **** 
  68:Middlewares/ST/STM32_USB_Host_Library/Core/Src/usbh_core.c **** /**
  69:Middlewares/ST/STM32_USB_Host_Library/Core/Src/usbh_core.c ****   * @}
  70:Middlewares/ST/STM32_USB_Host_Library/Core/Src/usbh_core.c ****   */
  71:Middlewares/ST/STM32_USB_Host_Library/Core/Src/usbh_core.c **** 
  72:Middlewares/ST/STM32_USB_Host_Library/Core/Src/usbh_core.c **** 
  73:Middlewares/ST/STM32_USB_Host_Library/Core/Src/usbh_core.c **** /** @defgroup USBH_CORE_Private_Functions
  74:Middlewares/ST/STM32_USB_Host_Library/Core/Src/usbh_core.c ****   * @{
  75:Middlewares/ST/STM32_USB_Host_Library/Core/Src/usbh_core.c ****   */
  76:Middlewares/ST/STM32_USB_Host_Library/Core/Src/usbh_core.c **** static USBH_StatusTypeDef USBH_HandleEnum(USBH_HandleTypeDef *phost);
  77:Middlewares/ST/STM32_USB_Host_Library/Core/Src/usbh_core.c **** static void USBH_HandleSof(USBH_HandleTypeDef *phost);
  78:Middlewares/ST/STM32_USB_Host_Library/Core/Src/usbh_core.c **** static USBH_StatusTypeDef DeInitStateMachine(USBH_HandleTypeDef *phost);
  79:Middlewares/ST/STM32_USB_Host_Library/Core/Src/usbh_core.c **** 
  80:Middlewares/ST/STM32_USB_Host_Library/Core/Src/usbh_core.c **** #if (USBH_USE_OS == 1U)
  81:Middlewares/ST/STM32_USB_Host_Library/Core/Src/usbh_core.c **** #if (osCMSIS < 0x20000U)
  82:Middlewares/ST/STM32_USB_Host_Library/Core/Src/usbh_core.c **** static void USBH_Process_OS(void const *argument);
  83:Middlewares/ST/STM32_USB_Host_Library/Core/Src/usbh_core.c **** #else
  84:Middlewares/ST/STM32_USB_Host_Library/Core/Src/usbh_core.c **** static void USBH_Process_OS(void *argument);
  85:Middlewares/ST/STM32_USB_Host_Library/Core/Src/usbh_core.c **** #endif
  86:Middlewares/ST/STM32_USB_Host_Library/Core/Src/usbh_core.c **** #endif
  87:Middlewares/ST/STM32_USB_Host_Library/Core/Src/usbh_core.c **** 
ARM GAS  /tmp/ccKRVJ90.s 			page 3


  88:Middlewares/ST/STM32_USB_Host_Library/Core/Src/usbh_core.c **** 
  89:Middlewares/ST/STM32_USB_Host_Library/Core/Src/usbh_core.c **** /**
  90:Middlewares/ST/STM32_USB_Host_Library/Core/Src/usbh_core.c ****   * @brief  HCD_Init
  91:Middlewares/ST/STM32_USB_Host_Library/Core/Src/usbh_core.c ****   *         Initialize the HOST Core.
  92:Middlewares/ST/STM32_USB_Host_Library/Core/Src/usbh_core.c ****   * @param  phost: Host Handle
  93:Middlewares/ST/STM32_USB_Host_Library/Core/Src/usbh_core.c ****   * @param  pUsrFunc: User Callback
  94:Middlewares/ST/STM32_USB_Host_Library/Core/Src/usbh_core.c ****   * @retval USBH Status
  95:Middlewares/ST/STM32_USB_Host_Library/Core/Src/usbh_core.c ****   */
  96:Middlewares/ST/STM32_USB_Host_Library/Core/Src/usbh_core.c **** USBH_StatusTypeDef  USBH_Init(USBH_HandleTypeDef *phost,
  97:Middlewares/ST/STM32_USB_Host_Library/Core/Src/usbh_core.c ****                               void (*pUsrFunc)(USBH_HandleTypeDef *phost,
  98:Middlewares/ST/STM32_USB_Host_Library/Core/Src/usbh_core.c ****                                                uint8_t id), uint8_t id)
  99:Middlewares/ST/STM32_USB_Host_Library/Core/Src/usbh_core.c **** {
 100:Middlewares/ST/STM32_USB_Host_Library/Core/Src/usbh_core.c ****   /* Check whether the USB Host handle is valid */
 101:Middlewares/ST/STM32_USB_Host_Library/Core/Src/usbh_core.c ****   if (phost == NULL)
 102:Middlewares/ST/STM32_USB_Host_Library/Core/Src/usbh_core.c ****   {
 103:Middlewares/ST/STM32_USB_Host_Library/Core/Src/usbh_core.c ****     USBH_ErrLog("Invalid Host handle");
 104:Middlewares/ST/STM32_USB_Host_Library/Core/Src/usbh_core.c ****     return USBH_FAIL;
 105:Middlewares/ST/STM32_USB_Host_Library/Core/Src/usbh_core.c ****   }
 106:Middlewares/ST/STM32_USB_Host_Library/Core/Src/usbh_core.c **** 
 107:Middlewares/ST/STM32_USB_Host_Library/Core/Src/usbh_core.c ****   /* Set DRiver ID */
 108:Middlewares/ST/STM32_USB_Host_Library/Core/Src/usbh_core.c ****   phost->id = id;
 109:Middlewares/ST/STM32_USB_Host_Library/Core/Src/usbh_core.c **** 
 110:Middlewares/ST/STM32_USB_Host_Library/Core/Src/usbh_core.c ****   /* Unlink class*/
 111:Middlewares/ST/STM32_USB_Host_Library/Core/Src/usbh_core.c ****   phost->pActiveClass = NULL;
 112:Middlewares/ST/STM32_USB_Host_Library/Core/Src/usbh_core.c ****   phost->ClassNumber = 0U;
 113:Middlewares/ST/STM32_USB_Host_Library/Core/Src/usbh_core.c **** 
 114:Middlewares/ST/STM32_USB_Host_Library/Core/Src/usbh_core.c ****   /* Restore default states and prepare EP0 */
 115:Middlewares/ST/STM32_USB_Host_Library/Core/Src/usbh_core.c ****   (void)DeInitStateMachine(phost);
 116:Middlewares/ST/STM32_USB_Host_Library/Core/Src/usbh_core.c **** 
 117:Middlewares/ST/STM32_USB_Host_Library/Core/Src/usbh_core.c ****   /* Restore default Device connection states */
 118:Middlewares/ST/STM32_USB_Host_Library/Core/Src/usbh_core.c ****   phost->device.PortEnabled = 0U;
 119:Middlewares/ST/STM32_USB_Host_Library/Core/Src/usbh_core.c ****   phost->device.is_connected = 0U;
 120:Middlewares/ST/STM32_USB_Host_Library/Core/Src/usbh_core.c ****   phost->device.is_disconnected = 0U;
 121:Middlewares/ST/STM32_USB_Host_Library/Core/Src/usbh_core.c ****   phost->device.is_ReEnumerated = 0U;
 122:Middlewares/ST/STM32_USB_Host_Library/Core/Src/usbh_core.c **** 
 123:Middlewares/ST/STM32_USB_Host_Library/Core/Src/usbh_core.c ****   /* Assign User process */
 124:Middlewares/ST/STM32_USB_Host_Library/Core/Src/usbh_core.c ****   if (pUsrFunc != NULL)
 125:Middlewares/ST/STM32_USB_Host_Library/Core/Src/usbh_core.c ****   {
 126:Middlewares/ST/STM32_USB_Host_Library/Core/Src/usbh_core.c ****     phost->pUser = pUsrFunc;
 127:Middlewares/ST/STM32_USB_Host_Library/Core/Src/usbh_core.c ****   }
 128:Middlewares/ST/STM32_USB_Host_Library/Core/Src/usbh_core.c **** 
 129:Middlewares/ST/STM32_USB_Host_Library/Core/Src/usbh_core.c **** #if (USBH_USE_OS == 1U)
 130:Middlewares/ST/STM32_USB_Host_Library/Core/Src/usbh_core.c **** #if (osCMSIS < 0x20000U)
 131:Middlewares/ST/STM32_USB_Host_Library/Core/Src/usbh_core.c **** 
 132:Middlewares/ST/STM32_USB_Host_Library/Core/Src/usbh_core.c ****   /* Create USB Host Queue */
 133:Middlewares/ST/STM32_USB_Host_Library/Core/Src/usbh_core.c ****   osMessageQDef(USBH_Queue, MSGQUEUE_OBJECTS, uint16_t);
 134:Middlewares/ST/STM32_USB_Host_Library/Core/Src/usbh_core.c ****   phost->os_event = osMessageCreate(osMessageQ(USBH_Queue), NULL);
 135:Middlewares/ST/STM32_USB_Host_Library/Core/Src/usbh_core.c **** 
 136:Middlewares/ST/STM32_USB_Host_Library/Core/Src/usbh_core.c ****   /* Create USB Host Task */
 137:Middlewares/ST/STM32_USB_Host_Library/Core/Src/usbh_core.c **** #if defined (USBH_PROCESS_STACK_SIZE)
 138:Middlewares/ST/STM32_USB_Host_Library/Core/Src/usbh_core.c ****   osThreadDef(USBH_Thread, USBH_Process_OS, USBH_PROCESS_PRIO, 0U, USBH_PROCESS_STACK_SIZE);
 139:Middlewares/ST/STM32_USB_Host_Library/Core/Src/usbh_core.c **** #else
 140:Middlewares/ST/STM32_USB_Host_Library/Core/Src/usbh_core.c ****   osThreadDef(USBH_Thread, USBH_Process_OS, USBH_PROCESS_PRIO, 0U, 8U * configMINIMAL_STACK_SIZE);
 141:Middlewares/ST/STM32_USB_Host_Library/Core/Src/usbh_core.c **** #endif /* defined (USBH_PROCESS_STACK_SIZE) */
 142:Middlewares/ST/STM32_USB_Host_Library/Core/Src/usbh_core.c **** 
 143:Middlewares/ST/STM32_USB_Host_Library/Core/Src/usbh_core.c ****   phost->thread = osThreadCreate(osThread(USBH_Thread), phost);
 144:Middlewares/ST/STM32_USB_Host_Library/Core/Src/usbh_core.c **** 
ARM GAS  /tmp/ccKRVJ90.s 			page 4


 145:Middlewares/ST/STM32_USB_Host_Library/Core/Src/usbh_core.c **** #else
 146:Middlewares/ST/STM32_USB_Host_Library/Core/Src/usbh_core.c **** 
 147:Middlewares/ST/STM32_USB_Host_Library/Core/Src/usbh_core.c ****   /* Create USB Host Queue */
 148:Middlewares/ST/STM32_USB_Host_Library/Core/Src/usbh_core.c ****   phost->os_event = osMessageQueueNew(MSGQUEUE_OBJECTS, sizeof(uint32_t), NULL);
 149:Middlewares/ST/STM32_USB_Host_Library/Core/Src/usbh_core.c **** 
 150:Middlewares/ST/STM32_USB_Host_Library/Core/Src/usbh_core.c ****   /* Create USB Host Task */
 151:Middlewares/ST/STM32_USB_Host_Library/Core/Src/usbh_core.c ****   USBH_Thread_Atrr.name = "USBH_Queue";
 152:Middlewares/ST/STM32_USB_Host_Library/Core/Src/usbh_core.c **** 
 153:Middlewares/ST/STM32_USB_Host_Library/Core/Src/usbh_core.c **** #if defined (USBH_PROCESS_STACK_SIZE)
 154:Middlewares/ST/STM32_USB_Host_Library/Core/Src/usbh_core.c ****   USBH_Thread_Atrr.stack_size = USBH_PROCESS_STACK_SIZE;
 155:Middlewares/ST/STM32_USB_Host_Library/Core/Src/usbh_core.c **** #else
 156:Middlewares/ST/STM32_USB_Host_Library/Core/Src/usbh_core.c ****   USBH_Thread_Atrr.stack_size = (8U * configMINIMAL_STACK_SIZE);
 157:Middlewares/ST/STM32_USB_Host_Library/Core/Src/usbh_core.c **** #endif /* defined (USBH_PROCESS_STACK_SIZE) */
 158:Middlewares/ST/STM32_USB_Host_Library/Core/Src/usbh_core.c **** 
 159:Middlewares/ST/STM32_USB_Host_Library/Core/Src/usbh_core.c ****   USBH_Thread_Atrr.priority = USBH_PROCESS_PRIO;
 160:Middlewares/ST/STM32_USB_Host_Library/Core/Src/usbh_core.c ****   phost->thread = osThreadNew(USBH_Process_OS, phost, &USBH_Thread_Atrr);
 161:Middlewares/ST/STM32_USB_Host_Library/Core/Src/usbh_core.c **** 
 162:Middlewares/ST/STM32_USB_Host_Library/Core/Src/usbh_core.c **** #endif /* (osCMSIS < 0x20000U) */
 163:Middlewares/ST/STM32_USB_Host_Library/Core/Src/usbh_core.c **** #endif /* (USBH_USE_OS == 1U) */
 164:Middlewares/ST/STM32_USB_Host_Library/Core/Src/usbh_core.c **** 
 165:Middlewares/ST/STM32_USB_Host_Library/Core/Src/usbh_core.c ****   /* Initialize low level driver */
 166:Middlewares/ST/STM32_USB_Host_Library/Core/Src/usbh_core.c ****   (void)USBH_LL_Init(phost);
 167:Middlewares/ST/STM32_USB_Host_Library/Core/Src/usbh_core.c **** 
 168:Middlewares/ST/STM32_USB_Host_Library/Core/Src/usbh_core.c ****   return USBH_OK;
 169:Middlewares/ST/STM32_USB_Host_Library/Core/Src/usbh_core.c **** }
 170:Middlewares/ST/STM32_USB_Host_Library/Core/Src/usbh_core.c **** 
 171:Middlewares/ST/STM32_USB_Host_Library/Core/Src/usbh_core.c **** 
 172:Middlewares/ST/STM32_USB_Host_Library/Core/Src/usbh_core.c **** /**
 173:Middlewares/ST/STM32_USB_Host_Library/Core/Src/usbh_core.c ****   * @brief  HCD_Init
 174:Middlewares/ST/STM32_USB_Host_Library/Core/Src/usbh_core.c ****   *         De-Initialize the Host portion of the driver.
 175:Middlewares/ST/STM32_USB_Host_Library/Core/Src/usbh_core.c ****   * @param  phost: Host Handle
 176:Middlewares/ST/STM32_USB_Host_Library/Core/Src/usbh_core.c ****   * @retval USBH Status
 177:Middlewares/ST/STM32_USB_Host_Library/Core/Src/usbh_core.c ****   */
 178:Middlewares/ST/STM32_USB_Host_Library/Core/Src/usbh_core.c **** USBH_StatusTypeDef USBH_DeInit(USBH_HandleTypeDef *phost)
 179:Middlewares/ST/STM32_USB_Host_Library/Core/Src/usbh_core.c **** {
 180:Middlewares/ST/STM32_USB_Host_Library/Core/Src/usbh_core.c ****   (void)DeInitStateMachine(phost);
 181:Middlewares/ST/STM32_USB_Host_Library/Core/Src/usbh_core.c **** 
 182:Middlewares/ST/STM32_USB_Host_Library/Core/Src/usbh_core.c ****   /* Restore default Device connection states */
 183:Middlewares/ST/STM32_USB_Host_Library/Core/Src/usbh_core.c ****   phost->device.PortEnabled = 0U;
 184:Middlewares/ST/STM32_USB_Host_Library/Core/Src/usbh_core.c ****   phost->device.is_connected = 0U;
 185:Middlewares/ST/STM32_USB_Host_Library/Core/Src/usbh_core.c ****   phost->device.is_disconnected = 0U;
 186:Middlewares/ST/STM32_USB_Host_Library/Core/Src/usbh_core.c ****   phost->device.is_ReEnumerated = 0U;
 187:Middlewares/ST/STM32_USB_Host_Library/Core/Src/usbh_core.c ****   phost->device.RstCnt = 0U;
 188:Middlewares/ST/STM32_USB_Host_Library/Core/Src/usbh_core.c ****   phost->device.EnumCnt = 0U;
 189:Middlewares/ST/STM32_USB_Host_Library/Core/Src/usbh_core.c **** 
 190:Middlewares/ST/STM32_USB_Host_Library/Core/Src/usbh_core.c ****   if (phost->pData != NULL)
 191:Middlewares/ST/STM32_USB_Host_Library/Core/Src/usbh_core.c ****   {
 192:Middlewares/ST/STM32_USB_Host_Library/Core/Src/usbh_core.c ****     (void)USBH_LL_Stop(phost);
 193:Middlewares/ST/STM32_USB_Host_Library/Core/Src/usbh_core.c ****   }
 194:Middlewares/ST/STM32_USB_Host_Library/Core/Src/usbh_core.c **** 
 195:Middlewares/ST/STM32_USB_Host_Library/Core/Src/usbh_core.c **** #if (USBH_USE_OS == 1U)
 196:Middlewares/ST/STM32_USB_Host_Library/Core/Src/usbh_core.c **** #if (osCMSIS < 0x20000U)
 197:Middlewares/ST/STM32_USB_Host_Library/Core/Src/usbh_core.c **** 
 198:Middlewares/ST/STM32_USB_Host_Library/Core/Src/usbh_core.c ****   /* Free allocated resource for USBH process */
 199:Middlewares/ST/STM32_USB_Host_Library/Core/Src/usbh_core.c ****   (void)osThreadTerminate(phost->thread);
 200:Middlewares/ST/STM32_USB_Host_Library/Core/Src/usbh_core.c ****   (void)osMessageDelete(phost->os_event);
 201:Middlewares/ST/STM32_USB_Host_Library/Core/Src/usbh_core.c **** 
ARM GAS  /tmp/ccKRVJ90.s 			page 5


 202:Middlewares/ST/STM32_USB_Host_Library/Core/Src/usbh_core.c **** #else
 203:Middlewares/ST/STM32_USB_Host_Library/Core/Src/usbh_core.c **** 
 204:Middlewares/ST/STM32_USB_Host_Library/Core/Src/usbh_core.c ****   /* Free allocated resource for USBH process */
 205:Middlewares/ST/STM32_USB_Host_Library/Core/Src/usbh_core.c ****   (void)osThreadTerminate(phost->thread);
 206:Middlewares/ST/STM32_USB_Host_Library/Core/Src/usbh_core.c ****   (void)osMessageQueueDelete(phost->os_event);
 207:Middlewares/ST/STM32_USB_Host_Library/Core/Src/usbh_core.c **** 
 208:Middlewares/ST/STM32_USB_Host_Library/Core/Src/usbh_core.c **** #endif /* (osCMSIS < 0x20000U) */
 209:Middlewares/ST/STM32_USB_Host_Library/Core/Src/usbh_core.c **** #endif /* (USBH_USE_OS == 1U) */
 210:Middlewares/ST/STM32_USB_Host_Library/Core/Src/usbh_core.c **** 
 211:Middlewares/ST/STM32_USB_Host_Library/Core/Src/usbh_core.c ****   return USBH_OK;
 212:Middlewares/ST/STM32_USB_Host_Library/Core/Src/usbh_core.c **** }
 213:Middlewares/ST/STM32_USB_Host_Library/Core/Src/usbh_core.c **** 
 214:Middlewares/ST/STM32_USB_Host_Library/Core/Src/usbh_core.c **** 
 215:Middlewares/ST/STM32_USB_Host_Library/Core/Src/usbh_core.c **** /**
 216:Middlewares/ST/STM32_USB_Host_Library/Core/Src/usbh_core.c ****   * @brief  DeInitStateMachine
 217:Middlewares/ST/STM32_USB_Host_Library/Core/Src/usbh_core.c ****   *         De-Initialize the Host state machine.
 218:Middlewares/ST/STM32_USB_Host_Library/Core/Src/usbh_core.c ****   * @param  phost: Host Handle
 219:Middlewares/ST/STM32_USB_Host_Library/Core/Src/usbh_core.c ****   * @retval USBH Status
 220:Middlewares/ST/STM32_USB_Host_Library/Core/Src/usbh_core.c ****   */
 221:Middlewares/ST/STM32_USB_Host_Library/Core/Src/usbh_core.c **** static USBH_StatusTypeDef DeInitStateMachine(USBH_HandleTypeDef *phost)
 222:Middlewares/ST/STM32_USB_Host_Library/Core/Src/usbh_core.c **** {
  29              		.loc 1 222 1 view -0
  30              		.cfi_startproc
  31              		@ args = 0, pretend = 0, frame = 0
  32              		@ frame_needed = 0, uses_anonymous_args = 0
  33              		@ link register save eliminated.
  34              		.loc 1 222 1 is_stmt 0 view .LVU1
  35 0000 10B4     		push	{r4}
  36              	.LCFI0:
  37              		.cfi_def_cfa_offset 4
  38              		.cfi_offset 4, -4
  39 0002 0446     		mov	r4, r0
 223:Middlewares/ST/STM32_USB_Host_Library/Core/Src/usbh_core.c ****   uint32_t i = 0U;
  40              		.loc 1 223 3 is_stmt 1 view .LVU2
  41              	.LVL1:
 224:Middlewares/ST/STM32_USB_Host_Library/Core/Src/usbh_core.c **** 
 225:Middlewares/ST/STM32_USB_Host_Library/Core/Src/usbh_core.c ****   /* Clear Pipes flags*/
 226:Middlewares/ST/STM32_USB_Host_Library/Core/Src/usbh_core.c ****   for (i = 0U; i < USBH_MAX_PIPES_NBR; i++)
  42              		.loc 1 226 3 view .LVU3
  43              		.loc 1 226 10 is_stmt 0 view .LVU4
  44 0004 0023     		movs	r3, #0
  45              	.LVL2:
  46              	.L2:
  47              		.loc 1 226 16 is_stmt 1 discriminator 1 view .LVU5
  48              		.loc 1 226 3 is_stmt 0 discriminator 1 view .LVU6
  49 0006 0F2B     		cmp	r3, #15
  50 0008 07D8     		bhi	.L7
 227:Middlewares/ST/STM32_USB_Host_Library/Core/Src/usbh_core.c ****   {
 228:Middlewares/ST/STM32_USB_Host_Library/Core/Src/usbh_core.c ****     phost->Pipes[i] = 0U;
  51              		.loc 1 228 5 is_stmt 1 discriminator 3 view .LVU7
  52              		.loc 1 228 21 is_stmt 0 discriminator 3 view .LVU8
  53 000a 03F1E002 		add	r2, r3, #224
  54 000e 04EB8202 		add	r2, r4, r2, lsl #2
  55 0012 0021     		movs	r1, #0
  56 0014 5160     		str	r1, [r2, #4]
 226:Middlewares/ST/STM32_USB_Host_Library/Core/Src/usbh_core.c ****   {
  57              		.loc 1 226 40 is_stmt 1 discriminator 3 view .LVU9
ARM GAS  /tmp/ccKRVJ90.s 			page 6


 226:Middlewares/ST/STM32_USB_Host_Library/Core/Src/usbh_core.c ****   {
  58              		.loc 1 226 41 is_stmt 0 discriminator 3 view .LVU10
  59 0016 0133     		adds	r3, r3, #1
  60              	.LVL3:
 226:Middlewares/ST/STM32_USB_Host_Library/Core/Src/usbh_core.c ****   {
  61              		.loc 1 226 41 discriminator 3 view .LVU11
  62 0018 F5E7     		b	.L2
  63              	.L7:
 229:Middlewares/ST/STM32_USB_Host_Library/Core/Src/usbh_core.c ****   }
 230:Middlewares/ST/STM32_USB_Host_Library/Core/Src/usbh_core.c **** 
 231:Middlewares/ST/STM32_USB_Host_Library/Core/Src/usbh_core.c ****   for (i = 0U; i < USBH_MAX_DATA_BUFFER; i++)
  64              		.loc 1 231 10 view .LVU12
  65 001a 0023     		movs	r3, #0
  66              	.LVL4:
  67              	.L4:
  68              		.loc 1 231 16 is_stmt 1 discriminator 1 view .LVU13
  69              		.loc 1 231 3 is_stmt 0 discriminator 1 view .LVU14
  70 001c B3F5007F 		cmp	r3, #512
  71 0020 05D2     		bcs	.L8
 232:Middlewares/ST/STM32_USB_Host_Library/Core/Src/usbh_core.c ****   {
 233:Middlewares/ST/STM32_USB_Host_Library/Core/Src/usbh_core.c ****     phost->device.Data[i] = 0U;
  72              		.loc 1 233 5 is_stmt 1 discriminator 3 view .LVU15
  73              		.loc 1 233 27 is_stmt 0 discriminator 3 view .LVU16
  74 0022 E218     		adds	r2, r4, r3
  75 0024 0021     		movs	r1, #0
  76 0026 82F81C11 		strb	r1, [r2, #284]
 231:Middlewares/ST/STM32_USB_Host_Library/Core/Src/usbh_core.c ****   {
  77              		.loc 1 231 42 is_stmt 1 discriminator 3 view .LVU17
 231:Middlewares/ST/STM32_USB_Host_Library/Core/Src/usbh_core.c ****   {
  78              		.loc 1 231 43 is_stmt 0 discriminator 3 view .LVU18
  79 002a 0133     		adds	r3, r3, #1
  80              	.LVL5:
 231:Middlewares/ST/STM32_USB_Host_Library/Core/Src/usbh_core.c ****   {
  81              		.loc 1 231 43 discriminator 3 view .LVU19
  82 002c F6E7     		b	.L4
  83              	.L8:
 234:Middlewares/ST/STM32_USB_Host_Library/Core/Src/usbh_core.c ****   }
 235:Middlewares/ST/STM32_USB_Host_Library/Core/Src/usbh_core.c **** 
 236:Middlewares/ST/STM32_USB_Host_Library/Core/Src/usbh_core.c ****   phost->gState = HOST_IDLE;
  84              		.loc 1 236 3 is_stmt 1 view .LVU20
  85              		.loc 1 236 17 is_stmt 0 view .LVU21
  86 002e 0020     		movs	r0, #0
  87              	.LVL6:
  88              		.loc 1 236 17 view .LVU22
  89 0030 2070     		strb	r0, [r4]
 237:Middlewares/ST/STM32_USB_Host_Library/Core/Src/usbh_core.c ****   phost->EnumState = ENUM_IDLE;
  90              		.loc 1 237 3 is_stmt 1 view .LVU23
  91              		.loc 1 237 20 is_stmt 0 view .LVU24
  92 0032 6070     		strb	r0, [r4, #1]
 238:Middlewares/ST/STM32_USB_Host_Library/Core/Src/usbh_core.c ****   phost->RequestState = CMD_SEND;
  93              		.loc 1 238 3 is_stmt 1 view .LVU25
  94              		.loc 1 238 23 is_stmt 0 view .LVU26
  95 0034 0123     		movs	r3, #1
  96              	.LVL7:
  97              		.loc 1 238 23 view .LVU27
  98 0036 A370     		strb	r3, [r4, #2]
 239:Middlewares/ST/STM32_USB_Host_Library/Core/Src/usbh_core.c ****   phost->Timer = 0U;
ARM GAS  /tmp/ccKRVJ90.s 			page 7


  99              		.loc 1 239 3 is_stmt 1 view .LVU28
 100              		.loc 1 239 16 is_stmt 0 view .LVU29
 101 0038 C4F8C403 		str	r0, [r4, #964]
 240:Middlewares/ST/STM32_USB_Host_Library/Core/Src/usbh_core.c **** 
 241:Middlewares/ST/STM32_USB_Host_Library/Core/Src/usbh_core.c ****   phost->Control.state = CTRL_SETUP;
 102              		.loc 1 241 3 is_stmt 1 view .LVU30
 103              		.loc 1 241 24 is_stmt 0 view .LVU31
 104 003c 2376     		strb	r3, [r4, #24]
 242:Middlewares/ST/STM32_USB_Host_Library/Core/Src/usbh_core.c ****   phost->Control.pipe_size = USBH_MPS_DEFAULT;
 105              		.loc 1 242 3 is_stmt 1 view .LVU32
 106              		.loc 1 242 28 is_stmt 0 view .LVU33
 107 003e 4022     		movs	r2, #64
 108 0040 A271     		strb	r2, [r4, #6]
 243:Middlewares/ST/STM32_USB_Host_Library/Core/Src/usbh_core.c ****   phost->Control.errorcount = 0U;
 109              		.loc 1 243 3 is_stmt 1 view .LVU34
 110              		.loc 1 243 29 is_stmt 0 view .LVU35
 111 0042 6076     		strb	r0, [r4, #25]
 244:Middlewares/ST/STM32_USB_Host_Library/Core/Src/usbh_core.c **** 
 245:Middlewares/ST/STM32_USB_Host_Library/Core/Src/usbh_core.c ****   phost->device.address = USBH_ADDRESS_DEFAULT;
 112              		.loc 1 245 3 is_stmt 1 view .LVU36
 113              		.loc 1 245 25 is_stmt 0 view .LVU37
 114 0044 84F81C03 		strb	r0, [r4, #796]
 246:Middlewares/ST/STM32_USB_Host_Library/Core/Src/usbh_core.c ****   phost->device.speed = (uint8_t)USBH_SPEED_FULL;
 115              		.loc 1 246 3 is_stmt 1 view .LVU38
 116              		.loc 1 246 23 is_stmt 0 view .LVU39
 117 0048 84F81D33 		strb	r3, [r4, #797]
 247:Middlewares/ST/STM32_USB_Host_Library/Core/Src/usbh_core.c ****   phost->device.RstCnt = 0U;
 118              		.loc 1 247 3 is_stmt 1 view .LVU40
 119              		.loc 1 247 24 is_stmt 0 view .LVU41
 120 004c 84F81F03 		strb	r0, [r4, #799]
 248:Middlewares/ST/STM32_USB_Host_Library/Core/Src/usbh_core.c ****   phost->device.EnumCnt = 0U;
 121              		.loc 1 248 3 is_stmt 1 view .LVU42
 122              		.loc 1 248 25 is_stmt 0 view .LVU43
 123 0050 84F81E03 		strb	r0, [r4, #798]
 249:Middlewares/ST/STM32_USB_Host_Library/Core/Src/usbh_core.c **** 
 250:Middlewares/ST/STM32_USB_Host_Library/Core/Src/usbh_core.c ****   return USBH_OK;
 124              		.loc 1 250 3 is_stmt 1 view .LVU44
 251:Middlewares/ST/STM32_USB_Host_Library/Core/Src/usbh_core.c **** }
 125              		.loc 1 251 1 is_stmt 0 view .LVU45
 126 0054 5DF8044B 		ldr	r4, [sp], #4
 127              	.LCFI1:
 128              		.cfi_restore 4
 129              		.cfi_def_cfa_offset 0
 130              	.LVL8:
 131              		.loc 1 251 1 view .LVU46
 132 0058 7047     		bx	lr
 133              		.cfi_endproc
 134              	.LFE244:
 136              		.section	.text.USBH_HandleSof,"ax",%progbits
 137              		.align	1
 138              		.syntax unified
 139              		.thumb
 140              		.thumb_func
 141              		.fpu fpv4-sp-d16
 143              	USBH_HandleSof:
 144              	.LVL9:
 145              	.LFB257:
ARM GAS  /tmp/ccKRVJ90.s 			page 8


 252:Middlewares/ST/STM32_USB_Host_Library/Core/Src/usbh_core.c **** 
 253:Middlewares/ST/STM32_USB_Host_Library/Core/Src/usbh_core.c **** 
 254:Middlewares/ST/STM32_USB_Host_Library/Core/Src/usbh_core.c **** /**
 255:Middlewares/ST/STM32_USB_Host_Library/Core/Src/usbh_core.c ****   * @brief  USBH_RegisterClass
 256:Middlewares/ST/STM32_USB_Host_Library/Core/Src/usbh_core.c ****   *         Link class driver to Host Core.
 257:Middlewares/ST/STM32_USB_Host_Library/Core/Src/usbh_core.c ****   * @param  phost : Host Handle
 258:Middlewares/ST/STM32_USB_Host_Library/Core/Src/usbh_core.c ****   * @param  pclass: Class handle
 259:Middlewares/ST/STM32_USB_Host_Library/Core/Src/usbh_core.c ****   * @retval USBH Status
 260:Middlewares/ST/STM32_USB_Host_Library/Core/Src/usbh_core.c ****   */
 261:Middlewares/ST/STM32_USB_Host_Library/Core/Src/usbh_core.c **** USBH_StatusTypeDef USBH_RegisterClass(USBH_HandleTypeDef *phost, USBH_ClassTypeDef *pclass)
 262:Middlewares/ST/STM32_USB_Host_Library/Core/Src/usbh_core.c **** {
 263:Middlewares/ST/STM32_USB_Host_Library/Core/Src/usbh_core.c ****   USBH_StatusTypeDef status = USBH_OK;
 264:Middlewares/ST/STM32_USB_Host_Library/Core/Src/usbh_core.c **** 
 265:Middlewares/ST/STM32_USB_Host_Library/Core/Src/usbh_core.c ****   if (pclass != NULL)
 266:Middlewares/ST/STM32_USB_Host_Library/Core/Src/usbh_core.c ****   {
 267:Middlewares/ST/STM32_USB_Host_Library/Core/Src/usbh_core.c ****     if (phost->ClassNumber < USBH_MAX_NUM_SUPPORTED_CLASS)
 268:Middlewares/ST/STM32_USB_Host_Library/Core/Src/usbh_core.c ****     {
 269:Middlewares/ST/STM32_USB_Host_Library/Core/Src/usbh_core.c ****       /* link the class to the USB Host handle */
 270:Middlewares/ST/STM32_USB_Host_Library/Core/Src/usbh_core.c ****       phost->pClass[phost->ClassNumber++] = pclass;
 271:Middlewares/ST/STM32_USB_Host_Library/Core/Src/usbh_core.c ****       status = USBH_OK;
 272:Middlewares/ST/STM32_USB_Host_Library/Core/Src/usbh_core.c ****     }
 273:Middlewares/ST/STM32_USB_Host_Library/Core/Src/usbh_core.c ****     else
 274:Middlewares/ST/STM32_USB_Host_Library/Core/Src/usbh_core.c ****     {
 275:Middlewares/ST/STM32_USB_Host_Library/Core/Src/usbh_core.c ****       USBH_ErrLog("Max Class Number reached");
 276:Middlewares/ST/STM32_USB_Host_Library/Core/Src/usbh_core.c ****       status = USBH_FAIL;
 277:Middlewares/ST/STM32_USB_Host_Library/Core/Src/usbh_core.c ****     }
 278:Middlewares/ST/STM32_USB_Host_Library/Core/Src/usbh_core.c ****   }
 279:Middlewares/ST/STM32_USB_Host_Library/Core/Src/usbh_core.c ****   else
 280:Middlewares/ST/STM32_USB_Host_Library/Core/Src/usbh_core.c ****   {
 281:Middlewares/ST/STM32_USB_Host_Library/Core/Src/usbh_core.c ****     USBH_ErrLog("Invalid Class handle");
 282:Middlewares/ST/STM32_USB_Host_Library/Core/Src/usbh_core.c ****     status = USBH_FAIL;
 283:Middlewares/ST/STM32_USB_Host_Library/Core/Src/usbh_core.c ****   }
 284:Middlewares/ST/STM32_USB_Host_Library/Core/Src/usbh_core.c **** 
 285:Middlewares/ST/STM32_USB_Host_Library/Core/Src/usbh_core.c ****   return status;
 286:Middlewares/ST/STM32_USB_Host_Library/Core/Src/usbh_core.c **** }
 287:Middlewares/ST/STM32_USB_Host_Library/Core/Src/usbh_core.c **** 
 288:Middlewares/ST/STM32_USB_Host_Library/Core/Src/usbh_core.c **** 
 289:Middlewares/ST/STM32_USB_Host_Library/Core/Src/usbh_core.c **** /**
 290:Middlewares/ST/STM32_USB_Host_Library/Core/Src/usbh_core.c ****   * @brief  USBH_SelectInterface
 291:Middlewares/ST/STM32_USB_Host_Library/Core/Src/usbh_core.c ****   *         Select current interface.
 292:Middlewares/ST/STM32_USB_Host_Library/Core/Src/usbh_core.c ****   * @param  phost: Host Handle
 293:Middlewares/ST/STM32_USB_Host_Library/Core/Src/usbh_core.c ****   * @param  interface: Interface number
 294:Middlewares/ST/STM32_USB_Host_Library/Core/Src/usbh_core.c ****   * @retval USBH Status
 295:Middlewares/ST/STM32_USB_Host_Library/Core/Src/usbh_core.c ****   */
 296:Middlewares/ST/STM32_USB_Host_Library/Core/Src/usbh_core.c **** USBH_StatusTypeDef USBH_SelectInterface(USBH_HandleTypeDef *phost, uint8_t interface)
 297:Middlewares/ST/STM32_USB_Host_Library/Core/Src/usbh_core.c **** {
 298:Middlewares/ST/STM32_USB_Host_Library/Core/Src/usbh_core.c ****   USBH_StatusTypeDef status = USBH_OK;
 299:Middlewares/ST/STM32_USB_Host_Library/Core/Src/usbh_core.c **** 
 300:Middlewares/ST/STM32_USB_Host_Library/Core/Src/usbh_core.c ****   if (interface < phost->device.CfgDesc.bNumInterfaces)
 301:Middlewares/ST/STM32_USB_Host_Library/Core/Src/usbh_core.c ****   {
 302:Middlewares/ST/STM32_USB_Host_Library/Core/Src/usbh_core.c ****     phost->device.current_interface = interface;
 303:Middlewares/ST/STM32_USB_Host_Library/Core/Src/usbh_core.c ****     USBH_UsrLog("Switching to Interface (#%d)", interface);
 304:Middlewares/ST/STM32_USB_Host_Library/Core/Src/usbh_core.c ****     USBH_UsrLog("Class    : %xh", phost->device.CfgDesc.Itf_Desc[interface].bInterfaceClass);
 305:Middlewares/ST/STM32_USB_Host_Library/Core/Src/usbh_core.c ****     USBH_UsrLog("SubClass : %xh", phost->device.CfgDesc.Itf_Desc[interface].bInterfaceSubClass);
 306:Middlewares/ST/STM32_USB_Host_Library/Core/Src/usbh_core.c ****     USBH_UsrLog("Protocol : %xh", phost->device.CfgDesc.Itf_Desc[interface].bInterfaceProtocol);
 307:Middlewares/ST/STM32_USB_Host_Library/Core/Src/usbh_core.c ****   }
 308:Middlewares/ST/STM32_USB_Host_Library/Core/Src/usbh_core.c ****   else
ARM GAS  /tmp/ccKRVJ90.s 			page 9


 309:Middlewares/ST/STM32_USB_Host_Library/Core/Src/usbh_core.c ****   {
 310:Middlewares/ST/STM32_USB_Host_Library/Core/Src/usbh_core.c ****     USBH_ErrLog("Cannot Select This Interface.");
 311:Middlewares/ST/STM32_USB_Host_Library/Core/Src/usbh_core.c ****     status = USBH_FAIL;
 312:Middlewares/ST/STM32_USB_Host_Library/Core/Src/usbh_core.c ****   }
 313:Middlewares/ST/STM32_USB_Host_Library/Core/Src/usbh_core.c **** 
 314:Middlewares/ST/STM32_USB_Host_Library/Core/Src/usbh_core.c ****   return status;
 315:Middlewares/ST/STM32_USB_Host_Library/Core/Src/usbh_core.c **** }
 316:Middlewares/ST/STM32_USB_Host_Library/Core/Src/usbh_core.c **** 
 317:Middlewares/ST/STM32_USB_Host_Library/Core/Src/usbh_core.c **** 
 318:Middlewares/ST/STM32_USB_Host_Library/Core/Src/usbh_core.c **** /**
 319:Middlewares/ST/STM32_USB_Host_Library/Core/Src/usbh_core.c ****   * @brief  USBH_GetActiveClass
 320:Middlewares/ST/STM32_USB_Host_Library/Core/Src/usbh_core.c ****   *         Return Device Class.
 321:Middlewares/ST/STM32_USB_Host_Library/Core/Src/usbh_core.c ****   * @param  phost: Host Handle
 322:Middlewares/ST/STM32_USB_Host_Library/Core/Src/usbh_core.c ****   * @param  interface: Interface index
 323:Middlewares/ST/STM32_USB_Host_Library/Core/Src/usbh_core.c ****   * @retval Class Code
 324:Middlewares/ST/STM32_USB_Host_Library/Core/Src/usbh_core.c ****   */
 325:Middlewares/ST/STM32_USB_Host_Library/Core/Src/usbh_core.c **** uint8_t USBH_GetActiveClass(USBH_HandleTypeDef *phost)
 326:Middlewares/ST/STM32_USB_Host_Library/Core/Src/usbh_core.c **** {
 327:Middlewares/ST/STM32_USB_Host_Library/Core/Src/usbh_core.c ****   return (phost->device.CfgDesc.Itf_Desc[0].bInterfaceClass);
 328:Middlewares/ST/STM32_USB_Host_Library/Core/Src/usbh_core.c **** }
 329:Middlewares/ST/STM32_USB_Host_Library/Core/Src/usbh_core.c **** 
 330:Middlewares/ST/STM32_USB_Host_Library/Core/Src/usbh_core.c **** 
 331:Middlewares/ST/STM32_USB_Host_Library/Core/Src/usbh_core.c **** /**
 332:Middlewares/ST/STM32_USB_Host_Library/Core/Src/usbh_core.c ****   * @brief  USBH_FindInterface
 333:Middlewares/ST/STM32_USB_Host_Library/Core/Src/usbh_core.c ****   *         Find the interface index for a specific class.
 334:Middlewares/ST/STM32_USB_Host_Library/Core/Src/usbh_core.c ****   * @param  phost: Host Handle
 335:Middlewares/ST/STM32_USB_Host_Library/Core/Src/usbh_core.c ****   * @param  Class: Class code
 336:Middlewares/ST/STM32_USB_Host_Library/Core/Src/usbh_core.c ****   * @param  SubClass: SubClass code
 337:Middlewares/ST/STM32_USB_Host_Library/Core/Src/usbh_core.c ****   * @param  Protocol: Protocol code
 338:Middlewares/ST/STM32_USB_Host_Library/Core/Src/usbh_core.c ****   * @retval interface index in the configuration structure
 339:Middlewares/ST/STM32_USB_Host_Library/Core/Src/usbh_core.c ****   * @note : (1)interface index 0xFF means interface index not found
 340:Middlewares/ST/STM32_USB_Host_Library/Core/Src/usbh_core.c ****   */
 341:Middlewares/ST/STM32_USB_Host_Library/Core/Src/usbh_core.c **** uint8_t  USBH_FindInterface(USBH_HandleTypeDef *phost, uint8_t Class, uint8_t SubClass, uint8_t Pro
 342:Middlewares/ST/STM32_USB_Host_Library/Core/Src/usbh_core.c **** {
 343:Middlewares/ST/STM32_USB_Host_Library/Core/Src/usbh_core.c ****   USBH_InterfaceDescTypeDef *pif;
 344:Middlewares/ST/STM32_USB_Host_Library/Core/Src/usbh_core.c ****   USBH_CfgDescTypeDef *pcfg;
 345:Middlewares/ST/STM32_USB_Host_Library/Core/Src/usbh_core.c ****   uint8_t if_ix = 0U;
 346:Middlewares/ST/STM32_USB_Host_Library/Core/Src/usbh_core.c **** 
 347:Middlewares/ST/STM32_USB_Host_Library/Core/Src/usbh_core.c ****   pif = (USBH_InterfaceDescTypeDef *)NULL;
 348:Middlewares/ST/STM32_USB_Host_Library/Core/Src/usbh_core.c ****   pcfg = &phost->device.CfgDesc;
 349:Middlewares/ST/STM32_USB_Host_Library/Core/Src/usbh_core.c **** 
 350:Middlewares/ST/STM32_USB_Host_Library/Core/Src/usbh_core.c ****   while (if_ix < USBH_MAX_NUM_INTERFACES)
 351:Middlewares/ST/STM32_USB_Host_Library/Core/Src/usbh_core.c ****   {
 352:Middlewares/ST/STM32_USB_Host_Library/Core/Src/usbh_core.c ****     pif = &pcfg->Itf_Desc[if_ix];
 353:Middlewares/ST/STM32_USB_Host_Library/Core/Src/usbh_core.c ****     if (((pif->bInterfaceClass == Class) || (Class == 0xFFU)) &&
 354:Middlewares/ST/STM32_USB_Host_Library/Core/Src/usbh_core.c ****         ((pif->bInterfaceSubClass == SubClass) || (SubClass == 0xFFU)) &&
 355:Middlewares/ST/STM32_USB_Host_Library/Core/Src/usbh_core.c ****         ((pif->bInterfaceProtocol == Protocol) || (Protocol == 0xFFU)))
 356:Middlewares/ST/STM32_USB_Host_Library/Core/Src/usbh_core.c ****     {
 357:Middlewares/ST/STM32_USB_Host_Library/Core/Src/usbh_core.c ****       return  if_ix;
 358:Middlewares/ST/STM32_USB_Host_Library/Core/Src/usbh_core.c ****     }
 359:Middlewares/ST/STM32_USB_Host_Library/Core/Src/usbh_core.c ****     if_ix++;
 360:Middlewares/ST/STM32_USB_Host_Library/Core/Src/usbh_core.c ****   }
 361:Middlewares/ST/STM32_USB_Host_Library/Core/Src/usbh_core.c ****   return 0xFFU;
 362:Middlewares/ST/STM32_USB_Host_Library/Core/Src/usbh_core.c **** }
 363:Middlewares/ST/STM32_USB_Host_Library/Core/Src/usbh_core.c **** 
 364:Middlewares/ST/STM32_USB_Host_Library/Core/Src/usbh_core.c **** 
 365:Middlewares/ST/STM32_USB_Host_Library/Core/Src/usbh_core.c **** /**
ARM GAS  /tmp/ccKRVJ90.s 			page 10


 366:Middlewares/ST/STM32_USB_Host_Library/Core/Src/usbh_core.c ****   * @brief  USBH_FindInterfaceIndex
 367:Middlewares/ST/STM32_USB_Host_Library/Core/Src/usbh_core.c ****   *         Find the interface index for a specific class interface and alternate setting number.
 368:Middlewares/ST/STM32_USB_Host_Library/Core/Src/usbh_core.c ****   * @param  phost: Host Handle
 369:Middlewares/ST/STM32_USB_Host_Library/Core/Src/usbh_core.c ****   * @param  interface_number: interface number
 370:Middlewares/ST/STM32_USB_Host_Library/Core/Src/usbh_core.c ****   * @param  alt_settings    : alternate setting number
 371:Middlewares/ST/STM32_USB_Host_Library/Core/Src/usbh_core.c ****   * @retval interface index in the configuration structure
 372:Middlewares/ST/STM32_USB_Host_Library/Core/Src/usbh_core.c ****   * @note : (1)interface index 0xFF means interface index not found
 373:Middlewares/ST/STM32_USB_Host_Library/Core/Src/usbh_core.c ****   */
 374:Middlewares/ST/STM32_USB_Host_Library/Core/Src/usbh_core.c **** uint8_t  USBH_FindInterfaceIndex(USBH_HandleTypeDef *phost, uint8_t interface_number, uint8_t alt_s
 375:Middlewares/ST/STM32_USB_Host_Library/Core/Src/usbh_core.c **** {
 376:Middlewares/ST/STM32_USB_Host_Library/Core/Src/usbh_core.c ****   USBH_InterfaceDescTypeDef *pif;
 377:Middlewares/ST/STM32_USB_Host_Library/Core/Src/usbh_core.c ****   USBH_CfgDescTypeDef *pcfg;
 378:Middlewares/ST/STM32_USB_Host_Library/Core/Src/usbh_core.c ****   uint8_t if_ix = 0U;
 379:Middlewares/ST/STM32_USB_Host_Library/Core/Src/usbh_core.c **** 
 380:Middlewares/ST/STM32_USB_Host_Library/Core/Src/usbh_core.c ****   pif = (USBH_InterfaceDescTypeDef *)NULL;
 381:Middlewares/ST/STM32_USB_Host_Library/Core/Src/usbh_core.c ****   pcfg = &phost->device.CfgDesc;
 382:Middlewares/ST/STM32_USB_Host_Library/Core/Src/usbh_core.c **** 
 383:Middlewares/ST/STM32_USB_Host_Library/Core/Src/usbh_core.c ****   while (if_ix < USBH_MAX_NUM_INTERFACES)
 384:Middlewares/ST/STM32_USB_Host_Library/Core/Src/usbh_core.c ****   {
 385:Middlewares/ST/STM32_USB_Host_Library/Core/Src/usbh_core.c ****     pif = &pcfg->Itf_Desc[if_ix];
 386:Middlewares/ST/STM32_USB_Host_Library/Core/Src/usbh_core.c ****     if ((pif->bInterfaceNumber == interface_number) && (pif->bAlternateSetting == alt_settings))
 387:Middlewares/ST/STM32_USB_Host_Library/Core/Src/usbh_core.c ****     {
 388:Middlewares/ST/STM32_USB_Host_Library/Core/Src/usbh_core.c ****       return  if_ix;
 389:Middlewares/ST/STM32_USB_Host_Library/Core/Src/usbh_core.c ****     }
 390:Middlewares/ST/STM32_USB_Host_Library/Core/Src/usbh_core.c ****     if_ix++;
 391:Middlewares/ST/STM32_USB_Host_Library/Core/Src/usbh_core.c ****   }
 392:Middlewares/ST/STM32_USB_Host_Library/Core/Src/usbh_core.c ****   return 0xFFU;
 393:Middlewares/ST/STM32_USB_Host_Library/Core/Src/usbh_core.c **** }
 394:Middlewares/ST/STM32_USB_Host_Library/Core/Src/usbh_core.c **** 
 395:Middlewares/ST/STM32_USB_Host_Library/Core/Src/usbh_core.c **** 
 396:Middlewares/ST/STM32_USB_Host_Library/Core/Src/usbh_core.c **** /**
 397:Middlewares/ST/STM32_USB_Host_Library/Core/Src/usbh_core.c ****   * @brief  USBH_Start
 398:Middlewares/ST/STM32_USB_Host_Library/Core/Src/usbh_core.c ****   *         Start the USB Host Core.
 399:Middlewares/ST/STM32_USB_Host_Library/Core/Src/usbh_core.c ****   * @param  phost: Host Handle
 400:Middlewares/ST/STM32_USB_Host_Library/Core/Src/usbh_core.c ****   * @retval USBH Status
 401:Middlewares/ST/STM32_USB_Host_Library/Core/Src/usbh_core.c ****   */
 402:Middlewares/ST/STM32_USB_Host_Library/Core/Src/usbh_core.c **** USBH_StatusTypeDef  USBH_Start(USBH_HandleTypeDef *phost)
 403:Middlewares/ST/STM32_USB_Host_Library/Core/Src/usbh_core.c **** {
 404:Middlewares/ST/STM32_USB_Host_Library/Core/Src/usbh_core.c ****   /* Start the low level driver  */
 405:Middlewares/ST/STM32_USB_Host_Library/Core/Src/usbh_core.c ****   (void)USBH_LL_Start(phost);
 406:Middlewares/ST/STM32_USB_Host_Library/Core/Src/usbh_core.c **** 
 407:Middlewares/ST/STM32_USB_Host_Library/Core/Src/usbh_core.c ****   /* Activate VBUS on the port */
 408:Middlewares/ST/STM32_USB_Host_Library/Core/Src/usbh_core.c ****   (void)USBH_LL_DriverVBUS(phost, TRUE);
 409:Middlewares/ST/STM32_USB_Host_Library/Core/Src/usbh_core.c **** 
 410:Middlewares/ST/STM32_USB_Host_Library/Core/Src/usbh_core.c ****   return USBH_OK;
 411:Middlewares/ST/STM32_USB_Host_Library/Core/Src/usbh_core.c **** }
 412:Middlewares/ST/STM32_USB_Host_Library/Core/Src/usbh_core.c **** 
 413:Middlewares/ST/STM32_USB_Host_Library/Core/Src/usbh_core.c **** 
 414:Middlewares/ST/STM32_USB_Host_Library/Core/Src/usbh_core.c **** /**
 415:Middlewares/ST/STM32_USB_Host_Library/Core/Src/usbh_core.c ****   * @brief  USBH_Stop
 416:Middlewares/ST/STM32_USB_Host_Library/Core/Src/usbh_core.c ****   *         Stop the USB Host Core.
 417:Middlewares/ST/STM32_USB_Host_Library/Core/Src/usbh_core.c ****   * @param  phost: Host Handle
 418:Middlewares/ST/STM32_USB_Host_Library/Core/Src/usbh_core.c ****   * @retval USBH Status
 419:Middlewares/ST/STM32_USB_Host_Library/Core/Src/usbh_core.c ****   */
 420:Middlewares/ST/STM32_USB_Host_Library/Core/Src/usbh_core.c **** USBH_StatusTypeDef  USBH_Stop(USBH_HandleTypeDef *phost)
 421:Middlewares/ST/STM32_USB_Host_Library/Core/Src/usbh_core.c **** {
 422:Middlewares/ST/STM32_USB_Host_Library/Core/Src/usbh_core.c ****   /* DeActivate VBUS on the port */
ARM GAS  /tmp/ccKRVJ90.s 			page 11


 423:Middlewares/ST/STM32_USB_Host_Library/Core/Src/usbh_core.c ****   (void)USBH_LL_DriverVBUS(phost, FALSE);
 424:Middlewares/ST/STM32_USB_Host_Library/Core/Src/usbh_core.c **** 
 425:Middlewares/ST/STM32_USB_Host_Library/Core/Src/usbh_core.c ****   /* Stop and cleanup the low level driver  */
 426:Middlewares/ST/STM32_USB_Host_Library/Core/Src/usbh_core.c ****   (void)USBH_LL_Stop(phost);
 427:Middlewares/ST/STM32_USB_Host_Library/Core/Src/usbh_core.c **** 
 428:Middlewares/ST/STM32_USB_Host_Library/Core/Src/usbh_core.c ****   /* Free Control Pipes */
 429:Middlewares/ST/STM32_USB_Host_Library/Core/Src/usbh_core.c ****   (void)USBH_FreePipe(phost, phost->Control.pipe_in);
 430:Middlewares/ST/STM32_USB_Host_Library/Core/Src/usbh_core.c ****   (void)USBH_FreePipe(phost, phost->Control.pipe_out);
 431:Middlewares/ST/STM32_USB_Host_Library/Core/Src/usbh_core.c **** 
 432:Middlewares/ST/STM32_USB_Host_Library/Core/Src/usbh_core.c ****   return USBH_OK;
 433:Middlewares/ST/STM32_USB_Host_Library/Core/Src/usbh_core.c **** }
 434:Middlewares/ST/STM32_USB_Host_Library/Core/Src/usbh_core.c **** 
 435:Middlewares/ST/STM32_USB_Host_Library/Core/Src/usbh_core.c **** 
 436:Middlewares/ST/STM32_USB_Host_Library/Core/Src/usbh_core.c **** /**
 437:Middlewares/ST/STM32_USB_Host_Library/Core/Src/usbh_core.c ****   * @brief  HCD_ReEnumerate
 438:Middlewares/ST/STM32_USB_Host_Library/Core/Src/usbh_core.c ****   *         Perform a new Enumeration phase.
 439:Middlewares/ST/STM32_USB_Host_Library/Core/Src/usbh_core.c ****   * @param  phost: Host Handle
 440:Middlewares/ST/STM32_USB_Host_Library/Core/Src/usbh_core.c ****   * @retval USBH Status
 441:Middlewares/ST/STM32_USB_Host_Library/Core/Src/usbh_core.c ****   */
 442:Middlewares/ST/STM32_USB_Host_Library/Core/Src/usbh_core.c **** USBH_StatusTypeDef USBH_ReEnumerate(USBH_HandleTypeDef *phost)
 443:Middlewares/ST/STM32_USB_Host_Library/Core/Src/usbh_core.c **** {
 444:Middlewares/ST/STM32_USB_Host_Library/Core/Src/usbh_core.c ****   if (USBH_IsPortEnabled(phost) != 0U)
 445:Middlewares/ST/STM32_USB_Host_Library/Core/Src/usbh_core.c ****   {
 446:Middlewares/ST/STM32_USB_Host_Library/Core/Src/usbh_core.c ****     phost->device.is_ReEnumerated = 1U;
 447:Middlewares/ST/STM32_USB_Host_Library/Core/Src/usbh_core.c **** 
 448:Middlewares/ST/STM32_USB_Host_Library/Core/Src/usbh_core.c ****     /* Stop Host */
 449:Middlewares/ST/STM32_USB_Host_Library/Core/Src/usbh_core.c ****     (void)USBH_Stop(phost);
 450:Middlewares/ST/STM32_USB_Host_Library/Core/Src/usbh_core.c **** 
 451:Middlewares/ST/STM32_USB_Host_Library/Core/Src/usbh_core.c ****     phost->device.is_disconnected = 1U;
 452:Middlewares/ST/STM32_USB_Host_Library/Core/Src/usbh_core.c ****   }
 453:Middlewares/ST/STM32_USB_Host_Library/Core/Src/usbh_core.c **** 
 454:Middlewares/ST/STM32_USB_Host_Library/Core/Src/usbh_core.c **** #if (USBH_USE_OS == 1U)
 455:Middlewares/ST/STM32_USB_Host_Library/Core/Src/usbh_core.c ****   phost->os_msg = (uint32_t)USBH_PORT_EVENT;
 456:Middlewares/ST/STM32_USB_Host_Library/Core/Src/usbh_core.c **** #if (osCMSIS < 0x20000U)
 457:Middlewares/ST/STM32_USB_Host_Library/Core/Src/usbh_core.c ****   (void)osMessagePut(phost->os_event, phost->os_msg, 0U);
 458:Middlewares/ST/STM32_USB_Host_Library/Core/Src/usbh_core.c **** #else
 459:Middlewares/ST/STM32_USB_Host_Library/Core/Src/usbh_core.c ****   (void)osMessageQueuePut(phost->os_event, &phost->os_msg, 0U, 0U);
 460:Middlewares/ST/STM32_USB_Host_Library/Core/Src/usbh_core.c **** #endif
 461:Middlewares/ST/STM32_USB_Host_Library/Core/Src/usbh_core.c **** #endif
 462:Middlewares/ST/STM32_USB_Host_Library/Core/Src/usbh_core.c **** 
 463:Middlewares/ST/STM32_USB_Host_Library/Core/Src/usbh_core.c ****   return USBH_OK;
 464:Middlewares/ST/STM32_USB_Host_Library/Core/Src/usbh_core.c **** }
 465:Middlewares/ST/STM32_USB_Host_Library/Core/Src/usbh_core.c **** 
 466:Middlewares/ST/STM32_USB_Host_Library/Core/Src/usbh_core.c **** 
 467:Middlewares/ST/STM32_USB_Host_Library/Core/Src/usbh_core.c **** /**
 468:Middlewares/ST/STM32_USB_Host_Library/Core/Src/usbh_core.c ****   * @brief  USBH_Process
 469:Middlewares/ST/STM32_USB_Host_Library/Core/Src/usbh_core.c ****   *         Background process of the USB Core.
 470:Middlewares/ST/STM32_USB_Host_Library/Core/Src/usbh_core.c ****   * @param  phost: Host Handle
 471:Middlewares/ST/STM32_USB_Host_Library/Core/Src/usbh_core.c ****   * @retval USBH Status
 472:Middlewares/ST/STM32_USB_Host_Library/Core/Src/usbh_core.c ****   */
 473:Middlewares/ST/STM32_USB_Host_Library/Core/Src/usbh_core.c **** USBH_StatusTypeDef  USBH_Process(USBH_HandleTypeDef *phost)
 474:Middlewares/ST/STM32_USB_Host_Library/Core/Src/usbh_core.c **** {
 475:Middlewares/ST/STM32_USB_Host_Library/Core/Src/usbh_core.c ****   __IO USBH_StatusTypeDef status = USBH_FAIL;
 476:Middlewares/ST/STM32_USB_Host_Library/Core/Src/usbh_core.c ****   uint8_t idx = 0U;
 477:Middlewares/ST/STM32_USB_Host_Library/Core/Src/usbh_core.c **** 
 478:Middlewares/ST/STM32_USB_Host_Library/Core/Src/usbh_core.c ****   /* check for Host pending port disconnect event */
 479:Middlewares/ST/STM32_USB_Host_Library/Core/Src/usbh_core.c ****   if (phost->device.is_disconnected == 1U)
ARM GAS  /tmp/ccKRVJ90.s 			page 12


 480:Middlewares/ST/STM32_USB_Host_Library/Core/Src/usbh_core.c ****   {
 481:Middlewares/ST/STM32_USB_Host_Library/Core/Src/usbh_core.c ****     phost->gState = HOST_DEV_DISCONNECTED;
 482:Middlewares/ST/STM32_USB_Host_Library/Core/Src/usbh_core.c ****   }
 483:Middlewares/ST/STM32_USB_Host_Library/Core/Src/usbh_core.c **** 
 484:Middlewares/ST/STM32_USB_Host_Library/Core/Src/usbh_core.c ****   switch (phost->gState)
 485:Middlewares/ST/STM32_USB_Host_Library/Core/Src/usbh_core.c ****   {
 486:Middlewares/ST/STM32_USB_Host_Library/Core/Src/usbh_core.c ****     case HOST_IDLE :
 487:Middlewares/ST/STM32_USB_Host_Library/Core/Src/usbh_core.c **** 
 488:Middlewares/ST/STM32_USB_Host_Library/Core/Src/usbh_core.c ****       if ((phost->device.is_connected) != 0U)
 489:Middlewares/ST/STM32_USB_Host_Library/Core/Src/usbh_core.c ****       {
 490:Middlewares/ST/STM32_USB_Host_Library/Core/Src/usbh_core.c ****         USBH_UsrLog("USB Device Connected");
 491:Middlewares/ST/STM32_USB_Host_Library/Core/Src/usbh_core.c **** 
 492:Middlewares/ST/STM32_USB_Host_Library/Core/Src/usbh_core.c ****         /* Wait for 200 ms after connection */
 493:Middlewares/ST/STM32_USB_Host_Library/Core/Src/usbh_core.c ****         phost->gState = HOST_DEV_WAIT_FOR_ATTACHMENT;
 494:Middlewares/ST/STM32_USB_Host_Library/Core/Src/usbh_core.c ****         USBH_Delay(200U);
 495:Middlewares/ST/STM32_USB_Host_Library/Core/Src/usbh_core.c ****         (void)USBH_LL_ResetPort(phost);
 496:Middlewares/ST/STM32_USB_Host_Library/Core/Src/usbh_core.c **** 
 497:Middlewares/ST/STM32_USB_Host_Library/Core/Src/usbh_core.c ****         /* Make sure to start with Default address */
 498:Middlewares/ST/STM32_USB_Host_Library/Core/Src/usbh_core.c ****         phost->device.address = USBH_ADDRESS_DEFAULT;
 499:Middlewares/ST/STM32_USB_Host_Library/Core/Src/usbh_core.c ****         phost->Timeout = 0U;
 500:Middlewares/ST/STM32_USB_Host_Library/Core/Src/usbh_core.c **** 
 501:Middlewares/ST/STM32_USB_Host_Library/Core/Src/usbh_core.c **** #if (USBH_USE_OS == 1U)
 502:Middlewares/ST/STM32_USB_Host_Library/Core/Src/usbh_core.c ****         phost->os_msg = (uint32_t)USBH_PORT_EVENT;
 503:Middlewares/ST/STM32_USB_Host_Library/Core/Src/usbh_core.c **** #if (osCMSIS < 0x20000U)
 504:Middlewares/ST/STM32_USB_Host_Library/Core/Src/usbh_core.c ****         (void)osMessagePut(phost->os_event, phost->os_msg, 0U);
 505:Middlewares/ST/STM32_USB_Host_Library/Core/Src/usbh_core.c **** #else
 506:Middlewares/ST/STM32_USB_Host_Library/Core/Src/usbh_core.c ****         (void)osMessageQueuePut(phost->os_event, &phost->os_msg, 0U, 0U);
 507:Middlewares/ST/STM32_USB_Host_Library/Core/Src/usbh_core.c **** #endif
 508:Middlewares/ST/STM32_USB_Host_Library/Core/Src/usbh_core.c **** #endif
 509:Middlewares/ST/STM32_USB_Host_Library/Core/Src/usbh_core.c ****       }
 510:Middlewares/ST/STM32_USB_Host_Library/Core/Src/usbh_core.c ****       break;
 511:Middlewares/ST/STM32_USB_Host_Library/Core/Src/usbh_core.c **** 
 512:Middlewares/ST/STM32_USB_Host_Library/Core/Src/usbh_core.c ****     case HOST_DEV_WAIT_FOR_ATTACHMENT: /* Wait for Port Enabled */
 513:Middlewares/ST/STM32_USB_Host_Library/Core/Src/usbh_core.c **** 
 514:Middlewares/ST/STM32_USB_Host_Library/Core/Src/usbh_core.c ****       if (phost->device.PortEnabled == 1U)
 515:Middlewares/ST/STM32_USB_Host_Library/Core/Src/usbh_core.c ****       {
 516:Middlewares/ST/STM32_USB_Host_Library/Core/Src/usbh_core.c ****         USBH_UsrLog("USB Device Reset Completed");
 517:Middlewares/ST/STM32_USB_Host_Library/Core/Src/usbh_core.c ****         phost->device.RstCnt = 0U;
 518:Middlewares/ST/STM32_USB_Host_Library/Core/Src/usbh_core.c ****         phost->gState = HOST_DEV_ATTACHED;
 519:Middlewares/ST/STM32_USB_Host_Library/Core/Src/usbh_core.c ****       }
 520:Middlewares/ST/STM32_USB_Host_Library/Core/Src/usbh_core.c ****       else
 521:Middlewares/ST/STM32_USB_Host_Library/Core/Src/usbh_core.c ****       {
 522:Middlewares/ST/STM32_USB_Host_Library/Core/Src/usbh_core.c ****         if (phost->Timeout > USBH_DEV_RESET_TIMEOUT)
 523:Middlewares/ST/STM32_USB_Host_Library/Core/Src/usbh_core.c ****         {
 524:Middlewares/ST/STM32_USB_Host_Library/Core/Src/usbh_core.c ****           phost->device.RstCnt++;
 525:Middlewares/ST/STM32_USB_Host_Library/Core/Src/usbh_core.c ****           if (phost->device.RstCnt > 3U)
 526:Middlewares/ST/STM32_USB_Host_Library/Core/Src/usbh_core.c ****           {
 527:Middlewares/ST/STM32_USB_Host_Library/Core/Src/usbh_core.c ****             /* Buggy Device can't complete reset */
 528:Middlewares/ST/STM32_USB_Host_Library/Core/Src/usbh_core.c ****             USBH_UsrLog("USB Reset Failed, Please unplug the Device.");
 529:Middlewares/ST/STM32_USB_Host_Library/Core/Src/usbh_core.c ****             phost->gState = HOST_ABORT_STATE;
 530:Middlewares/ST/STM32_USB_Host_Library/Core/Src/usbh_core.c ****           }
 531:Middlewares/ST/STM32_USB_Host_Library/Core/Src/usbh_core.c ****           else
 532:Middlewares/ST/STM32_USB_Host_Library/Core/Src/usbh_core.c ****           {
 533:Middlewares/ST/STM32_USB_Host_Library/Core/Src/usbh_core.c ****             phost->gState = HOST_IDLE;
 534:Middlewares/ST/STM32_USB_Host_Library/Core/Src/usbh_core.c ****           }
 535:Middlewares/ST/STM32_USB_Host_Library/Core/Src/usbh_core.c ****         }
 536:Middlewares/ST/STM32_USB_Host_Library/Core/Src/usbh_core.c ****         else
ARM GAS  /tmp/ccKRVJ90.s 			page 13


 537:Middlewares/ST/STM32_USB_Host_Library/Core/Src/usbh_core.c ****         {
 538:Middlewares/ST/STM32_USB_Host_Library/Core/Src/usbh_core.c ****           phost->Timeout += 10U;
 539:Middlewares/ST/STM32_USB_Host_Library/Core/Src/usbh_core.c ****           USBH_Delay(10U);
 540:Middlewares/ST/STM32_USB_Host_Library/Core/Src/usbh_core.c ****         }
 541:Middlewares/ST/STM32_USB_Host_Library/Core/Src/usbh_core.c ****       }
 542:Middlewares/ST/STM32_USB_Host_Library/Core/Src/usbh_core.c **** #if (USBH_USE_OS == 1U)
 543:Middlewares/ST/STM32_USB_Host_Library/Core/Src/usbh_core.c ****       phost->os_msg = (uint32_t)USBH_PORT_EVENT;
 544:Middlewares/ST/STM32_USB_Host_Library/Core/Src/usbh_core.c **** #if (osCMSIS < 0x20000U)
 545:Middlewares/ST/STM32_USB_Host_Library/Core/Src/usbh_core.c ****       (void)osMessagePut(phost->os_event, phost->os_msg, 0U);
 546:Middlewares/ST/STM32_USB_Host_Library/Core/Src/usbh_core.c **** #else
 547:Middlewares/ST/STM32_USB_Host_Library/Core/Src/usbh_core.c ****       (void)osMessageQueuePut(phost->os_event, &phost->os_msg, 0U, 0U);
 548:Middlewares/ST/STM32_USB_Host_Library/Core/Src/usbh_core.c **** #endif
 549:Middlewares/ST/STM32_USB_Host_Library/Core/Src/usbh_core.c **** #endif
 550:Middlewares/ST/STM32_USB_Host_Library/Core/Src/usbh_core.c ****       break;
 551:Middlewares/ST/STM32_USB_Host_Library/Core/Src/usbh_core.c **** 
 552:Middlewares/ST/STM32_USB_Host_Library/Core/Src/usbh_core.c ****     case HOST_DEV_ATTACHED :
 553:Middlewares/ST/STM32_USB_Host_Library/Core/Src/usbh_core.c **** 
 554:Middlewares/ST/STM32_USB_Host_Library/Core/Src/usbh_core.c ****       if (phost->pUser != NULL)
 555:Middlewares/ST/STM32_USB_Host_Library/Core/Src/usbh_core.c ****       {
 556:Middlewares/ST/STM32_USB_Host_Library/Core/Src/usbh_core.c ****         phost->pUser(phost, HOST_USER_CONNECTION);
 557:Middlewares/ST/STM32_USB_Host_Library/Core/Src/usbh_core.c ****       }
 558:Middlewares/ST/STM32_USB_Host_Library/Core/Src/usbh_core.c **** 
 559:Middlewares/ST/STM32_USB_Host_Library/Core/Src/usbh_core.c ****       /* Wait for 100 ms after Reset */
 560:Middlewares/ST/STM32_USB_Host_Library/Core/Src/usbh_core.c ****       USBH_Delay(100U);
 561:Middlewares/ST/STM32_USB_Host_Library/Core/Src/usbh_core.c **** 
 562:Middlewares/ST/STM32_USB_Host_Library/Core/Src/usbh_core.c ****       phost->device.speed = (uint8_t)USBH_LL_GetSpeed(phost);
 563:Middlewares/ST/STM32_USB_Host_Library/Core/Src/usbh_core.c **** 
 564:Middlewares/ST/STM32_USB_Host_Library/Core/Src/usbh_core.c ****       phost->gState = HOST_ENUMERATION;
 565:Middlewares/ST/STM32_USB_Host_Library/Core/Src/usbh_core.c **** 
 566:Middlewares/ST/STM32_USB_Host_Library/Core/Src/usbh_core.c ****       phost->Control.pipe_out = USBH_AllocPipe(phost, 0x00U);
 567:Middlewares/ST/STM32_USB_Host_Library/Core/Src/usbh_core.c ****       phost->Control.pipe_in  = USBH_AllocPipe(phost, 0x80U);
 568:Middlewares/ST/STM32_USB_Host_Library/Core/Src/usbh_core.c **** 
 569:Middlewares/ST/STM32_USB_Host_Library/Core/Src/usbh_core.c ****       /* Open Control pipes */
 570:Middlewares/ST/STM32_USB_Host_Library/Core/Src/usbh_core.c ****       (void)USBH_OpenPipe(phost, phost->Control.pipe_in, 0x80U,
 571:Middlewares/ST/STM32_USB_Host_Library/Core/Src/usbh_core.c ****                           phost->device.address, phost->device.speed,
 572:Middlewares/ST/STM32_USB_Host_Library/Core/Src/usbh_core.c ****                           USBH_EP_CONTROL, (uint16_t)phost->Control.pipe_size);
 573:Middlewares/ST/STM32_USB_Host_Library/Core/Src/usbh_core.c **** 
 574:Middlewares/ST/STM32_USB_Host_Library/Core/Src/usbh_core.c ****       /* Open Control pipes */
 575:Middlewares/ST/STM32_USB_Host_Library/Core/Src/usbh_core.c ****       (void)USBH_OpenPipe(phost, phost->Control.pipe_out, 0x00U,
 576:Middlewares/ST/STM32_USB_Host_Library/Core/Src/usbh_core.c ****                           phost->device.address, phost->device.speed,
 577:Middlewares/ST/STM32_USB_Host_Library/Core/Src/usbh_core.c ****                           USBH_EP_CONTROL, (uint16_t)phost->Control.pipe_size);
 578:Middlewares/ST/STM32_USB_Host_Library/Core/Src/usbh_core.c **** 
 579:Middlewares/ST/STM32_USB_Host_Library/Core/Src/usbh_core.c **** #if (USBH_USE_OS == 1U)
 580:Middlewares/ST/STM32_USB_Host_Library/Core/Src/usbh_core.c ****       phost->os_msg = (uint32_t)USBH_PORT_EVENT;
 581:Middlewares/ST/STM32_USB_Host_Library/Core/Src/usbh_core.c **** #if (osCMSIS < 0x20000U)
 582:Middlewares/ST/STM32_USB_Host_Library/Core/Src/usbh_core.c ****       (void)osMessagePut(phost->os_event, phost->os_msg, 0U);
 583:Middlewares/ST/STM32_USB_Host_Library/Core/Src/usbh_core.c **** #else
 584:Middlewares/ST/STM32_USB_Host_Library/Core/Src/usbh_core.c ****       (void)osMessageQueuePut(phost->os_event, &phost->os_msg, 0U, 0U);
 585:Middlewares/ST/STM32_USB_Host_Library/Core/Src/usbh_core.c **** #endif
 586:Middlewares/ST/STM32_USB_Host_Library/Core/Src/usbh_core.c **** #endif
 587:Middlewares/ST/STM32_USB_Host_Library/Core/Src/usbh_core.c ****       break;
 588:Middlewares/ST/STM32_USB_Host_Library/Core/Src/usbh_core.c **** 
 589:Middlewares/ST/STM32_USB_Host_Library/Core/Src/usbh_core.c ****     case HOST_ENUMERATION:
 590:Middlewares/ST/STM32_USB_Host_Library/Core/Src/usbh_core.c ****       /* Check for enumeration status */
 591:Middlewares/ST/STM32_USB_Host_Library/Core/Src/usbh_core.c ****       status = USBH_HandleEnum(phost);
 592:Middlewares/ST/STM32_USB_Host_Library/Core/Src/usbh_core.c ****       if (status == USBH_OK)
 593:Middlewares/ST/STM32_USB_Host_Library/Core/Src/usbh_core.c ****       {
ARM GAS  /tmp/ccKRVJ90.s 			page 14


 594:Middlewares/ST/STM32_USB_Host_Library/Core/Src/usbh_core.c ****         /* The function shall return USBH_OK when full enumeration is complete */
 595:Middlewares/ST/STM32_USB_Host_Library/Core/Src/usbh_core.c ****         USBH_UsrLog("Enumeration done.");
 596:Middlewares/ST/STM32_USB_Host_Library/Core/Src/usbh_core.c **** 
 597:Middlewares/ST/STM32_USB_Host_Library/Core/Src/usbh_core.c ****         phost->device.current_interface = 0U;
 598:Middlewares/ST/STM32_USB_Host_Library/Core/Src/usbh_core.c **** 
 599:Middlewares/ST/STM32_USB_Host_Library/Core/Src/usbh_core.c ****         if (phost->device.DevDesc.bNumConfigurations == 1U)
 600:Middlewares/ST/STM32_USB_Host_Library/Core/Src/usbh_core.c ****         {
 601:Middlewares/ST/STM32_USB_Host_Library/Core/Src/usbh_core.c ****           USBH_UsrLog("This device has only 1 configuration.");
 602:Middlewares/ST/STM32_USB_Host_Library/Core/Src/usbh_core.c ****           phost->gState = HOST_SET_CONFIGURATION;
 603:Middlewares/ST/STM32_USB_Host_Library/Core/Src/usbh_core.c ****         }
 604:Middlewares/ST/STM32_USB_Host_Library/Core/Src/usbh_core.c ****         else
 605:Middlewares/ST/STM32_USB_Host_Library/Core/Src/usbh_core.c ****         {
 606:Middlewares/ST/STM32_USB_Host_Library/Core/Src/usbh_core.c ****           phost->gState = HOST_INPUT;
 607:Middlewares/ST/STM32_USB_Host_Library/Core/Src/usbh_core.c ****         }
 608:Middlewares/ST/STM32_USB_Host_Library/Core/Src/usbh_core.c **** #if (USBH_USE_OS == 1U)
 609:Middlewares/ST/STM32_USB_Host_Library/Core/Src/usbh_core.c ****         phost->os_msg = (uint32_t)USBH_STATE_CHANGED_EVENT;
 610:Middlewares/ST/STM32_USB_Host_Library/Core/Src/usbh_core.c **** #if (osCMSIS < 0x20000U)
 611:Middlewares/ST/STM32_USB_Host_Library/Core/Src/usbh_core.c ****         (void)osMessagePut(phost->os_event, phost->os_msg, 0U);
 612:Middlewares/ST/STM32_USB_Host_Library/Core/Src/usbh_core.c **** #else
 613:Middlewares/ST/STM32_USB_Host_Library/Core/Src/usbh_core.c ****         (void)osMessageQueuePut(phost->os_event, &phost->os_msg, 0U, 0U);
 614:Middlewares/ST/STM32_USB_Host_Library/Core/Src/usbh_core.c **** #endif
 615:Middlewares/ST/STM32_USB_Host_Library/Core/Src/usbh_core.c **** #endif
 616:Middlewares/ST/STM32_USB_Host_Library/Core/Src/usbh_core.c ****       }
 617:Middlewares/ST/STM32_USB_Host_Library/Core/Src/usbh_core.c ****       break;
 618:Middlewares/ST/STM32_USB_Host_Library/Core/Src/usbh_core.c **** 
 619:Middlewares/ST/STM32_USB_Host_Library/Core/Src/usbh_core.c ****     case HOST_INPUT:
 620:Middlewares/ST/STM32_USB_Host_Library/Core/Src/usbh_core.c ****     {
 621:Middlewares/ST/STM32_USB_Host_Library/Core/Src/usbh_core.c ****       /* user callback for end of device basic enumeration */
 622:Middlewares/ST/STM32_USB_Host_Library/Core/Src/usbh_core.c ****       if (phost->pUser != NULL)
 623:Middlewares/ST/STM32_USB_Host_Library/Core/Src/usbh_core.c ****       {
 624:Middlewares/ST/STM32_USB_Host_Library/Core/Src/usbh_core.c ****         phost->pUser(phost, HOST_USER_SELECT_CONFIGURATION);
 625:Middlewares/ST/STM32_USB_Host_Library/Core/Src/usbh_core.c ****         phost->gState = HOST_SET_CONFIGURATION;
 626:Middlewares/ST/STM32_USB_Host_Library/Core/Src/usbh_core.c **** 
 627:Middlewares/ST/STM32_USB_Host_Library/Core/Src/usbh_core.c **** #if (USBH_USE_OS == 1U)
 628:Middlewares/ST/STM32_USB_Host_Library/Core/Src/usbh_core.c ****         phost->os_msg = (uint32_t)USBH_STATE_CHANGED_EVENT;
 629:Middlewares/ST/STM32_USB_Host_Library/Core/Src/usbh_core.c **** #if (osCMSIS < 0x20000U)
 630:Middlewares/ST/STM32_USB_Host_Library/Core/Src/usbh_core.c ****         (void)osMessagePut(phost->os_event, phost->os_msg, 0U);
 631:Middlewares/ST/STM32_USB_Host_Library/Core/Src/usbh_core.c **** #else
 632:Middlewares/ST/STM32_USB_Host_Library/Core/Src/usbh_core.c ****         (void)osMessageQueuePut(phost->os_event, &phost->os_msg, 0U, 0U);
 633:Middlewares/ST/STM32_USB_Host_Library/Core/Src/usbh_core.c **** #endif
 634:Middlewares/ST/STM32_USB_Host_Library/Core/Src/usbh_core.c **** #endif
 635:Middlewares/ST/STM32_USB_Host_Library/Core/Src/usbh_core.c ****       }
 636:Middlewares/ST/STM32_USB_Host_Library/Core/Src/usbh_core.c ****     }
 637:Middlewares/ST/STM32_USB_Host_Library/Core/Src/usbh_core.c ****     break;
 638:Middlewares/ST/STM32_USB_Host_Library/Core/Src/usbh_core.c **** 
 639:Middlewares/ST/STM32_USB_Host_Library/Core/Src/usbh_core.c ****     case HOST_SET_CONFIGURATION:
 640:Middlewares/ST/STM32_USB_Host_Library/Core/Src/usbh_core.c ****       /* set configuration */
 641:Middlewares/ST/STM32_USB_Host_Library/Core/Src/usbh_core.c ****       if (USBH_SetCfg(phost, (uint16_t)phost->device.CfgDesc.bConfigurationValue) == USBH_OK)
 642:Middlewares/ST/STM32_USB_Host_Library/Core/Src/usbh_core.c ****       {
 643:Middlewares/ST/STM32_USB_Host_Library/Core/Src/usbh_core.c ****         phost->gState = HOST_SET_WAKEUP_FEATURE;
 644:Middlewares/ST/STM32_USB_Host_Library/Core/Src/usbh_core.c ****         USBH_UsrLog("Default configuration set.");
 645:Middlewares/ST/STM32_USB_Host_Library/Core/Src/usbh_core.c ****       }
 646:Middlewares/ST/STM32_USB_Host_Library/Core/Src/usbh_core.c **** 
 647:Middlewares/ST/STM32_USB_Host_Library/Core/Src/usbh_core.c **** #if (USBH_USE_OS == 1U)
 648:Middlewares/ST/STM32_USB_Host_Library/Core/Src/usbh_core.c ****       phost->os_msg = (uint32_t)USBH_PORT_EVENT;
 649:Middlewares/ST/STM32_USB_Host_Library/Core/Src/usbh_core.c **** #if (osCMSIS < 0x20000U)
 650:Middlewares/ST/STM32_USB_Host_Library/Core/Src/usbh_core.c ****       (void)osMessagePut(phost->os_event, phost->os_msg, 0U);
ARM GAS  /tmp/ccKRVJ90.s 			page 15


 651:Middlewares/ST/STM32_USB_Host_Library/Core/Src/usbh_core.c **** #else
 652:Middlewares/ST/STM32_USB_Host_Library/Core/Src/usbh_core.c ****       (void)osMessageQueuePut(phost->os_event, &phost->os_msg, 0U, 0U);
 653:Middlewares/ST/STM32_USB_Host_Library/Core/Src/usbh_core.c **** #endif
 654:Middlewares/ST/STM32_USB_Host_Library/Core/Src/usbh_core.c **** #endif
 655:Middlewares/ST/STM32_USB_Host_Library/Core/Src/usbh_core.c ****       break;
 656:Middlewares/ST/STM32_USB_Host_Library/Core/Src/usbh_core.c **** 
 657:Middlewares/ST/STM32_USB_Host_Library/Core/Src/usbh_core.c ****     case  HOST_SET_WAKEUP_FEATURE:
 658:Middlewares/ST/STM32_USB_Host_Library/Core/Src/usbh_core.c **** 
 659:Middlewares/ST/STM32_USB_Host_Library/Core/Src/usbh_core.c ****       if (((phost->device.CfgDesc.bmAttributes) & (1U << 5)) != 0U)
 660:Middlewares/ST/STM32_USB_Host_Library/Core/Src/usbh_core.c ****       {
 661:Middlewares/ST/STM32_USB_Host_Library/Core/Src/usbh_core.c ****         status = USBH_SetFeature(phost, FEATURE_SELECTOR_REMOTEWAKEUP);
 662:Middlewares/ST/STM32_USB_Host_Library/Core/Src/usbh_core.c **** 
 663:Middlewares/ST/STM32_USB_Host_Library/Core/Src/usbh_core.c ****         if (status == USBH_OK)
 664:Middlewares/ST/STM32_USB_Host_Library/Core/Src/usbh_core.c ****         {
 665:Middlewares/ST/STM32_USB_Host_Library/Core/Src/usbh_core.c ****           USBH_UsrLog("Device remote wakeup enabled");
 666:Middlewares/ST/STM32_USB_Host_Library/Core/Src/usbh_core.c ****           phost->gState = HOST_CHECK_CLASS;
 667:Middlewares/ST/STM32_USB_Host_Library/Core/Src/usbh_core.c ****         }
 668:Middlewares/ST/STM32_USB_Host_Library/Core/Src/usbh_core.c ****         else if (status == USBH_NOT_SUPPORTED)
 669:Middlewares/ST/STM32_USB_Host_Library/Core/Src/usbh_core.c ****         {
 670:Middlewares/ST/STM32_USB_Host_Library/Core/Src/usbh_core.c ****           USBH_UsrLog("Remote wakeup not supported by the device");
 671:Middlewares/ST/STM32_USB_Host_Library/Core/Src/usbh_core.c ****           phost->gState = HOST_CHECK_CLASS;
 672:Middlewares/ST/STM32_USB_Host_Library/Core/Src/usbh_core.c ****         }
 673:Middlewares/ST/STM32_USB_Host_Library/Core/Src/usbh_core.c ****         else
 674:Middlewares/ST/STM32_USB_Host_Library/Core/Src/usbh_core.c ****         {
 675:Middlewares/ST/STM32_USB_Host_Library/Core/Src/usbh_core.c ****           /* .. */
 676:Middlewares/ST/STM32_USB_Host_Library/Core/Src/usbh_core.c ****         }
 677:Middlewares/ST/STM32_USB_Host_Library/Core/Src/usbh_core.c ****       }
 678:Middlewares/ST/STM32_USB_Host_Library/Core/Src/usbh_core.c ****       else
 679:Middlewares/ST/STM32_USB_Host_Library/Core/Src/usbh_core.c ****       {
 680:Middlewares/ST/STM32_USB_Host_Library/Core/Src/usbh_core.c ****         phost->gState = HOST_CHECK_CLASS;
 681:Middlewares/ST/STM32_USB_Host_Library/Core/Src/usbh_core.c ****       }
 682:Middlewares/ST/STM32_USB_Host_Library/Core/Src/usbh_core.c **** 
 683:Middlewares/ST/STM32_USB_Host_Library/Core/Src/usbh_core.c **** #if (USBH_USE_OS == 1U)
 684:Middlewares/ST/STM32_USB_Host_Library/Core/Src/usbh_core.c ****       phost->os_msg = (uint32_t)USBH_PORT_EVENT;
 685:Middlewares/ST/STM32_USB_Host_Library/Core/Src/usbh_core.c **** #if (osCMSIS < 0x20000U)
 686:Middlewares/ST/STM32_USB_Host_Library/Core/Src/usbh_core.c ****       (void)osMessagePut(phost->os_event, phost->os_msg, 0U);
 687:Middlewares/ST/STM32_USB_Host_Library/Core/Src/usbh_core.c **** #else
 688:Middlewares/ST/STM32_USB_Host_Library/Core/Src/usbh_core.c ****       (void)osMessageQueuePut(phost->os_event, &phost->os_msg, 0U, 0U);
 689:Middlewares/ST/STM32_USB_Host_Library/Core/Src/usbh_core.c **** #endif
 690:Middlewares/ST/STM32_USB_Host_Library/Core/Src/usbh_core.c **** #endif
 691:Middlewares/ST/STM32_USB_Host_Library/Core/Src/usbh_core.c ****       break;
 692:Middlewares/ST/STM32_USB_Host_Library/Core/Src/usbh_core.c **** 
 693:Middlewares/ST/STM32_USB_Host_Library/Core/Src/usbh_core.c ****     case HOST_CHECK_CLASS:
 694:Middlewares/ST/STM32_USB_Host_Library/Core/Src/usbh_core.c **** 
 695:Middlewares/ST/STM32_USB_Host_Library/Core/Src/usbh_core.c ****       if (phost->ClassNumber == 0U)
 696:Middlewares/ST/STM32_USB_Host_Library/Core/Src/usbh_core.c ****       {
 697:Middlewares/ST/STM32_USB_Host_Library/Core/Src/usbh_core.c ****         USBH_UsrLog("No Class has been registered.");
 698:Middlewares/ST/STM32_USB_Host_Library/Core/Src/usbh_core.c ****       }
 699:Middlewares/ST/STM32_USB_Host_Library/Core/Src/usbh_core.c ****       else
 700:Middlewares/ST/STM32_USB_Host_Library/Core/Src/usbh_core.c ****       {
 701:Middlewares/ST/STM32_USB_Host_Library/Core/Src/usbh_core.c ****         phost->pActiveClass = NULL;
 702:Middlewares/ST/STM32_USB_Host_Library/Core/Src/usbh_core.c **** 
 703:Middlewares/ST/STM32_USB_Host_Library/Core/Src/usbh_core.c ****         for (idx = 0U; idx < USBH_MAX_NUM_SUPPORTED_CLASS; idx++)
 704:Middlewares/ST/STM32_USB_Host_Library/Core/Src/usbh_core.c ****         {
 705:Middlewares/ST/STM32_USB_Host_Library/Core/Src/usbh_core.c ****           if (phost->pClass[idx]->ClassCode == phost->device.CfgDesc.Itf_Desc[0].bInterfaceClass)
 706:Middlewares/ST/STM32_USB_Host_Library/Core/Src/usbh_core.c ****           {
 707:Middlewares/ST/STM32_USB_Host_Library/Core/Src/usbh_core.c ****             phost->pActiveClass = phost->pClass[idx];
ARM GAS  /tmp/ccKRVJ90.s 			page 16


 708:Middlewares/ST/STM32_USB_Host_Library/Core/Src/usbh_core.c ****             break;
 709:Middlewares/ST/STM32_USB_Host_Library/Core/Src/usbh_core.c ****           }
 710:Middlewares/ST/STM32_USB_Host_Library/Core/Src/usbh_core.c ****         }
 711:Middlewares/ST/STM32_USB_Host_Library/Core/Src/usbh_core.c **** 
 712:Middlewares/ST/STM32_USB_Host_Library/Core/Src/usbh_core.c ****         if (phost->pActiveClass != NULL)
 713:Middlewares/ST/STM32_USB_Host_Library/Core/Src/usbh_core.c ****         {
 714:Middlewares/ST/STM32_USB_Host_Library/Core/Src/usbh_core.c ****           if (phost->pActiveClass->Init(phost) == USBH_OK)
 715:Middlewares/ST/STM32_USB_Host_Library/Core/Src/usbh_core.c ****           {
 716:Middlewares/ST/STM32_USB_Host_Library/Core/Src/usbh_core.c ****             phost->gState = HOST_CLASS_REQUEST;
 717:Middlewares/ST/STM32_USB_Host_Library/Core/Src/usbh_core.c ****             USBH_UsrLog("%s class started.", phost->pActiveClass->Name);
 718:Middlewares/ST/STM32_USB_Host_Library/Core/Src/usbh_core.c **** 
 719:Middlewares/ST/STM32_USB_Host_Library/Core/Src/usbh_core.c ****             /* Inform user that a class has been activated */
 720:Middlewares/ST/STM32_USB_Host_Library/Core/Src/usbh_core.c ****             phost->pUser(phost, HOST_USER_CLASS_SELECTED);
 721:Middlewares/ST/STM32_USB_Host_Library/Core/Src/usbh_core.c ****           }
 722:Middlewares/ST/STM32_USB_Host_Library/Core/Src/usbh_core.c ****           else
 723:Middlewares/ST/STM32_USB_Host_Library/Core/Src/usbh_core.c ****           {
 724:Middlewares/ST/STM32_USB_Host_Library/Core/Src/usbh_core.c ****             phost->gState = HOST_ABORT_STATE;
 725:Middlewares/ST/STM32_USB_Host_Library/Core/Src/usbh_core.c ****             USBH_UsrLog("Device not supporting %s class.", phost->pActiveClass->Name);
 726:Middlewares/ST/STM32_USB_Host_Library/Core/Src/usbh_core.c ****           }
 727:Middlewares/ST/STM32_USB_Host_Library/Core/Src/usbh_core.c ****         }
 728:Middlewares/ST/STM32_USB_Host_Library/Core/Src/usbh_core.c ****         else
 729:Middlewares/ST/STM32_USB_Host_Library/Core/Src/usbh_core.c ****         {
 730:Middlewares/ST/STM32_USB_Host_Library/Core/Src/usbh_core.c ****           phost->gState = HOST_ABORT_STATE;
 731:Middlewares/ST/STM32_USB_Host_Library/Core/Src/usbh_core.c ****           USBH_UsrLog("No registered class for this device.");
 732:Middlewares/ST/STM32_USB_Host_Library/Core/Src/usbh_core.c ****         }
 733:Middlewares/ST/STM32_USB_Host_Library/Core/Src/usbh_core.c ****       }
 734:Middlewares/ST/STM32_USB_Host_Library/Core/Src/usbh_core.c **** 
 735:Middlewares/ST/STM32_USB_Host_Library/Core/Src/usbh_core.c **** #if (USBH_USE_OS == 1U)
 736:Middlewares/ST/STM32_USB_Host_Library/Core/Src/usbh_core.c ****       phost->os_msg = (uint32_t)USBH_STATE_CHANGED_EVENT;
 737:Middlewares/ST/STM32_USB_Host_Library/Core/Src/usbh_core.c **** #if (osCMSIS < 0x20000U)
 738:Middlewares/ST/STM32_USB_Host_Library/Core/Src/usbh_core.c ****       (void)osMessagePut(phost->os_event, phost->os_msg, 0U);
 739:Middlewares/ST/STM32_USB_Host_Library/Core/Src/usbh_core.c **** #else
 740:Middlewares/ST/STM32_USB_Host_Library/Core/Src/usbh_core.c ****       (void)osMessageQueuePut(phost->os_event, &phost->os_msg, 0U, 0U);
 741:Middlewares/ST/STM32_USB_Host_Library/Core/Src/usbh_core.c **** #endif
 742:Middlewares/ST/STM32_USB_Host_Library/Core/Src/usbh_core.c **** #endif
 743:Middlewares/ST/STM32_USB_Host_Library/Core/Src/usbh_core.c ****       break;
 744:Middlewares/ST/STM32_USB_Host_Library/Core/Src/usbh_core.c **** 
 745:Middlewares/ST/STM32_USB_Host_Library/Core/Src/usbh_core.c ****     case HOST_CLASS_REQUEST:
 746:Middlewares/ST/STM32_USB_Host_Library/Core/Src/usbh_core.c ****       /* process class standard control requests state machine */
 747:Middlewares/ST/STM32_USB_Host_Library/Core/Src/usbh_core.c ****       if (phost->pActiveClass != NULL)
 748:Middlewares/ST/STM32_USB_Host_Library/Core/Src/usbh_core.c ****       {
 749:Middlewares/ST/STM32_USB_Host_Library/Core/Src/usbh_core.c ****         status = phost->pActiveClass->Requests(phost);
 750:Middlewares/ST/STM32_USB_Host_Library/Core/Src/usbh_core.c **** 
 751:Middlewares/ST/STM32_USB_Host_Library/Core/Src/usbh_core.c ****         if (status == USBH_OK)
 752:Middlewares/ST/STM32_USB_Host_Library/Core/Src/usbh_core.c ****         {
 753:Middlewares/ST/STM32_USB_Host_Library/Core/Src/usbh_core.c ****           phost->gState = HOST_CLASS;
 754:Middlewares/ST/STM32_USB_Host_Library/Core/Src/usbh_core.c ****         }
 755:Middlewares/ST/STM32_USB_Host_Library/Core/Src/usbh_core.c ****         else if (status == USBH_FAIL)
 756:Middlewares/ST/STM32_USB_Host_Library/Core/Src/usbh_core.c ****         {
 757:Middlewares/ST/STM32_USB_Host_Library/Core/Src/usbh_core.c ****           phost->gState = HOST_ABORT_STATE;
 758:Middlewares/ST/STM32_USB_Host_Library/Core/Src/usbh_core.c ****           USBH_ErrLog("Device not responding Please Unplug.");
 759:Middlewares/ST/STM32_USB_Host_Library/Core/Src/usbh_core.c ****         }
 760:Middlewares/ST/STM32_USB_Host_Library/Core/Src/usbh_core.c ****         else
 761:Middlewares/ST/STM32_USB_Host_Library/Core/Src/usbh_core.c ****         {
 762:Middlewares/ST/STM32_USB_Host_Library/Core/Src/usbh_core.c ****           /* .. */
 763:Middlewares/ST/STM32_USB_Host_Library/Core/Src/usbh_core.c ****         }
 764:Middlewares/ST/STM32_USB_Host_Library/Core/Src/usbh_core.c ****       }
ARM GAS  /tmp/ccKRVJ90.s 			page 17


 765:Middlewares/ST/STM32_USB_Host_Library/Core/Src/usbh_core.c ****       else
 766:Middlewares/ST/STM32_USB_Host_Library/Core/Src/usbh_core.c ****       {
 767:Middlewares/ST/STM32_USB_Host_Library/Core/Src/usbh_core.c ****         phost->gState = HOST_ABORT_STATE;
 768:Middlewares/ST/STM32_USB_Host_Library/Core/Src/usbh_core.c ****         USBH_ErrLog("Invalid Class Driver.");
 769:Middlewares/ST/STM32_USB_Host_Library/Core/Src/usbh_core.c ****       }
 770:Middlewares/ST/STM32_USB_Host_Library/Core/Src/usbh_core.c **** #if (USBH_USE_OS == 1U)
 771:Middlewares/ST/STM32_USB_Host_Library/Core/Src/usbh_core.c ****       phost->os_msg = (uint32_t)USBH_STATE_CHANGED_EVENT;
 772:Middlewares/ST/STM32_USB_Host_Library/Core/Src/usbh_core.c **** #if (osCMSIS < 0x20000U)
 773:Middlewares/ST/STM32_USB_Host_Library/Core/Src/usbh_core.c ****       (void)osMessagePut(phost->os_event, phost->os_msg, 0U);
 774:Middlewares/ST/STM32_USB_Host_Library/Core/Src/usbh_core.c **** #else
 775:Middlewares/ST/STM32_USB_Host_Library/Core/Src/usbh_core.c ****       (void)osMessageQueuePut(phost->os_event, &phost->os_msg, 0U, 0U);
 776:Middlewares/ST/STM32_USB_Host_Library/Core/Src/usbh_core.c **** #endif
 777:Middlewares/ST/STM32_USB_Host_Library/Core/Src/usbh_core.c **** #endif
 778:Middlewares/ST/STM32_USB_Host_Library/Core/Src/usbh_core.c ****       break;
 779:Middlewares/ST/STM32_USB_Host_Library/Core/Src/usbh_core.c **** 
 780:Middlewares/ST/STM32_USB_Host_Library/Core/Src/usbh_core.c ****     case HOST_CLASS:
 781:Middlewares/ST/STM32_USB_Host_Library/Core/Src/usbh_core.c ****       /* process class state machine */
 782:Middlewares/ST/STM32_USB_Host_Library/Core/Src/usbh_core.c ****       if (phost->pActiveClass != NULL)
 783:Middlewares/ST/STM32_USB_Host_Library/Core/Src/usbh_core.c ****       {
 784:Middlewares/ST/STM32_USB_Host_Library/Core/Src/usbh_core.c ****         phost->pActiveClass->BgndProcess(phost);
 785:Middlewares/ST/STM32_USB_Host_Library/Core/Src/usbh_core.c ****       }
 786:Middlewares/ST/STM32_USB_Host_Library/Core/Src/usbh_core.c ****       break;
 787:Middlewares/ST/STM32_USB_Host_Library/Core/Src/usbh_core.c **** 
 788:Middlewares/ST/STM32_USB_Host_Library/Core/Src/usbh_core.c ****     case HOST_DEV_DISCONNECTED :
 789:Middlewares/ST/STM32_USB_Host_Library/Core/Src/usbh_core.c ****       phost->device.is_disconnected = 0U;
 790:Middlewares/ST/STM32_USB_Host_Library/Core/Src/usbh_core.c **** 
 791:Middlewares/ST/STM32_USB_Host_Library/Core/Src/usbh_core.c ****       (void)DeInitStateMachine(phost);
 792:Middlewares/ST/STM32_USB_Host_Library/Core/Src/usbh_core.c **** 
 793:Middlewares/ST/STM32_USB_Host_Library/Core/Src/usbh_core.c ****       /* Re-Initilaize Host for new Enumeration */
 794:Middlewares/ST/STM32_USB_Host_Library/Core/Src/usbh_core.c ****       if (phost->pActiveClass != NULL)
 795:Middlewares/ST/STM32_USB_Host_Library/Core/Src/usbh_core.c ****       {
 796:Middlewares/ST/STM32_USB_Host_Library/Core/Src/usbh_core.c ****         phost->pActiveClass->DeInit(phost);
 797:Middlewares/ST/STM32_USB_Host_Library/Core/Src/usbh_core.c ****         phost->pActiveClass = NULL;
 798:Middlewares/ST/STM32_USB_Host_Library/Core/Src/usbh_core.c ****       }
 799:Middlewares/ST/STM32_USB_Host_Library/Core/Src/usbh_core.c **** 
 800:Middlewares/ST/STM32_USB_Host_Library/Core/Src/usbh_core.c ****       if (phost->pUser != NULL)
 801:Middlewares/ST/STM32_USB_Host_Library/Core/Src/usbh_core.c ****       {
 802:Middlewares/ST/STM32_USB_Host_Library/Core/Src/usbh_core.c ****         phost->pUser(phost, HOST_USER_DISCONNECTION);
 803:Middlewares/ST/STM32_USB_Host_Library/Core/Src/usbh_core.c ****       }
 804:Middlewares/ST/STM32_USB_Host_Library/Core/Src/usbh_core.c ****       USBH_UsrLog("USB Device disconnected");
 805:Middlewares/ST/STM32_USB_Host_Library/Core/Src/usbh_core.c **** 
 806:Middlewares/ST/STM32_USB_Host_Library/Core/Src/usbh_core.c ****       if (phost->device.is_ReEnumerated == 1U)
 807:Middlewares/ST/STM32_USB_Host_Library/Core/Src/usbh_core.c ****       {
 808:Middlewares/ST/STM32_USB_Host_Library/Core/Src/usbh_core.c ****         phost->device.is_ReEnumerated = 0U;
 809:Middlewares/ST/STM32_USB_Host_Library/Core/Src/usbh_core.c **** 
 810:Middlewares/ST/STM32_USB_Host_Library/Core/Src/usbh_core.c ****         /* Start the host and re-enable Vbus */
 811:Middlewares/ST/STM32_USB_Host_Library/Core/Src/usbh_core.c ****         (void)USBH_Start(phost);
 812:Middlewares/ST/STM32_USB_Host_Library/Core/Src/usbh_core.c ****       }
 813:Middlewares/ST/STM32_USB_Host_Library/Core/Src/usbh_core.c ****       else
 814:Middlewares/ST/STM32_USB_Host_Library/Core/Src/usbh_core.c ****       {
 815:Middlewares/ST/STM32_USB_Host_Library/Core/Src/usbh_core.c ****         /* Device Disconnection Completed, start USB Driver */
 816:Middlewares/ST/STM32_USB_Host_Library/Core/Src/usbh_core.c ****         (void)USBH_LL_Start(phost);
 817:Middlewares/ST/STM32_USB_Host_Library/Core/Src/usbh_core.c ****       }
 818:Middlewares/ST/STM32_USB_Host_Library/Core/Src/usbh_core.c **** 
 819:Middlewares/ST/STM32_USB_Host_Library/Core/Src/usbh_core.c **** #if (USBH_USE_OS == 1U)
 820:Middlewares/ST/STM32_USB_Host_Library/Core/Src/usbh_core.c ****       phost->os_msg = (uint32_t)USBH_PORT_EVENT;
 821:Middlewares/ST/STM32_USB_Host_Library/Core/Src/usbh_core.c **** #if (osCMSIS < 0x20000U)
ARM GAS  /tmp/ccKRVJ90.s 			page 18


 822:Middlewares/ST/STM32_USB_Host_Library/Core/Src/usbh_core.c ****       (void)osMessagePut(phost->os_event, phost->os_msg, 0U);
 823:Middlewares/ST/STM32_USB_Host_Library/Core/Src/usbh_core.c **** #else
 824:Middlewares/ST/STM32_USB_Host_Library/Core/Src/usbh_core.c ****       (void)osMessageQueuePut(phost->os_event, &phost->os_msg, 0U, 0U);
 825:Middlewares/ST/STM32_USB_Host_Library/Core/Src/usbh_core.c **** #endif
 826:Middlewares/ST/STM32_USB_Host_Library/Core/Src/usbh_core.c **** #endif
 827:Middlewares/ST/STM32_USB_Host_Library/Core/Src/usbh_core.c ****       break;
 828:Middlewares/ST/STM32_USB_Host_Library/Core/Src/usbh_core.c **** 
 829:Middlewares/ST/STM32_USB_Host_Library/Core/Src/usbh_core.c ****     case HOST_ABORT_STATE:
 830:Middlewares/ST/STM32_USB_Host_Library/Core/Src/usbh_core.c ****     default :
 831:Middlewares/ST/STM32_USB_Host_Library/Core/Src/usbh_core.c ****       break;
 832:Middlewares/ST/STM32_USB_Host_Library/Core/Src/usbh_core.c ****   }
 833:Middlewares/ST/STM32_USB_Host_Library/Core/Src/usbh_core.c ****   return USBH_OK;
 834:Middlewares/ST/STM32_USB_Host_Library/Core/Src/usbh_core.c **** }
 835:Middlewares/ST/STM32_USB_Host_Library/Core/Src/usbh_core.c **** 
 836:Middlewares/ST/STM32_USB_Host_Library/Core/Src/usbh_core.c **** 
 837:Middlewares/ST/STM32_USB_Host_Library/Core/Src/usbh_core.c **** /**
 838:Middlewares/ST/STM32_USB_Host_Library/Core/Src/usbh_core.c ****   * @brief  USBH_HandleEnum
 839:Middlewares/ST/STM32_USB_Host_Library/Core/Src/usbh_core.c ****   *         This function includes the complete enumeration process
 840:Middlewares/ST/STM32_USB_Host_Library/Core/Src/usbh_core.c ****   * @param  phost: Host Handle
 841:Middlewares/ST/STM32_USB_Host_Library/Core/Src/usbh_core.c ****   * @retval USBH_Status
 842:Middlewares/ST/STM32_USB_Host_Library/Core/Src/usbh_core.c ****   */
 843:Middlewares/ST/STM32_USB_Host_Library/Core/Src/usbh_core.c **** static USBH_StatusTypeDef USBH_HandleEnum(USBH_HandleTypeDef *phost)
 844:Middlewares/ST/STM32_USB_Host_Library/Core/Src/usbh_core.c **** {
 845:Middlewares/ST/STM32_USB_Host_Library/Core/Src/usbh_core.c ****   USBH_StatusTypeDef Status = USBH_BUSY;
 846:Middlewares/ST/STM32_USB_Host_Library/Core/Src/usbh_core.c ****   USBH_StatusTypeDef ReqStatus = USBH_BUSY;
 847:Middlewares/ST/STM32_USB_Host_Library/Core/Src/usbh_core.c **** 
 848:Middlewares/ST/STM32_USB_Host_Library/Core/Src/usbh_core.c ****   switch (phost->EnumState)
 849:Middlewares/ST/STM32_USB_Host_Library/Core/Src/usbh_core.c ****   {
 850:Middlewares/ST/STM32_USB_Host_Library/Core/Src/usbh_core.c ****     case ENUM_IDLE:
 851:Middlewares/ST/STM32_USB_Host_Library/Core/Src/usbh_core.c ****       /* Get Device Desc for only 1st 8 bytes : To get EP0 MaxPacketSize */
 852:Middlewares/ST/STM32_USB_Host_Library/Core/Src/usbh_core.c ****       ReqStatus = USBH_Get_DevDesc(phost, 8U);
 853:Middlewares/ST/STM32_USB_Host_Library/Core/Src/usbh_core.c ****       if (ReqStatus == USBH_OK)
 854:Middlewares/ST/STM32_USB_Host_Library/Core/Src/usbh_core.c ****       {
 855:Middlewares/ST/STM32_USB_Host_Library/Core/Src/usbh_core.c ****         phost->Control.pipe_size = phost->device.DevDesc.bMaxPacketSize;
 856:Middlewares/ST/STM32_USB_Host_Library/Core/Src/usbh_core.c **** 
 857:Middlewares/ST/STM32_USB_Host_Library/Core/Src/usbh_core.c ****         phost->EnumState = ENUM_GET_FULL_DEV_DESC;
 858:Middlewares/ST/STM32_USB_Host_Library/Core/Src/usbh_core.c **** 
 859:Middlewares/ST/STM32_USB_Host_Library/Core/Src/usbh_core.c ****         /* modify control channels configuration for MaxPacket size */
 860:Middlewares/ST/STM32_USB_Host_Library/Core/Src/usbh_core.c ****         (void)USBH_OpenPipe(phost, phost->Control.pipe_in, 0x80U, phost->device.address,
 861:Middlewares/ST/STM32_USB_Host_Library/Core/Src/usbh_core.c ****                             phost->device.speed, USBH_EP_CONTROL,
 862:Middlewares/ST/STM32_USB_Host_Library/Core/Src/usbh_core.c ****                             (uint16_t)phost->Control.pipe_size);
 863:Middlewares/ST/STM32_USB_Host_Library/Core/Src/usbh_core.c **** 
 864:Middlewares/ST/STM32_USB_Host_Library/Core/Src/usbh_core.c ****         /* Open Control pipes */
 865:Middlewares/ST/STM32_USB_Host_Library/Core/Src/usbh_core.c ****         (void)USBH_OpenPipe(phost, phost->Control.pipe_out, 0x00U, phost->device.address,
 866:Middlewares/ST/STM32_USB_Host_Library/Core/Src/usbh_core.c ****                             phost->device.speed, USBH_EP_CONTROL,
 867:Middlewares/ST/STM32_USB_Host_Library/Core/Src/usbh_core.c ****                             (uint16_t)phost->Control.pipe_size);
 868:Middlewares/ST/STM32_USB_Host_Library/Core/Src/usbh_core.c ****       }
 869:Middlewares/ST/STM32_USB_Host_Library/Core/Src/usbh_core.c ****       else if (ReqStatus == USBH_NOT_SUPPORTED)
 870:Middlewares/ST/STM32_USB_Host_Library/Core/Src/usbh_core.c ****       {
 871:Middlewares/ST/STM32_USB_Host_Library/Core/Src/usbh_core.c ****         USBH_ErrLog("Control error: Get Device Descriptor request failed");
 872:Middlewares/ST/STM32_USB_Host_Library/Core/Src/usbh_core.c ****         phost->device.EnumCnt++;
 873:Middlewares/ST/STM32_USB_Host_Library/Core/Src/usbh_core.c ****         if (phost->device.EnumCnt > 3U)
 874:Middlewares/ST/STM32_USB_Host_Library/Core/Src/usbh_core.c ****         {
 875:Middlewares/ST/STM32_USB_Host_Library/Core/Src/usbh_core.c ****           /* Buggy Device can't complete get device desc request */
 876:Middlewares/ST/STM32_USB_Host_Library/Core/Src/usbh_core.c ****           USBH_UsrLog("Control error, Device not Responding Please unplug the Device.");
 877:Middlewares/ST/STM32_USB_Host_Library/Core/Src/usbh_core.c ****           phost->gState = HOST_ABORT_STATE;
 878:Middlewares/ST/STM32_USB_Host_Library/Core/Src/usbh_core.c ****         }
ARM GAS  /tmp/ccKRVJ90.s 			page 19


 879:Middlewares/ST/STM32_USB_Host_Library/Core/Src/usbh_core.c ****         else
 880:Middlewares/ST/STM32_USB_Host_Library/Core/Src/usbh_core.c ****         {
 881:Middlewares/ST/STM32_USB_Host_Library/Core/Src/usbh_core.c ****           /* free control pipes */
 882:Middlewares/ST/STM32_USB_Host_Library/Core/Src/usbh_core.c ****           (void)USBH_FreePipe(phost, phost->Control.pipe_out);
 883:Middlewares/ST/STM32_USB_Host_Library/Core/Src/usbh_core.c ****           (void)USBH_FreePipe(phost, phost->Control.pipe_in);
 884:Middlewares/ST/STM32_USB_Host_Library/Core/Src/usbh_core.c **** 
 885:Middlewares/ST/STM32_USB_Host_Library/Core/Src/usbh_core.c ****           /* Reset the USB Device */
 886:Middlewares/ST/STM32_USB_Host_Library/Core/Src/usbh_core.c ****           phost->gState = HOST_IDLE;
 887:Middlewares/ST/STM32_USB_Host_Library/Core/Src/usbh_core.c ****         }
 888:Middlewares/ST/STM32_USB_Host_Library/Core/Src/usbh_core.c ****       }
 889:Middlewares/ST/STM32_USB_Host_Library/Core/Src/usbh_core.c ****       else
 890:Middlewares/ST/STM32_USB_Host_Library/Core/Src/usbh_core.c ****       {
 891:Middlewares/ST/STM32_USB_Host_Library/Core/Src/usbh_core.c ****         /* .. */
 892:Middlewares/ST/STM32_USB_Host_Library/Core/Src/usbh_core.c ****       }
 893:Middlewares/ST/STM32_USB_Host_Library/Core/Src/usbh_core.c ****       break;
 894:Middlewares/ST/STM32_USB_Host_Library/Core/Src/usbh_core.c **** 
 895:Middlewares/ST/STM32_USB_Host_Library/Core/Src/usbh_core.c ****     case ENUM_GET_FULL_DEV_DESC:
 896:Middlewares/ST/STM32_USB_Host_Library/Core/Src/usbh_core.c ****       /* Get FULL Device Desc  */
 897:Middlewares/ST/STM32_USB_Host_Library/Core/Src/usbh_core.c ****       ReqStatus = USBH_Get_DevDesc(phost, USB_DEVICE_DESC_SIZE);
 898:Middlewares/ST/STM32_USB_Host_Library/Core/Src/usbh_core.c ****       if (ReqStatus == USBH_OK)
 899:Middlewares/ST/STM32_USB_Host_Library/Core/Src/usbh_core.c ****       {
 900:Middlewares/ST/STM32_USB_Host_Library/Core/Src/usbh_core.c ****         USBH_UsrLog("PID: %xh", phost->device.DevDesc.idProduct);
 901:Middlewares/ST/STM32_USB_Host_Library/Core/Src/usbh_core.c ****         USBH_UsrLog("VID: %xh", phost->device.DevDesc.idVendor);
 902:Middlewares/ST/STM32_USB_Host_Library/Core/Src/usbh_core.c **** 
 903:Middlewares/ST/STM32_USB_Host_Library/Core/Src/usbh_core.c ****         phost->EnumState = ENUM_SET_ADDR;
 904:Middlewares/ST/STM32_USB_Host_Library/Core/Src/usbh_core.c ****       }
 905:Middlewares/ST/STM32_USB_Host_Library/Core/Src/usbh_core.c ****       else if (ReqStatus == USBH_NOT_SUPPORTED)
 906:Middlewares/ST/STM32_USB_Host_Library/Core/Src/usbh_core.c ****       {
 907:Middlewares/ST/STM32_USB_Host_Library/Core/Src/usbh_core.c ****         USBH_ErrLog("Control error: Get Full Device Descriptor request failed");
 908:Middlewares/ST/STM32_USB_Host_Library/Core/Src/usbh_core.c ****         phost->device.EnumCnt++;
 909:Middlewares/ST/STM32_USB_Host_Library/Core/Src/usbh_core.c ****         if (phost->device.EnumCnt > 3U)
 910:Middlewares/ST/STM32_USB_Host_Library/Core/Src/usbh_core.c ****         {
 911:Middlewares/ST/STM32_USB_Host_Library/Core/Src/usbh_core.c ****           /* Buggy Device can't complete get device desc request */
 912:Middlewares/ST/STM32_USB_Host_Library/Core/Src/usbh_core.c ****           USBH_UsrLog("Control error, Device not Responding Please unplug the Device.");
 913:Middlewares/ST/STM32_USB_Host_Library/Core/Src/usbh_core.c ****           phost->gState = HOST_ABORT_STATE;
 914:Middlewares/ST/STM32_USB_Host_Library/Core/Src/usbh_core.c ****         }
 915:Middlewares/ST/STM32_USB_Host_Library/Core/Src/usbh_core.c ****         else
 916:Middlewares/ST/STM32_USB_Host_Library/Core/Src/usbh_core.c ****         {
 917:Middlewares/ST/STM32_USB_Host_Library/Core/Src/usbh_core.c ****           /* Free control pipes */
 918:Middlewares/ST/STM32_USB_Host_Library/Core/Src/usbh_core.c ****           (void)USBH_FreePipe(phost, phost->Control.pipe_out);
 919:Middlewares/ST/STM32_USB_Host_Library/Core/Src/usbh_core.c ****           (void)USBH_FreePipe(phost, phost->Control.pipe_in);
 920:Middlewares/ST/STM32_USB_Host_Library/Core/Src/usbh_core.c **** 
 921:Middlewares/ST/STM32_USB_Host_Library/Core/Src/usbh_core.c ****           /* Reset the USB Device */
 922:Middlewares/ST/STM32_USB_Host_Library/Core/Src/usbh_core.c ****           phost->EnumState = ENUM_IDLE;
 923:Middlewares/ST/STM32_USB_Host_Library/Core/Src/usbh_core.c ****           phost->gState = HOST_IDLE;
 924:Middlewares/ST/STM32_USB_Host_Library/Core/Src/usbh_core.c ****         }
 925:Middlewares/ST/STM32_USB_Host_Library/Core/Src/usbh_core.c ****       }
 926:Middlewares/ST/STM32_USB_Host_Library/Core/Src/usbh_core.c ****       else
 927:Middlewares/ST/STM32_USB_Host_Library/Core/Src/usbh_core.c ****       {
 928:Middlewares/ST/STM32_USB_Host_Library/Core/Src/usbh_core.c ****         /* .. */
 929:Middlewares/ST/STM32_USB_Host_Library/Core/Src/usbh_core.c ****       }
 930:Middlewares/ST/STM32_USB_Host_Library/Core/Src/usbh_core.c ****       break;
 931:Middlewares/ST/STM32_USB_Host_Library/Core/Src/usbh_core.c **** 
 932:Middlewares/ST/STM32_USB_Host_Library/Core/Src/usbh_core.c ****     case ENUM_SET_ADDR:
 933:Middlewares/ST/STM32_USB_Host_Library/Core/Src/usbh_core.c ****       /* set address */
 934:Middlewares/ST/STM32_USB_Host_Library/Core/Src/usbh_core.c ****       ReqStatus = USBH_SetAddress(phost, USBH_DEVICE_ADDRESS);
 935:Middlewares/ST/STM32_USB_Host_Library/Core/Src/usbh_core.c ****       if (ReqStatus == USBH_OK)
ARM GAS  /tmp/ccKRVJ90.s 			page 20


 936:Middlewares/ST/STM32_USB_Host_Library/Core/Src/usbh_core.c ****       {
 937:Middlewares/ST/STM32_USB_Host_Library/Core/Src/usbh_core.c ****         USBH_Delay(2U);
 938:Middlewares/ST/STM32_USB_Host_Library/Core/Src/usbh_core.c ****         phost->device.address = USBH_DEVICE_ADDRESS;
 939:Middlewares/ST/STM32_USB_Host_Library/Core/Src/usbh_core.c **** 
 940:Middlewares/ST/STM32_USB_Host_Library/Core/Src/usbh_core.c ****         /* user callback for device address assigned */
 941:Middlewares/ST/STM32_USB_Host_Library/Core/Src/usbh_core.c ****         USBH_UsrLog("Address (#%d) assigned.", phost->device.address);
 942:Middlewares/ST/STM32_USB_Host_Library/Core/Src/usbh_core.c ****         phost->EnumState = ENUM_GET_CFG_DESC;
 943:Middlewares/ST/STM32_USB_Host_Library/Core/Src/usbh_core.c **** 
 944:Middlewares/ST/STM32_USB_Host_Library/Core/Src/usbh_core.c ****         /* modify control channels to update device address */
 945:Middlewares/ST/STM32_USB_Host_Library/Core/Src/usbh_core.c ****         (void)USBH_OpenPipe(phost, phost->Control.pipe_in, 0x80U,  phost->device.address,
 946:Middlewares/ST/STM32_USB_Host_Library/Core/Src/usbh_core.c ****                             phost->device.speed, USBH_EP_CONTROL,
 947:Middlewares/ST/STM32_USB_Host_Library/Core/Src/usbh_core.c ****                             (uint16_t)phost->Control.pipe_size);
 948:Middlewares/ST/STM32_USB_Host_Library/Core/Src/usbh_core.c **** 
 949:Middlewares/ST/STM32_USB_Host_Library/Core/Src/usbh_core.c ****         /* Open Control pipes */
 950:Middlewares/ST/STM32_USB_Host_Library/Core/Src/usbh_core.c ****         (void)USBH_OpenPipe(phost, phost->Control.pipe_out, 0x00U, phost->device.address,
 951:Middlewares/ST/STM32_USB_Host_Library/Core/Src/usbh_core.c ****                             phost->device.speed, USBH_EP_CONTROL,
 952:Middlewares/ST/STM32_USB_Host_Library/Core/Src/usbh_core.c ****                             (uint16_t)phost->Control.pipe_size);
 953:Middlewares/ST/STM32_USB_Host_Library/Core/Src/usbh_core.c ****       }
 954:Middlewares/ST/STM32_USB_Host_Library/Core/Src/usbh_core.c ****       else if (ReqStatus == USBH_NOT_SUPPORTED)
 955:Middlewares/ST/STM32_USB_Host_Library/Core/Src/usbh_core.c ****       {
 956:Middlewares/ST/STM32_USB_Host_Library/Core/Src/usbh_core.c ****         USBH_ErrLog("Control error: Device Set Address request failed");
 957:Middlewares/ST/STM32_USB_Host_Library/Core/Src/usbh_core.c **** 
 958:Middlewares/ST/STM32_USB_Host_Library/Core/Src/usbh_core.c ****         /* Buggy Device can't complete get device desc request */
 959:Middlewares/ST/STM32_USB_Host_Library/Core/Src/usbh_core.c ****         USBH_UsrLog("Control error, Device not Responding Please unplug the Device.");
 960:Middlewares/ST/STM32_USB_Host_Library/Core/Src/usbh_core.c ****         phost->gState = HOST_ABORT_STATE;
 961:Middlewares/ST/STM32_USB_Host_Library/Core/Src/usbh_core.c ****         phost->EnumState = ENUM_IDLE;
 962:Middlewares/ST/STM32_USB_Host_Library/Core/Src/usbh_core.c ****       }
 963:Middlewares/ST/STM32_USB_Host_Library/Core/Src/usbh_core.c ****       else
 964:Middlewares/ST/STM32_USB_Host_Library/Core/Src/usbh_core.c ****       {
 965:Middlewares/ST/STM32_USB_Host_Library/Core/Src/usbh_core.c ****         /* .. */
 966:Middlewares/ST/STM32_USB_Host_Library/Core/Src/usbh_core.c ****       }
 967:Middlewares/ST/STM32_USB_Host_Library/Core/Src/usbh_core.c ****       break;
 968:Middlewares/ST/STM32_USB_Host_Library/Core/Src/usbh_core.c **** 
 969:Middlewares/ST/STM32_USB_Host_Library/Core/Src/usbh_core.c ****     case ENUM_GET_CFG_DESC:
 970:Middlewares/ST/STM32_USB_Host_Library/Core/Src/usbh_core.c ****       /* get standard configuration descriptor */
 971:Middlewares/ST/STM32_USB_Host_Library/Core/Src/usbh_core.c ****       ReqStatus = USBH_Get_CfgDesc(phost, USB_CONFIGURATION_DESC_SIZE);
 972:Middlewares/ST/STM32_USB_Host_Library/Core/Src/usbh_core.c ****       if (ReqStatus == USBH_OK)
 973:Middlewares/ST/STM32_USB_Host_Library/Core/Src/usbh_core.c ****       {
 974:Middlewares/ST/STM32_USB_Host_Library/Core/Src/usbh_core.c ****         phost->EnumState = ENUM_GET_FULL_CFG_DESC;
 975:Middlewares/ST/STM32_USB_Host_Library/Core/Src/usbh_core.c ****       }
 976:Middlewares/ST/STM32_USB_Host_Library/Core/Src/usbh_core.c ****       else if (ReqStatus == USBH_NOT_SUPPORTED)
 977:Middlewares/ST/STM32_USB_Host_Library/Core/Src/usbh_core.c ****       {
 978:Middlewares/ST/STM32_USB_Host_Library/Core/Src/usbh_core.c ****         USBH_ErrLog("Control error: Get Device configuration descriptor request failed");
 979:Middlewares/ST/STM32_USB_Host_Library/Core/Src/usbh_core.c ****         phost->device.EnumCnt++;
 980:Middlewares/ST/STM32_USB_Host_Library/Core/Src/usbh_core.c ****         if (phost->device.EnumCnt > 3U)
 981:Middlewares/ST/STM32_USB_Host_Library/Core/Src/usbh_core.c ****         {
 982:Middlewares/ST/STM32_USB_Host_Library/Core/Src/usbh_core.c ****           /* Buggy Device can't complete get device desc request */
 983:Middlewares/ST/STM32_USB_Host_Library/Core/Src/usbh_core.c ****           USBH_UsrLog("Control error, Device not Responding Please unplug the Device.");
 984:Middlewares/ST/STM32_USB_Host_Library/Core/Src/usbh_core.c ****           phost->gState = HOST_ABORT_STATE;
 985:Middlewares/ST/STM32_USB_Host_Library/Core/Src/usbh_core.c ****         }
 986:Middlewares/ST/STM32_USB_Host_Library/Core/Src/usbh_core.c ****         else
 987:Middlewares/ST/STM32_USB_Host_Library/Core/Src/usbh_core.c ****         {
 988:Middlewares/ST/STM32_USB_Host_Library/Core/Src/usbh_core.c ****           /* Free control pipes */
 989:Middlewares/ST/STM32_USB_Host_Library/Core/Src/usbh_core.c ****           (void)USBH_FreePipe(phost, phost->Control.pipe_out);
 990:Middlewares/ST/STM32_USB_Host_Library/Core/Src/usbh_core.c ****           (void)USBH_FreePipe(phost, phost->Control.pipe_in);
 991:Middlewares/ST/STM32_USB_Host_Library/Core/Src/usbh_core.c **** 
 992:Middlewares/ST/STM32_USB_Host_Library/Core/Src/usbh_core.c ****           /* Reset the USB Device */
ARM GAS  /tmp/ccKRVJ90.s 			page 21


 993:Middlewares/ST/STM32_USB_Host_Library/Core/Src/usbh_core.c ****           phost->EnumState = ENUM_IDLE;
 994:Middlewares/ST/STM32_USB_Host_Library/Core/Src/usbh_core.c ****           phost->gState = HOST_IDLE;
 995:Middlewares/ST/STM32_USB_Host_Library/Core/Src/usbh_core.c ****         }
 996:Middlewares/ST/STM32_USB_Host_Library/Core/Src/usbh_core.c ****       }
 997:Middlewares/ST/STM32_USB_Host_Library/Core/Src/usbh_core.c ****       else
 998:Middlewares/ST/STM32_USB_Host_Library/Core/Src/usbh_core.c ****       {
 999:Middlewares/ST/STM32_USB_Host_Library/Core/Src/usbh_core.c ****         /* .. */
1000:Middlewares/ST/STM32_USB_Host_Library/Core/Src/usbh_core.c ****       }
1001:Middlewares/ST/STM32_USB_Host_Library/Core/Src/usbh_core.c ****       break;
1002:Middlewares/ST/STM32_USB_Host_Library/Core/Src/usbh_core.c **** 
1003:Middlewares/ST/STM32_USB_Host_Library/Core/Src/usbh_core.c ****     case ENUM_GET_FULL_CFG_DESC:
1004:Middlewares/ST/STM32_USB_Host_Library/Core/Src/usbh_core.c ****       /* get FULL config descriptor (config, interface, endpoints) */
1005:Middlewares/ST/STM32_USB_Host_Library/Core/Src/usbh_core.c ****       ReqStatus = USBH_Get_CfgDesc(phost, phost->device.CfgDesc.wTotalLength);
1006:Middlewares/ST/STM32_USB_Host_Library/Core/Src/usbh_core.c ****       if (ReqStatus == USBH_OK)
1007:Middlewares/ST/STM32_USB_Host_Library/Core/Src/usbh_core.c ****       {
1008:Middlewares/ST/STM32_USB_Host_Library/Core/Src/usbh_core.c ****         phost->EnumState = ENUM_GET_MFC_STRING_DESC;
1009:Middlewares/ST/STM32_USB_Host_Library/Core/Src/usbh_core.c ****       }
1010:Middlewares/ST/STM32_USB_Host_Library/Core/Src/usbh_core.c ****       else if (ReqStatus == USBH_NOT_SUPPORTED)
1011:Middlewares/ST/STM32_USB_Host_Library/Core/Src/usbh_core.c ****       {
1012:Middlewares/ST/STM32_USB_Host_Library/Core/Src/usbh_core.c ****         USBH_ErrLog("Control error: Get Device configuration descriptor request failed");
1013:Middlewares/ST/STM32_USB_Host_Library/Core/Src/usbh_core.c ****         phost->device.EnumCnt++;
1014:Middlewares/ST/STM32_USB_Host_Library/Core/Src/usbh_core.c ****         if (phost->device.EnumCnt > 3U)
1015:Middlewares/ST/STM32_USB_Host_Library/Core/Src/usbh_core.c ****         {
1016:Middlewares/ST/STM32_USB_Host_Library/Core/Src/usbh_core.c ****           /* Buggy Device can't complete get device desc request */
1017:Middlewares/ST/STM32_USB_Host_Library/Core/Src/usbh_core.c ****           USBH_UsrLog("Control error, Device not Responding Please unplug the Device.");
1018:Middlewares/ST/STM32_USB_Host_Library/Core/Src/usbh_core.c ****           phost->gState = HOST_ABORT_STATE;
1019:Middlewares/ST/STM32_USB_Host_Library/Core/Src/usbh_core.c ****         }
1020:Middlewares/ST/STM32_USB_Host_Library/Core/Src/usbh_core.c ****         else
1021:Middlewares/ST/STM32_USB_Host_Library/Core/Src/usbh_core.c ****         {
1022:Middlewares/ST/STM32_USB_Host_Library/Core/Src/usbh_core.c ****           /* Free control pipes */
1023:Middlewares/ST/STM32_USB_Host_Library/Core/Src/usbh_core.c ****           (void)USBH_FreePipe(phost, phost->Control.pipe_out);
1024:Middlewares/ST/STM32_USB_Host_Library/Core/Src/usbh_core.c ****           (void)USBH_FreePipe(phost, phost->Control.pipe_in);
1025:Middlewares/ST/STM32_USB_Host_Library/Core/Src/usbh_core.c **** 
1026:Middlewares/ST/STM32_USB_Host_Library/Core/Src/usbh_core.c ****           /* Reset the USB Device */
1027:Middlewares/ST/STM32_USB_Host_Library/Core/Src/usbh_core.c ****           phost->EnumState = ENUM_IDLE;
1028:Middlewares/ST/STM32_USB_Host_Library/Core/Src/usbh_core.c ****           phost->gState = HOST_IDLE;
1029:Middlewares/ST/STM32_USB_Host_Library/Core/Src/usbh_core.c ****         }
1030:Middlewares/ST/STM32_USB_Host_Library/Core/Src/usbh_core.c ****       }
1031:Middlewares/ST/STM32_USB_Host_Library/Core/Src/usbh_core.c ****       else
1032:Middlewares/ST/STM32_USB_Host_Library/Core/Src/usbh_core.c ****       {
1033:Middlewares/ST/STM32_USB_Host_Library/Core/Src/usbh_core.c ****         /* .. */
1034:Middlewares/ST/STM32_USB_Host_Library/Core/Src/usbh_core.c ****       }
1035:Middlewares/ST/STM32_USB_Host_Library/Core/Src/usbh_core.c ****       break;
1036:Middlewares/ST/STM32_USB_Host_Library/Core/Src/usbh_core.c **** 
1037:Middlewares/ST/STM32_USB_Host_Library/Core/Src/usbh_core.c ****     case ENUM_GET_MFC_STRING_DESC:
1038:Middlewares/ST/STM32_USB_Host_Library/Core/Src/usbh_core.c ****       if (phost->device.DevDesc.iManufacturer != 0U)
1039:Middlewares/ST/STM32_USB_Host_Library/Core/Src/usbh_core.c ****       {
1040:Middlewares/ST/STM32_USB_Host_Library/Core/Src/usbh_core.c ****         /* Check that Manufacturer String is available */
1041:Middlewares/ST/STM32_USB_Host_Library/Core/Src/usbh_core.c ****         ReqStatus = USBH_Get_StringDesc(phost, phost->device.DevDesc.iManufacturer,
1042:Middlewares/ST/STM32_USB_Host_Library/Core/Src/usbh_core.c ****                                         phost->device.Data, 0xFFU);
1043:Middlewares/ST/STM32_USB_Host_Library/Core/Src/usbh_core.c ****         if (ReqStatus == USBH_OK)
1044:Middlewares/ST/STM32_USB_Host_Library/Core/Src/usbh_core.c ****         {
1045:Middlewares/ST/STM32_USB_Host_Library/Core/Src/usbh_core.c ****           /* User callback for Manufacturing string */
1046:Middlewares/ST/STM32_USB_Host_Library/Core/Src/usbh_core.c ****           USBH_UsrLog("Manufacturer : %s", (char *)(void *)phost->device.Data);
1047:Middlewares/ST/STM32_USB_Host_Library/Core/Src/usbh_core.c ****           phost->EnumState = ENUM_GET_PRODUCT_STRING_DESC;
1048:Middlewares/ST/STM32_USB_Host_Library/Core/Src/usbh_core.c **** 
1049:Middlewares/ST/STM32_USB_Host_Library/Core/Src/usbh_core.c **** #if (USBH_USE_OS == 1U)
ARM GAS  /tmp/ccKRVJ90.s 			page 22


1050:Middlewares/ST/STM32_USB_Host_Library/Core/Src/usbh_core.c ****           phost->os_msg = (uint32_t)USBH_STATE_CHANGED_EVENT;
1051:Middlewares/ST/STM32_USB_Host_Library/Core/Src/usbh_core.c **** #if (osCMSIS < 0x20000U)
1052:Middlewares/ST/STM32_USB_Host_Library/Core/Src/usbh_core.c ****           (void)osMessagePut(phost->os_event, phost->os_msg, 0U);
1053:Middlewares/ST/STM32_USB_Host_Library/Core/Src/usbh_core.c **** #else
1054:Middlewares/ST/STM32_USB_Host_Library/Core/Src/usbh_core.c ****           (void)osMessageQueuePut(phost->os_event, &phost->os_msg, 0U, 0U);
1055:Middlewares/ST/STM32_USB_Host_Library/Core/Src/usbh_core.c **** #endif
1056:Middlewares/ST/STM32_USB_Host_Library/Core/Src/usbh_core.c **** #endif
1057:Middlewares/ST/STM32_USB_Host_Library/Core/Src/usbh_core.c ****         }
1058:Middlewares/ST/STM32_USB_Host_Library/Core/Src/usbh_core.c ****         else if (ReqStatus == USBH_NOT_SUPPORTED)
1059:Middlewares/ST/STM32_USB_Host_Library/Core/Src/usbh_core.c ****         {
1060:Middlewares/ST/STM32_USB_Host_Library/Core/Src/usbh_core.c ****           USBH_UsrLog("Manufacturer : N/A");
1061:Middlewares/ST/STM32_USB_Host_Library/Core/Src/usbh_core.c ****           phost->EnumState = ENUM_GET_PRODUCT_STRING_DESC;
1062:Middlewares/ST/STM32_USB_Host_Library/Core/Src/usbh_core.c **** 
1063:Middlewares/ST/STM32_USB_Host_Library/Core/Src/usbh_core.c **** #if (USBH_USE_OS == 1U)
1064:Middlewares/ST/STM32_USB_Host_Library/Core/Src/usbh_core.c ****           phost->os_msg = (uint32_t)USBH_STATE_CHANGED_EVENT;
1065:Middlewares/ST/STM32_USB_Host_Library/Core/Src/usbh_core.c **** #if (osCMSIS < 0x20000U)
1066:Middlewares/ST/STM32_USB_Host_Library/Core/Src/usbh_core.c ****           (void)osMessagePut(phost->os_event, phost->os_msg, 0U);
1067:Middlewares/ST/STM32_USB_Host_Library/Core/Src/usbh_core.c **** #else
1068:Middlewares/ST/STM32_USB_Host_Library/Core/Src/usbh_core.c ****           (void)osMessageQueuePut(phost->os_event, &phost->os_msg, 0U, 0U);
1069:Middlewares/ST/STM32_USB_Host_Library/Core/Src/usbh_core.c **** #endif
1070:Middlewares/ST/STM32_USB_Host_Library/Core/Src/usbh_core.c **** #endif
1071:Middlewares/ST/STM32_USB_Host_Library/Core/Src/usbh_core.c ****         }
1072:Middlewares/ST/STM32_USB_Host_Library/Core/Src/usbh_core.c ****         else
1073:Middlewares/ST/STM32_USB_Host_Library/Core/Src/usbh_core.c ****         {
1074:Middlewares/ST/STM32_USB_Host_Library/Core/Src/usbh_core.c ****           /* .. */
1075:Middlewares/ST/STM32_USB_Host_Library/Core/Src/usbh_core.c ****         }
1076:Middlewares/ST/STM32_USB_Host_Library/Core/Src/usbh_core.c ****       }
1077:Middlewares/ST/STM32_USB_Host_Library/Core/Src/usbh_core.c ****       else
1078:Middlewares/ST/STM32_USB_Host_Library/Core/Src/usbh_core.c ****       {
1079:Middlewares/ST/STM32_USB_Host_Library/Core/Src/usbh_core.c ****         USBH_UsrLog("Manufacturer : N/A");
1080:Middlewares/ST/STM32_USB_Host_Library/Core/Src/usbh_core.c ****         phost->EnumState = ENUM_GET_PRODUCT_STRING_DESC;
1081:Middlewares/ST/STM32_USB_Host_Library/Core/Src/usbh_core.c **** 
1082:Middlewares/ST/STM32_USB_Host_Library/Core/Src/usbh_core.c **** #if (USBH_USE_OS == 1U)
1083:Middlewares/ST/STM32_USB_Host_Library/Core/Src/usbh_core.c ****         phost->os_msg = (uint32_t)USBH_STATE_CHANGED_EVENT;
1084:Middlewares/ST/STM32_USB_Host_Library/Core/Src/usbh_core.c **** #if (osCMSIS < 0x20000U)
1085:Middlewares/ST/STM32_USB_Host_Library/Core/Src/usbh_core.c ****         (void)osMessagePut(phost->os_event, phost->os_msg, 0U);
1086:Middlewares/ST/STM32_USB_Host_Library/Core/Src/usbh_core.c **** #else
1087:Middlewares/ST/STM32_USB_Host_Library/Core/Src/usbh_core.c ****         (void)osMessageQueuePut(phost->os_event, &phost->os_msg, 0U, 0U);
1088:Middlewares/ST/STM32_USB_Host_Library/Core/Src/usbh_core.c **** #endif
1089:Middlewares/ST/STM32_USB_Host_Library/Core/Src/usbh_core.c **** #endif
1090:Middlewares/ST/STM32_USB_Host_Library/Core/Src/usbh_core.c ****       }
1091:Middlewares/ST/STM32_USB_Host_Library/Core/Src/usbh_core.c ****       break;
1092:Middlewares/ST/STM32_USB_Host_Library/Core/Src/usbh_core.c **** 
1093:Middlewares/ST/STM32_USB_Host_Library/Core/Src/usbh_core.c ****     case ENUM_GET_PRODUCT_STRING_DESC:
1094:Middlewares/ST/STM32_USB_Host_Library/Core/Src/usbh_core.c ****       if (phost->device.DevDesc.iProduct != 0U)
1095:Middlewares/ST/STM32_USB_Host_Library/Core/Src/usbh_core.c ****       {
1096:Middlewares/ST/STM32_USB_Host_Library/Core/Src/usbh_core.c ****         /* Check that Product string is available */
1097:Middlewares/ST/STM32_USB_Host_Library/Core/Src/usbh_core.c ****         ReqStatus = USBH_Get_StringDesc(phost, phost->device.DevDesc.iProduct,
1098:Middlewares/ST/STM32_USB_Host_Library/Core/Src/usbh_core.c ****                                         phost->device.Data, 0xFFU);
1099:Middlewares/ST/STM32_USB_Host_Library/Core/Src/usbh_core.c ****         if (ReqStatus == USBH_OK)
1100:Middlewares/ST/STM32_USB_Host_Library/Core/Src/usbh_core.c ****         {
1101:Middlewares/ST/STM32_USB_Host_Library/Core/Src/usbh_core.c ****           /* User callback for Product string */
1102:Middlewares/ST/STM32_USB_Host_Library/Core/Src/usbh_core.c ****           USBH_UsrLog("Product : %s", (char *)(void *)phost->device.Data);
1103:Middlewares/ST/STM32_USB_Host_Library/Core/Src/usbh_core.c ****           phost->EnumState = ENUM_GET_SERIALNUM_STRING_DESC;
1104:Middlewares/ST/STM32_USB_Host_Library/Core/Src/usbh_core.c ****         }
1105:Middlewares/ST/STM32_USB_Host_Library/Core/Src/usbh_core.c ****         else if (ReqStatus == USBH_NOT_SUPPORTED)
1106:Middlewares/ST/STM32_USB_Host_Library/Core/Src/usbh_core.c ****         {
ARM GAS  /tmp/ccKRVJ90.s 			page 23


1107:Middlewares/ST/STM32_USB_Host_Library/Core/Src/usbh_core.c ****           USBH_UsrLog("Product : N/A");
1108:Middlewares/ST/STM32_USB_Host_Library/Core/Src/usbh_core.c ****           phost->EnumState = ENUM_GET_SERIALNUM_STRING_DESC;
1109:Middlewares/ST/STM32_USB_Host_Library/Core/Src/usbh_core.c **** 
1110:Middlewares/ST/STM32_USB_Host_Library/Core/Src/usbh_core.c **** #if (USBH_USE_OS == 1U)
1111:Middlewares/ST/STM32_USB_Host_Library/Core/Src/usbh_core.c ****           phost->os_msg = (uint32_t)USBH_STATE_CHANGED_EVENT;
1112:Middlewares/ST/STM32_USB_Host_Library/Core/Src/usbh_core.c **** #if (osCMSIS < 0x20000U)
1113:Middlewares/ST/STM32_USB_Host_Library/Core/Src/usbh_core.c ****           (void)osMessagePut(phost->os_event, phost->os_msg, 0U);
1114:Middlewares/ST/STM32_USB_Host_Library/Core/Src/usbh_core.c **** #else
1115:Middlewares/ST/STM32_USB_Host_Library/Core/Src/usbh_core.c ****           (void)osMessageQueuePut(phost->os_event, &phost->os_msg, 0U, 0U);
1116:Middlewares/ST/STM32_USB_Host_Library/Core/Src/usbh_core.c **** #endif
1117:Middlewares/ST/STM32_USB_Host_Library/Core/Src/usbh_core.c **** #endif
1118:Middlewares/ST/STM32_USB_Host_Library/Core/Src/usbh_core.c ****         }
1119:Middlewares/ST/STM32_USB_Host_Library/Core/Src/usbh_core.c ****         else
1120:Middlewares/ST/STM32_USB_Host_Library/Core/Src/usbh_core.c ****         {
1121:Middlewares/ST/STM32_USB_Host_Library/Core/Src/usbh_core.c ****           /* .. */
1122:Middlewares/ST/STM32_USB_Host_Library/Core/Src/usbh_core.c ****         }
1123:Middlewares/ST/STM32_USB_Host_Library/Core/Src/usbh_core.c ****       }
1124:Middlewares/ST/STM32_USB_Host_Library/Core/Src/usbh_core.c ****       else
1125:Middlewares/ST/STM32_USB_Host_Library/Core/Src/usbh_core.c ****       {
1126:Middlewares/ST/STM32_USB_Host_Library/Core/Src/usbh_core.c ****         USBH_UsrLog("Product : N/A");
1127:Middlewares/ST/STM32_USB_Host_Library/Core/Src/usbh_core.c ****         phost->EnumState = ENUM_GET_SERIALNUM_STRING_DESC;
1128:Middlewares/ST/STM32_USB_Host_Library/Core/Src/usbh_core.c **** 
1129:Middlewares/ST/STM32_USB_Host_Library/Core/Src/usbh_core.c **** #if (USBH_USE_OS == 1U)
1130:Middlewares/ST/STM32_USB_Host_Library/Core/Src/usbh_core.c ****         phost->os_msg = (uint32_t)USBH_STATE_CHANGED_EVENT;
1131:Middlewares/ST/STM32_USB_Host_Library/Core/Src/usbh_core.c **** #if (osCMSIS < 0x20000U)
1132:Middlewares/ST/STM32_USB_Host_Library/Core/Src/usbh_core.c ****         (void)osMessagePut(phost->os_event, phost->os_msg, 0U);
1133:Middlewares/ST/STM32_USB_Host_Library/Core/Src/usbh_core.c **** #else
1134:Middlewares/ST/STM32_USB_Host_Library/Core/Src/usbh_core.c ****         (void)osMessageQueuePut(phost->os_event, &phost->os_msg, 0U, 0U);
1135:Middlewares/ST/STM32_USB_Host_Library/Core/Src/usbh_core.c **** #endif
1136:Middlewares/ST/STM32_USB_Host_Library/Core/Src/usbh_core.c **** #endif
1137:Middlewares/ST/STM32_USB_Host_Library/Core/Src/usbh_core.c ****       }
1138:Middlewares/ST/STM32_USB_Host_Library/Core/Src/usbh_core.c ****       break;
1139:Middlewares/ST/STM32_USB_Host_Library/Core/Src/usbh_core.c **** 
1140:Middlewares/ST/STM32_USB_Host_Library/Core/Src/usbh_core.c ****     case ENUM_GET_SERIALNUM_STRING_DESC:
1141:Middlewares/ST/STM32_USB_Host_Library/Core/Src/usbh_core.c ****       if (phost->device.DevDesc.iSerialNumber != 0U)
1142:Middlewares/ST/STM32_USB_Host_Library/Core/Src/usbh_core.c ****       {
1143:Middlewares/ST/STM32_USB_Host_Library/Core/Src/usbh_core.c ****         /* Check that Serial number string is available */
1144:Middlewares/ST/STM32_USB_Host_Library/Core/Src/usbh_core.c ****         ReqStatus = USBH_Get_StringDesc(phost, phost->device.DevDesc.iSerialNumber,
1145:Middlewares/ST/STM32_USB_Host_Library/Core/Src/usbh_core.c ****                                         phost->device.Data, 0xFFU);
1146:Middlewares/ST/STM32_USB_Host_Library/Core/Src/usbh_core.c ****         if (ReqStatus == USBH_OK)
1147:Middlewares/ST/STM32_USB_Host_Library/Core/Src/usbh_core.c ****         {
1148:Middlewares/ST/STM32_USB_Host_Library/Core/Src/usbh_core.c ****           /* User callback for Serial number string */
1149:Middlewares/ST/STM32_USB_Host_Library/Core/Src/usbh_core.c ****           USBH_UsrLog("Serial Number : %s", (char *)(void *)phost->device.Data);
1150:Middlewares/ST/STM32_USB_Host_Library/Core/Src/usbh_core.c ****           Status = USBH_OK;
1151:Middlewares/ST/STM32_USB_Host_Library/Core/Src/usbh_core.c ****         }
1152:Middlewares/ST/STM32_USB_Host_Library/Core/Src/usbh_core.c ****         else if (ReqStatus == USBH_NOT_SUPPORTED)
1153:Middlewares/ST/STM32_USB_Host_Library/Core/Src/usbh_core.c ****         {
1154:Middlewares/ST/STM32_USB_Host_Library/Core/Src/usbh_core.c ****           USBH_UsrLog("Serial Number : N/A");
1155:Middlewares/ST/STM32_USB_Host_Library/Core/Src/usbh_core.c ****           Status = USBH_OK;
1156:Middlewares/ST/STM32_USB_Host_Library/Core/Src/usbh_core.c ****         }
1157:Middlewares/ST/STM32_USB_Host_Library/Core/Src/usbh_core.c ****         else
1158:Middlewares/ST/STM32_USB_Host_Library/Core/Src/usbh_core.c ****         {
1159:Middlewares/ST/STM32_USB_Host_Library/Core/Src/usbh_core.c ****           /* .. */
1160:Middlewares/ST/STM32_USB_Host_Library/Core/Src/usbh_core.c ****         }
1161:Middlewares/ST/STM32_USB_Host_Library/Core/Src/usbh_core.c ****       }
1162:Middlewares/ST/STM32_USB_Host_Library/Core/Src/usbh_core.c ****       else
1163:Middlewares/ST/STM32_USB_Host_Library/Core/Src/usbh_core.c ****       {
ARM GAS  /tmp/ccKRVJ90.s 			page 24


1164:Middlewares/ST/STM32_USB_Host_Library/Core/Src/usbh_core.c ****         USBH_UsrLog("Serial Number : N/A");
1165:Middlewares/ST/STM32_USB_Host_Library/Core/Src/usbh_core.c ****         Status = USBH_OK;
1166:Middlewares/ST/STM32_USB_Host_Library/Core/Src/usbh_core.c ****       }
1167:Middlewares/ST/STM32_USB_Host_Library/Core/Src/usbh_core.c ****       break;
1168:Middlewares/ST/STM32_USB_Host_Library/Core/Src/usbh_core.c **** 
1169:Middlewares/ST/STM32_USB_Host_Library/Core/Src/usbh_core.c ****     default:
1170:Middlewares/ST/STM32_USB_Host_Library/Core/Src/usbh_core.c ****       break;
1171:Middlewares/ST/STM32_USB_Host_Library/Core/Src/usbh_core.c ****   }
1172:Middlewares/ST/STM32_USB_Host_Library/Core/Src/usbh_core.c ****   return Status;
1173:Middlewares/ST/STM32_USB_Host_Library/Core/Src/usbh_core.c **** }
1174:Middlewares/ST/STM32_USB_Host_Library/Core/Src/usbh_core.c **** 
1175:Middlewares/ST/STM32_USB_Host_Library/Core/Src/usbh_core.c **** 
1176:Middlewares/ST/STM32_USB_Host_Library/Core/Src/usbh_core.c **** /**
1177:Middlewares/ST/STM32_USB_Host_Library/Core/Src/usbh_core.c ****   * @brief  USBH_LL_SetTimer
1178:Middlewares/ST/STM32_USB_Host_Library/Core/Src/usbh_core.c ****   *         Set the initial Host Timer tick
1179:Middlewares/ST/STM32_USB_Host_Library/Core/Src/usbh_core.c ****   * @param  phost: Host Handle
1180:Middlewares/ST/STM32_USB_Host_Library/Core/Src/usbh_core.c ****   * @retval None
1181:Middlewares/ST/STM32_USB_Host_Library/Core/Src/usbh_core.c ****   */
1182:Middlewares/ST/STM32_USB_Host_Library/Core/Src/usbh_core.c **** void  USBH_LL_SetTimer(USBH_HandleTypeDef *phost, uint32_t time)
1183:Middlewares/ST/STM32_USB_Host_Library/Core/Src/usbh_core.c **** {
1184:Middlewares/ST/STM32_USB_Host_Library/Core/Src/usbh_core.c ****   phost->Timer = time;
1185:Middlewares/ST/STM32_USB_Host_Library/Core/Src/usbh_core.c **** }
1186:Middlewares/ST/STM32_USB_Host_Library/Core/Src/usbh_core.c **** 
1187:Middlewares/ST/STM32_USB_Host_Library/Core/Src/usbh_core.c **** 
1188:Middlewares/ST/STM32_USB_Host_Library/Core/Src/usbh_core.c **** /**
1189:Middlewares/ST/STM32_USB_Host_Library/Core/Src/usbh_core.c ****   * @brief  USBH_LL_IncTimer
1190:Middlewares/ST/STM32_USB_Host_Library/Core/Src/usbh_core.c ****   *         Increment Host Timer tick
1191:Middlewares/ST/STM32_USB_Host_Library/Core/Src/usbh_core.c ****   * @param  phost: Host Handle
1192:Middlewares/ST/STM32_USB_Host_Library/Core/Src/usbh_core.c ****   * @retval None
1193:Middlewares/ST/STM32_USB_Host_Library/Core/Src/usbh_core.c ****   */
1194:Middlewares/ST/STM32_USB_Host_Library/Core/Src/usbh_core.c **** void  USBH_LL_IncTimer(USBH_HandleTypeDef *phost)
1195:Middlewares/ST/STM32_USB_Host_Library/Core/Src/usbh_core.c **** {
1196:Middlewares/ST/STM32_USB_Host_Library/Core/Src/usbh_core.c ****   phost->Timer++;
1197:Middlewares/ST/STM32_USB_Host_Library/Core/Src/usbh_core.c ****   USBH_HandleSof(phost);
1198:Middlewares/ST/STM32_USB_Host_Library/Core/Src/usbh_core.c **** }
1199:Middlewares/ST/STM32_USB_Host_Library/Core/Src/usbh_core.c **** 
1200:Middlewares/ST/STM32_USB_Host_Library/Core/Src/usbh_core.c **** 
1201:Middlewares/ST/STM32_USB_Host_Library/Core/Src/usbh_core.c **** /**
1202:Middlewares/ST/STM32_USB_Host_Library/Core/Src/usbh_core.c ****   * @brief  USBH_HandleSof
1203:Middlewares/ST/STM32_USB_Host_Library/Core/Src/usbh_core.c ****   *         Call SOF process
1204:Middlewares/ST/STM32_USB_Host_Library/Core/Src/usbh_core.c ****   * @param  phost: Host Handle
1205:Middlewares/ST/STM32_USB_Host_Library/Core/Src/usbh_core.c ****   * @retval None
1206:Middlewares/ST/STM32_USB_Host_Library/Core/Src/usbh_core.c ****   */
1207:Middlewares/ST/STM32_USB_Host_Library/Core/Src/usbh_core.c **** static void  USBH_HandleSof(USBH_HandleTypeDef *phost)
1208:Middlewares/ST/STM32_USB_Host_Library/Core/Src/usbh_core.c **** {
 146              		.loc 1 1208 1 is_stmt 1 view -0
 147              		.cfi_startproc
 148              		@ args = 0, pretend = 0, frame = 0
 149              		@ frame_needed = 0, uses_anonymous_args = 0
 150              		.loc 1 1208 1 is_stmt 0 view .LVU48
 151 0000 08B5     		push	{r3, lr}
 152              	.LCFI2:
 153              		.cfi_def_cfa_offset 8
 154              		.cfi_offset 3, -8
 155              		.cfi_offset 14, -4
1209:Middlewares/ST/STM32_USB_Host_Library/Core/Src/usbh_core.c ****   if ((phost->gState == HOST_CLASS) && (phost->pActiveClass != NULL))
 156              		.loc 1 1209 3 is_stmt 1 view .LVU49
ARM GAS  /tmp/ccKRVJ90.s 			page 25


 157              		.loc 1 1209 13 is_stmt 0 view .LVU50
 158 0002 0378     		ldrb	r3, [r0]	@ zero_extendqisi2
 159 0004 DBB2     		uxtb	r3, r3
 160              		.loc 1 1209 6 view .LVU51
 161 0006 0B2B     		cmp	r3, #11
 162 0008 00D0     		beq	.L12
 163              	.LVL10:
 164              	.L9:
1210:Middlewares/ST/STM32_USB_Host_Library/Core/Src/usbh_core.c ****   {
1211:Middlewares/ST/STM32_USB_Host_Library/Core/Src/usbh_core.c ****     phost->pActiveClass->SOFProcess(phost);
1212:Middlewares/ST/STM32_USB_Host_Library/Core/Src/usbh_core.c ****   }
1213:Middlewares/ST/STM32_USB_Host_Library/Core/Src/usbh_core.c **** }
 165              		.loc 1 1213 1 view .LVU52
 166 000a 08BD     		pop	{r3, pc}
 167              	.LVL11:
 168              	.L12:
1209:Middlewares/ST/STM32_USB_Host_Library/Core/Src/usbh_core.c ****   if ((phost->gState == HOST_CLASS) && (phost->pActiveClass != NULL))
 169              		.loc 1 1209 46 discriminator 1 view .LVU53
 170 000c D0F87C33 		ldr	r3, [r0, #892]
1209:Middlewares/ST/STM32_USB_Host_Library/Core/Src/usbh_core.c ****   if ((phost->gState == HOST_CLASS) && (phost->pActiveClass != NULL))
 171              		.loc 1 1209 37 discriminator 1 view .LVU54
 172 0010 002B     		cmp	r3, #0
 173 0012 FAD0     		beq	.L9
1211:Middlewares/ST/STM32_USB_Host_Library/Core/Src/usbh_core.c ****   }
 174              		.loc 1 1211 5 is_stmt 1 view .LVU55
1211:Middlewares/ST/STM32_USB_Host_Library/Core/Src/usbh_core.c ****   }
 175              		.loc 1 1211 24 is_stmt 0 view .LVU56
 176 0014 9B69     		ldr	r3, [r3, #24]
1211:Middlewares/ST/STM32_USB_Host_Library/Core/Src/usbh_core.c ****   }
 177              		.loc 1 1211 5 view .LVU57
 178 0016 9847     		blx	r3
 179              	.LVL12:
 180              		.loc 1 1213 1 view .LVU58
 181 0018 F7E7     		b	.L9
 182              		.cfi_endproc
 183              	.LFE257:
 185              		.section	.text.USBH_HandleEnum,"ax",%progbits
 186              		.align	1
 187              		.syntax unified
 188              		.thumb
 189              		.thumb_func
 190              		.fpu fpv4-sp-d16
 192              	USBH_HandleEnum:
 193              	.LVL13:
 194              	.LFB254:
 844:Middlewares/ST/STM32_USB_Host_Library/Core/Src/usbh_core.c ****   USBH_StatusTypeDef Status = USBH_BUSY;
 195              		.loc 1 844 1 is_stmt 1 view -0
 196              		.cfi_startproc
 197              		@ args = 0, pretend = 0, frame = 0
 198              		@ frame_needed = 0, uses_anonymous_args = 0
 844:Middlewares/ST/STM32_USB_Host_Library/Core/Src/usbh_core.c ****   USBH_StatusTypeDef Status = USBH_BUSY;
 199              		.loc 1 844 1 is_stmt 0 view .LVU60
 200 0000 70B5     		push	{r4, r5, r6, lr}
 201              	.LCFI3:
 202              		.cfi_def_cfa_offset 16
 203              		.cfi_offset 4, -16
 204              		.cfi_offset 5, -12
ARM GAS  /tmp/ccKRVJ90.s 			page 26


 205              		.cfi_offset 6, -8
 206              		.cfi_offset 14, -4
 207 0002 84B0     		sub	sp, sp, #16
 208              	.LCFI4:
 209              		.cfi_def_cfa_offset 32
 210 0004 0446     		mov	r4, r0
 845:Middlewares/ST/STM32_USB_Host_Library/Core/Src/usbh_core.c ****   USBH_StatusTypeDef ReqStatus = USBH_BUSY;
 211              		.loc 1 845 3 is_stmt 1 view .LVU61
 212              	.LVL14:
 846:Middlewares/ST/STM32_USB_Host_Library/Core/Src/usbh_core.c **** 
 213              		.loc 1 846 3 view .LVU62
 848:Middlewares/ST/STM32_USB_Host_Library/Core/Src/usbh_core.c ****   {
 214              		.loc 1 848 3 view .LVU63
 848:Middlewares/ST/STM32_USB_Host_Library/Core/Src/usbh_core.c ****   {
 215              		.loc 1 848 16 is_stmt 0 view .LVU64
 216 0006 4578     		ldrb	r5, [r0, #1]	@ zero_extendqisi2
 217 0008 072D     		cmp	r5, #7
 218 000a 00F26381 		bhi	.L37
 219 000e DFE815F0 		tbh	[pc, r5, lsl #1]
 220              	.L16:
 221 0012 0800     		.2byte	(.L23-.L16)/2
 222 0014 4800     		.2byte	(.L22-.L16)/2
 223 0016 6900     		.2byte	(.L21-.L16)/2
 224 0018 9A00     		.2byte	(.L20-.L16)/2
 225 001a BF00     		.2byte	(.L19-.L16)/2
 226 001c E500     		.2byte	(.L18-.L16)/2
 227 001e 1F01     		.2byte	(.L17-.L16)/2
 228 0020 4E01     		.2byte	(.L15-.L16)/2
 229              		.p2align 1
 230              	.L23:
 852:Middlewares/ST/STM32_USB_Host_Library/Core/Src/usbh_core.c ****       if (ReqStatus == USBH_OK)
 231              		.loc 1 852 7 is_stmt 1 view .LVU65
 852:Middlewares/ST/STM32_USB_Host_Library/Core/Src/usbh_core.c ****       if (ReqStatus == USBH_OK)
 232              		.loc 1 852 19 is_stmt 0 view .LVU66
 233 0022 0821     		movs	r1, #8
 234 0024 FFF7FEFF 		bl	USBH_Get_DevDesc
 235              	.LVL15:
 853:Middlewares/ST/STM32_USB_Host_Library/Core/Src/usbh_core.c ****       {
 236              		.loc 1 853 7 is_stmt 1 view .LVU67
 853:Middlewares/ST/STM32_USB_Host_Library/Core/Src/usbh_core.c ****       {
 237              		.loc 1 853 10 is_stmt 0 view .LVU68
 238 0028 18B1     		cbz	r0, .L46
 869:Middlewares/ST/STM32_USB_Host_Library/Core/Src/usbh_core.c ****       {
 239              		.loc 1 869 12 is_stmt 1 view .LVU69
 869:Middlewares/ST/STM32_USB_Host_Library/Core/Src/usbh_core.c ****       {
 240              		.loc 1 869 15 is_stmt 0 view .LVU70
 241 002a 0328     		cmp	r0, #3
 242 002c 21D0     		beq	.L47
 845:Middlewares/ST/STM32_USB_Host_Library/Core/Src/usbh_core.c ****   USBH_StatusTypeDef ReqStatus = USBH_BUSY;
 243              		.loc 1 845 22 view .LVU71
 244 002e 0125     		movs	r5, #1
 245 0030 40E1     		b	.L14
 246              	.L46:
 855:Middlewares/ST/STM32_USB_Host_Library/Core/Src/usbh_core.c **** 
 247              		.loc 1 855 9 is_stmt 1 view .LVU72
 855:Middlewares/ST/STM32_USB_Host_Library/Core/Src/usbh_core.c **** 
 248              		.loc 1 855 57 is_stmt 0 view .LVU73
ARM GAS  /tmp/ccKRVJ90.s 			page 27


 249 0032 94F82D33 		ldrb	r3, [r4, #813]	@ zero_extendqisi2
 855:Middlewares/ST/STM32_USB_Host_Library/Core/Src/usbh_core.c **** 
 250              		.loc 1 855 34 view .LVU74
 251 0036 A371     		strb	r3, [r4, #6]
 857:Middlewares/ST/STM32_USB_Host_Library/Core/Src/usbh_core.c **** 
 252              		.loc 1 857 9 is_stmt 1 view .LVU75
 857:Middlewares/ST/STM32_USB_Host_Library/Core/Src/usbh_core.c **** 
 253              		.loc 1 857 26 is_stmt 0 view .LVU76
 254 0038 0125     		movs	r5, #1
 255 003a 6570     		strb	r5, [r4, #1]
 860:Middlewares/ST/STM32_USB_Host_Library/Core/Src/usbh_core.c ****                             phost->device.speed, USBH_EP_CONTROL,
 256              		.loc 1 860 9 is_stmt 1 view .LVU77
 860:Middlewares/ST/STM32_USB_Host_Library/Core/Src/usbh_core.c ****                             phost->device.speed, USBH_EP_CONTROL,
 257              		.loc 1 860 15 is_stmt 0 view .LVU78
 258 003c 0293     		str	r3, [sp, #8]
 259 003e 0026     		movs	r6, #0
 260 0040 0196     		str	r6, [sp, #4]
 261 0042 94F81D33 		ldrb	r3, [r4, #797]	@ zero_extendqisi2
 262 0046 0093     		str	r3, [sp]
 263 0048 94F81C33 		ldrb	r3, [r4, #796]	@ zero_extendqisi2
 264 004c 8022     		movs	r2, #128
 265 004e 2179     		ldrb	r1, [r4, #4]	@ zero_extendqisi2
 266 0050 2046     		mov	r0, r4
 267              	.LVL16:
 860:Middlewares/ST/STM32_USB_Host_Library/Core/Src/usbh_core.c ****                             phost->device.speed, USBH_EP_CONTROL,
 268              		.loc 1 860 15 view .LVU79
 269 0052 FFF7FEFF 		bl	USBH_OpenPipe
 270              	.LVL17:
 865:Middlewares/ST/STM32_USB_Host_Library/Core/Src/usbh_core.c ****                             phost->device.speed, USBH_EP_CONTROL,
 271              		.loc 1 865 9 is_stmt 1 view .LVU80
 865:Middlewares/ST/STM32_USB_Host_Library/Core/Src/usbh_core.c ****                             phost->device.speed, USBH_EP_CONTROL,
 272              		.loc 1 865 15 is_stmt 0 view .LVU81
 273 0056 A379     		ldrb	r3, [r4, #6]	@ zero_extendqisi2
 274 0058 0293     		str	r3, [sp, #8]
 275 005a 0196     		str	r6, [sp, #4]
 276 005c 94F81D33 		ldrb	r3, [r4, #797]	@ zero_extendqisi2
 277 0060 0093     		str	r3, [sp]
 278 0062 94F81C33 		ldrb	r3, [r4, #796]	@ zero_extendqisi2
 279 0066 3246     		mov	r2, r6
 280 0068 6179     		ldrb	r1, [r4, #5]	@ zero_extendqisi2
 281 006a 2046     		mov	r0, r4
 282 006c FFF7FEFF 		bl	USBH_OpenPipe
 283              	.LVL18:
 284 0070 20E1     		b	.L14
 285              	.LVL19:
 286              	.L47:
 871:Middlewares/ST/STM32_USB_Host_Library/Core/Src/usbh_core.c ****         phost->device.EnumCnt++;
 287              		.loc 1 871 9 is_stmt 1 view .LVU82
 871:Middlewares/ST/STM32_USB_Host_Library/Core/Src/usbh_core.c ****         phost->device.EnumCnt++;
 288              		.loc 1 871 9 view .LVU83
 871:Middlewares/ST/STM32_USB_Host_Library/Core/Src/usbh_core.c ****         phost->device.EnumCnt++;
 289              		.loc 1 871 9 view .LVU84
 872:Middlewares/ST/STM32_USB_Host_Library/Core/Src/usbh_core.c ****         if (phost->device.EnumCnt > 3U)
 290              		.loc 1 872 9 view .LVU85
 872:Middlewares/ST/STM32_USB_Host_Library/Core/Src/usbh_core.c ****         if (phost->device.EnumCnt > 3U)
 291              		.loc 1 872 22 is_stmt 0 view .LVU86
 292 0072 94F81E33 		ldrb	r3, [r4, #798]	@ zero_extendqisi2
ARM GAS  /tmp/ccKRVJ90.s 			page 28


 872:Middlewares/ST/STM32_USB_Host_Library/Core/Src/usbh_core.c ****         if (phost->device.EnumCnt > 3U)
 293              		.loc 1 872 30 view .LVU87
 294 0076 0133     		adds	r3, r3, #1
 295 0078 DBB2     		uxtb	r3, r3
 296 007a 84F81E33 		strb	r3, [r4, #798]
 873:Middlewares/ST/STM32_USB_Host_Library/Core/Src/usbh_core.c ****         {
 297              		.loc 1 873 9 is_stmt 1 view .LVU88
 873:Middlewares/ST/STM32_USB_Host_Library/Core/Src/usbh_core.c ****         {
 298              		.loc 1 873 12 is_stmt 0 view .LVU89
 299 007e 032B     		cmp	r3, #3
 300 0080 03D9     		bls	.L25
 876:Middlewares/ST/STM32_USB_Host_Library/Core/Src/usbh_core.c ****           phost->gState = HOST_ABORT_STATE;
 301              		.loc 1 876 11 is_stmt 1 view .LVU90
 876:Middlewares/ST/STM32_USB_Host_Library/Core/Src/usbh_core.c ****           phost->gState = HOST_ABORT_STATE;
 302              		.loc 1 876 11 view .LVU91
 876:Middlewares/ST/STM32_USB_Host_Library/Core/Src/usbh_core.c ****           phost->gState = HOST_ABORT_STATE;
 303              		.loc 1 876 11 view .LVU92
 877:Middlewares/ST/STM32_USB_Host_Library/Core/Src/usbh_core.c ****         }
 304              		.loc 1 877 11 view .LVU93
 877:Middlewares/ST/STM32_USB_Host_Library/Core/Src/usbh_core.c ****         }
 305              		.loc 1 877 25 is_stmt 0 view .LVU94
 306 0082 0D23     		movs	r3, #13
 307 0084 2370     		strb	r3, [r4]
 845:Middlewares/ST/STM32_USB_Host_Library/Core/Src/usbh_core.c ****   USBH_StatusTypeDef ReqStatus = USBH_BUSY;
 308              		.loc 1 845 22 view .LVU95
 309 0086 0125     		movs	r5, #1
 310 0088 14E1     		b	.L14
 311              	.L25:
 882:Middlewares/ST/STM32_USB_Host_Library/Core/Src/usbh_core.c ****           (void)USBH_FreePipe(phost, phost->Control.pipe_in);
 312              		.loc 1 882 11 is_stmt 1 view .LVU96
 882:Middlewares/ST/STM32_USB_Host_Library/Core/Src/usbh_core.c ****           (void)USBH_FreePipe(phost, phost->Control.pipe_in);
 313              		.loc 1 882 17 is_stmt 0 view .LVU97
 314 008a 6179     		ldrb	r1, [r4, #5]	@ zero_extendqisi2
 315 008c 2046     		mov	r0, r4
 316              	.LVL20:
 882:Middlewares/ST/STM32_USB_Host_Library/Core/Src/usbh_core.c ****           (void)USBH_FreePipe(phost, phost->Control.pipe_in);
 317              		.loc 1 882 17 view .LVU98
 318 008e FFF7FEFF 		bl	USBH_FreePipe
 319              	.LVL21:
 883:Middlewares/ST/STM32_USB_Host_Library/Core/Src/usbh_core.c **** 
 320              		.loc 1 883 11 is_stmt 1 view .LVU99
 883:Middlewares/ST/STM32_USB_Host_Library/Core/Src/usbh_core.c **** 
 321              		.loc 1 883 17 is_stmt 0 view .LVU100
 322 0092 2179     		ldrb	r1, [r4, #4]	@ zero_extendqisi2
 323 0094 2046     		mov	r0, r4
 324 0096 FFF7FEFF 		bl	USBH_FreePipe
 325              	.LVL22:
 886:Middlewares/ST/STM32_USB_Host_Library/Core/Src/usbh_core.c ****         }
 326              		.loc 1 886 11 is_stmt 1 view .LVU101
 886:Middlewares/ST/STM32_USB_Host_Library/Core/Src/usbh_core.c ****         }
 327              		.loc 1 886 25 is_stmt 0 view .LVU102
 328 009a 0023     		movs	r3, #0
 329 009c 2370     		strb	r3, [r4]
 845:Middlewares/ST/STM32_USB_Host_Library/Core/Src/usbh_core.c ****   USBH_StatusTypeDef ReqStatus = USBH_BUSY;
 330              		.loc 1 845 22 view .LVU103
 331 009e 0125     		movs	r5, #1
 332 00a0 08E1     		b	.L14
ARM GAS  /tmp/ccKRVJ90.s 			page 29


 333              	.LVL23:
 334              	.L22:
 897:Middlewares/ST/STM32_USB_Host_Library/Core/Src/usbh_core.c ****       if (ReqStatus == USBH_OK)
 335              		.loc 1 897 7 is_stmt 1 view .LVU104
 897:Middlewares/ST/STM32_USB_Host_Library/Core/Src/usbh_core.c ****       if (ReqStatus == USBH_OK)
 336              		.loc 1 897 19 is_stmt 0 view .LVU105
 337 00a2 1221     		movs	r1, #18
 338 00a4 FFF7FEFF 		bl	USBH_Get_DevDesc
 339              	.LVL24:
 898:Middlewares/ST/STM32_USB_Host_Library/Core/Src/usbh_core.c ****       {
 340              		.loc 1 898 7 is_stmt 1 view .LVU106
 898:Middlewares/ST/STM32_USB_Host_Library/Core/Src/usbh_core.c ****       {
 341              		.loc 1 898 10 is_stmt 0 view .LVU107
 342 00a8 10B9     		cbnz	r0, .L26
 900:Middlewares/ST/STM32_USB_Host_Library/Core/Src/usbh_core.c ****         USBH_UsrLog("VID: %xh", phost->device.DevDesc.idVendor);
 343              		.loc 1 900 9 is_stmt 1 view .LVU108
 900:Middlewares/ST/STM32_USB_Host_Library/Core/Src/usbh_core.c ****         USBH_UsrLog("VID: %xh", phost->device.DevDesc.idVendor);
 344              		.loc 1 900 9 view .LVU109
 900:Middlewares/ST/STM32_USB_Host_Library/Core/Src/usbh_core.c ****         USBH_UsrLog("VID: %xh", phost->device.DevDesc.idVendor);
 345              		.loc 1 900 9 view .LVU110
 901:Middlewares/ST/STM32_USB_Host_Library/Core/Src/usbh_core.c **** 
 346              		.loc 1 901 9 view .LVU111
 901:Middlewares/ST/STM32_USB_Host_Library/Core/Src/usbh_core.c **** 
 347              		.loc 1 901 9 view .LVU112
 901:Middlewares/ST/STM32_USB_Host_Library/Core/Src/usbh_core.c **** 
 348              		.loc 1 901 9 view .LVU113
 903:Middlewares/ST/STM32_USB_Host_Library/Core/Src/usbh_core.c ****       }
 349              		.loc 1 903 9 view .LVU114
 903:Middlewares/ST/STM32_USB_Host_Library/Core/Src/usbh_core.c ****       }
 350              		.loc 1 903 26 is_stmt 0 view .LVU115
 351 00aa 0223     		movs	r3, #2
 352 00ac 6370     		strb	r3, [r4, #1]
 353 00ae 01E1     		b	.L14
 354              	.L26:
 905:Middlewares/ST/STM32_USB_Host_Library/Core/Src/usbh_core.c ****       {
 355              		.loc 1 905 12 is_stmt 1 view .LVU116
 905:Middlewares/ST/STM32_USB_Host_Library/Core/Src/usbh_core.c ****       {
 356              		.loc 1 905 15 is_stmt 0 view .LVU117
 357 00b0 0328     		cmp	r0, #3
 358 00b2 40F0FF80 		bne	.L14
 907:Middlewares/ST/STM32_USB_Host_Library/Core/Src/usbh_core.c ****         phost->device.EnumCnt++;
 359              		.loc 1 907 9 is_stmt 1 view .LVU118
 907:Middlewares/ST/STM32_USB_Host_Library/Core/Src/usbh_core.c ****         phost->device.EnumCnt++;
 360              		.loc 1 907 9 view .LVU119
 907:Middlewares/ST/STM32_USB_Host_Library/Core/Src/usbh_core.c ****         phost->device.EnumCnt++;
 361              		.loc 1 907 9 view .LVU120
 908:Middlewares/ST/STM32_USB_Host_Library/Core/Src/usbh_core.c ****         if (phost->device.EnumCnt > 3U)
 362              		.loc 1 908 9 view .LVU121
 908:Middlewares/ST/STM32_USB_Host_Library/Core/Src/usbh_core.c ****         if (phost->device.EnumCnt > 3U)
 363              		.loc 1 908 22 is_stmt 0 view .LVU122
 364 00b6 94F81E33 		ldrb	r3, [r4, #798]	@ zero_extendqisi2
 908:Middlewares/ST/STM32_USB_Host_Library/Core/Src/usbh_core.c ****         if (phost->device.EnumCnt > 3U)
 365              		.loc 1 908 30 view .LVU123
 366 00ba 0133     		adds	r3, r3, #1
 367 00bc DBB2     		uxtb	r3, r3
 368 00be 84F81E33 		strb	r3, [r4, #798]
 909:Middlewares/ST/STM32_USB_Host_Library/Core/Src/usbh_core.c ****         {
ARM GAS  /tmp/ccKRVJ90.s 			page 30


 369              		.loc 1 909 9 is_stmt 1 view .LVU124
 909:Middlewares/ST/STM32_USB_Host_Library/Core/Src/usbh_core.c ****         {
 370              		.loc 1 909 12 is_stmt 0 view .LVU125
 371 00c2 032B     		cmp	r3, #3
 372 00c4 02D9     		bls	.L27
 912:Middlewares/ST/STM32_USB_Host_Library/Core/Src/usbh_core.c ****           phost->gState = HOST_ABORT_STATE;
 373              		.loc 1 912 11 is_stmt 1 view .LVU126
 912:Middlewares/ST/STM32_USB_Host_Library/Core/Src/usbh_core.c ****           phost->gState = HOST_ABORT_STATE;
 374              		.loc 1 912 11 view .LVU127
 912:Middlewares/ST/STM32_USB_Host_Library/Core/Src/usbh_core.c ****           phost->gState = HOST_ABORT_STATE;
 375              		.loc 1 912 11 view .LVU128
 913:Middlewares/ST/STM32_USB_Host_Library/Core/Src/usbh_core.c ****         }
 376              		.loc 1 913 11 view .LVU129
 913:Middlewares/ST/STM32_USB_Host_Library/Core/Src/usbh_core.c ****         }
 377              		.loc 1 913 25 is_stmt 0 view .LVU130
 378 00c6 0D23     		movs	r3, #13
 379 00c8 2370     		strb	r3, [r4]
 380 00ca F3E0     		b	.L14
 381              	.L27:
 918:Middlewares/ST/STM32_USB_Host_Library/Core/Src/usbh_core.c ****           (void)USBH_FreePipe(phost, phost->Control.pipe_in);
 382              		.loc 1 918 11 is_stmt 1 view .LVU131
 918:Middlewares/ST/STM32_USB_Host_Library/Core/Src/usbh_core.c ****           (void)USBH_FreePipe(phost, phost->Control.pipe_in);
 383              		.loc 1 918 17 is_stmt 0 view .LVU132
 384 00cc 6179     		ldrb	r1, [r4, #5]	@ zero_extendqisi2
 385 00ce 2046     		mov	r0, r4
 386              	.LVL25:
 918:Middlewares/ST/STM32_USB_Host_Library/Core/Src/usbh_core.c ****           (void)USBH_FreePipe(phost, phost->Control.pipe_in);
 387              		.loc 1 918 17 view .LVU133
 388 00d0 FFF7FEFF 		bl	USBH_FreePipe
 389              	.LVL26:
 919:Middlewares/ST/STM32_USB_Host_Library/Core/Src/usbh_core.c **** 
 390              		.loc 1 919 11 is_stmt 1 view .LVU134
 919:Middlewares/ST/STM32_USB_Host_Library/Core/Src/usbh_core.c **** 
 391              		.loc 1 919 17 is_stmt 0 view .LVU135
 392 00d4 2179     		ldrb	r1, [r4, #4]	@ zero_extendqisi2
 393 00d6 2046     		mov	r0, r4
 394 00d8 FFF7FEFF 		bl	USBH_FreePipe
 395              	.LVL27:
 922:Middlewares/ST/STM32_USB_Host_Library/Core/Src/usbh_core.c ****           phost->gState = HOST_IDLE;
 396              		.loc 1 922 11 is_stmt 1 view .LVU136
 922:Middlewares/ST/STM32_USB_Host_Library/Core/Src/usbh_core.c ****           phost->gState = HOST_IDLE;
 397              		.loc 1 922 28 is_stmt 0 view .LVU137
 398 00dc 0023     		movs	r3, #0
 399 00de 6370     		strb	r3, [r4, #1]
 923:Middlewares/ST/STM32_USB_Host_Library/Core/Src/usbh_core.c ****         }
 400              		.loc 1 923 11 is_stmt 1 view .LVU138
 923:Middlewares/ST/STM32_USB_Host_Library/Core/Src/usbh_core.c ****         }
 401              		.loc 1 923 25 is_stmt 0 view .LVU139
 402 00e0 2370     		strb	r3, [r4]
 403 00e2 E7E0     		b	.L14
 404              	.LVL28:
 405              	.L21:
 934:Middlewares/ST/STM32_USB_Host_Library/Core/Src/usbh_core.c ****       if (ReqStatus == USBH_OK)
 406              		.loc 1 934 7 is_stmt 1 view .LVU140
 934:Middlewares/ST/STM32_USB_Host_Library/Core/Src/usbh_core.c ****       if (ReqStatus == USBH_OK)
 407              		.loc 1 934 19 is_stmt 0 view .LVU141
 408 00e4 0121     		movs	r1, #1
ARM GAS  /tmp/ccKRVJ90.s 			page 31


 409 00e6 FFF7FEFF 		bl	USBH_SetAddress
 410              	.LVL29:
 935:Middlewares/ST/STM32_USB_Host_Library/Core/Src/usbh_core.c ****       {
 411              		.loc 1 935 7 is_stmt 1 view .LVU142
 935:Middlewares/ST/STM32_USB_Host_Library/Core/Src/usbh_core.c ****       {
 412              		.loc 1 935 10 is_stmt 0 view .LVU143
 413 00ea 18B1     		cbz	r0, .L48
 954:Middlewares/ST/STM32_USB_Host_Library/Core/Src/usbh_core.c ****       {
 414              		.loc 1 954 12 is_stmt 1 view .LVU144
 954:Middlewares/ST/STM32_USB_Host_Library/Core/Src/usbh_core.c ****       {
 415              		.loc 1 954 15 is_stmt 0 view .LVU145
 416 00ec 0328     		cmp	r0, #3
 417 00ee 24D0     		beq	.L49
 845:Middlewares/ST/STM32_USB_Host_Library/Core/Src/usbh_core.c ****   USBH_StatusTypeDef ReqStatus = USBH_BUSY;
 418              		.loc 1 845 22 view .LVU146
 419 00f0 0125     		movs	r5, #1
 420 00f2 DFE0     		b	.L14
 421              	.L48:
 937:Middlewares/ST/STM32_USB_Host_Library/Core/Src/usbh_core.c ****         phost->device.address = USBH_DEVICE_ADDRESS;
 422              		.loc 1 937 9 is_stmt 1 view .LVU147
 423 00f4 0220     		movs	r0, #2
 424              	.LVL30:
 937:Middlewares/ST/STM32_USB_Host_Library/Core/Src/usbh_core.c ****         phost->device.address = USBH_DEVICE_ADDRESS;
 425              		.loc 1 937 9 is_stmt 0 view .LVU148
 426 00f6 FFF7FEFF 		bl	USBH_Delay
 427              	.LVL31:
 938:Middlewares/ST/STM32_USB_Host_Library/Core/Src/usbh_core.c **** 
 428              		.loc 1 938 9 is_stmt 1 view .LVU149
 938:Middlewares/ST/STM32_USB_Host_Library/Core/Src/usbh_core.c **** 
 429              		.loc 1 938 31 is_stmt 0 view .LVU150
 430 00fa 0125     		movs	r5, #1
 431 00fc 84F81C53 		strb	r5, [r4, #796]
 941:Middlewares/ST/STM32_USB_Host_Library/Core/Src/usbh_core.c ****         phost->EnumState = ENUM_GET_CFG_DESC;
 432              		.loc 1 941 9 is_stmt 1 view .LVU151
 941:Middlewares/ST/STM32_USB_Host_Library/Core/Src/usbh_core.c ****         phost->EnumState = ENUM_GET_CFG_DESC;
 433              		.loc 1 941 9 view .LVU152
 941:Middlewares/ST/STM32_USB_Host_Library/Core/Src/usbh_core.c ****         phost->EnumState = ENUM_GET_CFG_DESC;
 434              		.loc 1 941 9 view .LVU153
 942:Middlewares/ST/STM32_USB_Host_Library/Core/Src/usbh_core.c **** 
 435              		.loc 1 942 9 view .LVU154
 942:Middlewares/ST/STM32_USB_Host_Library/Core/Src/usbh_core.c **** 
 436              		.loc 1 942 26 is_stmt 0 view .LVU155
 437 0100 0323     		movs	r3, #3
 438 0102 6370     		strb	r3, [r4, #1]
 945:Middlewares/ST/STM32_USB_Host_Library/Core/Src/usbh_core.c ****                             phost->device.speed, USBH_EP_CONTROL,
 439              		.loc 1 945 9 is_stmt 1 view .LVU156
 945:Middlewares/ST/STM32_USB_Host_Library/Core/Src/usbh_core.c ****                             phost->device.speed, USBH_EP_CONTROL,
 440              		.loc 1 945 15 is_stmt 0 view .LVU157
 441 0104 A379     		ldrb	r3, [r4, #6]	@ zero_extendqisi2
 442 0106 0293     		str	r3, [sp, #8]
 443 0108 0026     		movs	r6, #0
 444 010a 0196     		str	r6, [sp, #4]
 445 010c 94F81D33 		ldrb	r3, [r4, #797]	@ zero_extendqisi2
 446 0110 0093     		str	r3, [sp]
 447 0112 2B46     		mov	r3, r5
 448 0114 8022     		movs	r2, #128
 449 0116 2179     		ldrb	r1, [r4, #4]	@ zero_extendqisi2
ARM GAS  /tmp/ccKRVJ90.s 			page 32


 450 0118 2046     		mov	r0, r4
 451 011a FFF7FEFF 		bl	USBH_OpenPipe
 452              	.LVL32:
 950:Middlewares/ST/STM32_USB_Host_Library/Core/Src/usbh_core.c ****                             phost->device.speed, USBH_EP_CONTROL,
 453              		.loc 1 950 9 is_stmt 1 view .LVU158
 950:Middlewares/ST/STM32_USB_Host_Library/Core/Src/usbh_core.c ****                             phost->device.speed, USBH_EP_CONTROL,
 454              		.loc 1 950 15 is_stmt 0 view .LVU159
 455 011e A379     		ldrb	r3, [r4, #6]	@ zero_extendqisi2
 456 0120 0293     		str	r3, [sp, #8]
 457 0122 0196     		str	r6, [sp, #4]
 458 0124 94F81D33 		ldrb	r3, [r4, #797]	@ zero_extendqisi2
 459 0128 0093     		str	r3, [sp]
 460 012a 94F81C33 		ldrb	r3, [r4, #796]	@ zero_extendqisi2
 461 012e 3246     		mov	r2, r6
 462 0130 6179     		ldrb	r1, [r4, #5]	@ zero_extendqisi2
 463 0132 2046     		mov	r0, r4
 464 0134 FFF7FEFF 		bl	USBH_OpenPipe
 465              	.LVL33:
 466 0138 BCE0     		b	.L14
 467              	.LVL34:
 468              	.L49:
 956:Middlewares/ST/STM32_USB_Host_Library/Core/Src/usbh_core.c **** 
 469              		.loc 1 956 9 is_stmt 1 view .LVU160
 956:Middlewares/ST/STM32_USB_Host_Library/Core/Src/usbh_core.c **** 
 470              		.loc 1 956 9 view .LVU161
 956:Middlewares/ST/STM32_USB_Host_Library/Core/Src/usbh_core.c **** 
 471              		.loc 1 956 9 view .LVU162
 959:Middlewares/ST/STM32_USB_Host_Library/Core/Src/usbh_core.c ****         phost->gState = HOST_ABORT_STATE;
 472              		.loc 1 959 9 view .LVU163
 959:Middlewares/ST/STM32_USB_Host_Library/Core/Src/usbh_core.c ****         phost->gState = HOST_ABORT_STATE;
 473              		.loc 1 959 9 view .LVU164
 959:Middlewares/ST/STM32_USB_Host_Library/Core/Src/usbh_core.c ****         phost->gState = HOST_ABORT_STATE;
 474              		.loc 1 959 9 view .LVU165
 960:Middlewares/ST/STM32_USB_Host_Library/Core/Src/usbh_core.c ****         phost->EnumState = ENUM_IDLE;
 475              		.loc 1 960 9 view .LVU166
 960:Middlewares/ST/STM32_USB_Host_Library/Core/Src/usbh_core.c ****         phost->EnumState = ENUM_IDLE;
 476              		.loc 1 960 23 is_stmt 0 view .LVU167
 477 013a 0D23     		movs	r3, #13
 478 013c 2370     		strb	r3, [r4]
 961:Middlewares/ST/STM32_USB_Host_Library/Core/Src/usbh_core.c ****       }
 479              		.loc 1 961 9 is_stmt 1 view .LVU168
 961:Middlewares/ST/STM32_USB_Host_Library/Core/Src/usbh_core.c ****       }
 480              		.loc 1 961 26 is_stmt 0 view .LVU169
 481 013e 0023     		movs	r3, #0
 482 0140 6370     		strb	r3, [r4, #1]
 845:Middlewares/ST/STM32_USB_Host_Library/Core/Src/usbh_core.c ****   USBH_StatusTypeDef ReqStatus = USBH_BUSY;
 483              		.loc 1 845 22 view .LVU170
 484 0142 0125     		movs	r5, #1
 485 0144 B6E0     		b	.L14
 486              	.LVL35:
 487              	.L20:
 971:Middlewares/ST/STM32_USB_Host_Library/Core/Src/usbh_core.c ****       if (ReqStatus == USBH_OK)
 488              		.loc 1 971 7 is_stmt 1 view .LVU171
 971:Middlewares/ST/STM32_USB_Host_Library/Core/Src/usbh_core.c ****       if (ReqStatus == USBH_OK)
 489              		.loc 1 971 19 is_stmt 0 view .LVU172
 490 0146 0921     		movs	r1, #9
 491 0148 FFF7FEFF 		bl	USBH_Get_CfgDesc
ARM GAS  /tmp/ccKRVJ90.s 			page 33


 492              	.LVL36:
 972:Middlewares/ST/STM32_USB_Host_Library/Core/Src/usbh_core.c ****       {
 493              		.loc 1 972 7 is_stmt 1 view .LVU173
 972:Middlewares/ST/STM32_USB_Host_Library/Core/Src/usbh_core.c ****       {
 494              		.loc 1 972 10 is_stmt 0 view .LVU174
 495 014c 18B9     		cbnz	r0, .L29
 974:Middlewares/ST/STM32_USB_Host_Library/Core/Src/usbh_core.c ****       }
 496              		.loc 1 974 9 is_stmt 1 view .LVU175
 974:Middlewares/ST/STM32_USB_Host_Library/Core/Src/usbh_core.c ****       }
 497              		.loc 1 974 26 is_stmt 0 view .LVU176
 498 014e 0423     		movs	r3, #4
 499 0150 6370     		strb	r3, [r4, #1]
 845:Middlewares/ST/STM32_USB_Host_Library/Core/Src/usbh_core.c ****   USBH_StatusTypeDef ReqStatus = USBH_BUSY;
 500              		.loc 1 845 22 view .LVU177
 501 0152 0125     		movs	r5, #1
 502 0154 AEE0     		b	.L14
 503              	.L29:
 976:Middlewares/ST/STM32_USB_Host_Library/Core/Src/usbh_core.c ****       {
 504              		.loc 1 976 12 is_stmt 1 view .LVU178
 976:Middlewares/ST/STM32_USB_Host_Library/Core/Src/usbh_core.c ****       {
 505              		.loc 1 976 15 is_stmt 0 view .LVU179
 506 0156 0328     		cmp	r0, #3
 507 0158 01D0     		beq	.L50
 845:Middlewares/ST/STM32_USB_Host_Library/Core/Src/usbh_core.c ****   USBH_StatusTypeDef ReqStatus = USBH_BUSY;
 508              		.loc 1 845 22 view .LVU180
 509 015a 0125     		movs	r5, #1
 510 015c AAE0     		b	.L14
 511              	.L50:
 978:Middlewares/ST/STM32_USB_Host_Library/Core/Src/usbh_core.c ****         phost->device.EnumCnt++;
 512              		.loc 1 978 9 is_stmt 1 view .LVU181
 978:Middlewares/ST/STM32_USB_Host_Library/Core/Src/usbh_core.c ****         phost->device.EnumCnt++;
 513              		.loc 1 978 9 view .LVU182
 978:Middlewares/ST/STM32_USB_Host_Library/Core/Src/usbh_core.c ****         phost->device.EnumCnt++;
 514              		.loc 1 978 9 view .LVU183
 979:Middlewares/ST/STM32_USB_Host_Library/Core/Src/usbh_core.c ****         if (phost->device.EnumCnt > 3U)
 515              		.loc 1 979 9 view .LVU184
 979:Middlewares/ST/STM32_USB_Host_Library/Core/Src/usbh_core.c ****         if (phost->device.EnumCnt > 3U)
 516              		.loc 1 979 22 is_stmt 0 view .LVU185
 517 015e 94F81E33 		ldrb	r3, [r4, #798]	@ zero_extendqisi2
 979:Middlewares/ST/STM32_USB_Host_Library/Core/Src/usbh_core.c ****         if (phost->device.EnumCnt > 3U)
 518              		.loc 1 979 30 view .LVU186
 519 0162 0133     		adds	r3, r3, #1
 520 0164 DBB2     		uxtb	r3, r3
 521 0166 84F81E33 		strb	r3, [r4, #798]
 980:Middlewares/ST/STM32_USB_Host_Library/Core/Src/usbh_core.c ****         {
 522              		.loc 1 980 9 is_stmt 1 view .LVU187
 980:Middlewares/ST/STM32_USB_Host_Library/Core/Src/usbh_core.c ****         {
 523              		.loc 1 980 12 is_stmt 0 view .LVU188
 524 016a 032B     		cmp	r3, #3
 525 016c 03D9     		bls	.L30
 983:Middlewares/ST/STM32_USB_Host_Library/Core/Src/usbh_core.c ****           phost->gState = HOST_ABORT_STATE;
 526              		.loc 1 983 11 is_stmt 1 view .LVU189
 983:Middlewares/ST/STM32_USB_Host_Library/Core/Src/usbh_core.c ****           phost->gState = HOST_ABORT_STATE;
 527              		.loc 1 983 11 view .LVU190
 983:Middlewares/ST/STM32_USB_Host_Library/Core/Src/usbh_core.c ****           phost->gState = HOST_ABORT_STATE;
 528              		.loc 1 983 11 view .LVU191
 984:Middlewares/ST/STM32_USB_Host_Library/Core/Src/usbh_core.c ****         }
ARM GAS  /tmp/ccKRVJ90.s 			page 34


 529              		.loc 1 984 11 view .LVU192
 984:Middlewares/ST/STM32_USB_Host_Library/Core/Src/usbh_core.c ****         }
 530              		.loc 1 984 25 is_stmt 0 view .LVU193
 531 016e 0D23     		movs	r3, #13
 532 0170 2370     		strb	r3, [r4]
 845:Middlewares/ST/STM32_USB_Host_Library/Core/Src/usbh_core.c ****   USBH_StatusTypeDef ReqStatus = USBH_BUSY;
 533              		.loc 1 845 22 view .LVU194
 534 0172 0125     		movs	r5, #1
 535 0174 9EE0     		b	.L14
 536              	.L30:
 989:Middlewares/ST/STM32_USB_Host_Library/Core/Src/usbh_core.c ****           (void)USBH_FreePipe(phost, phost->Control.pipe_in);
 537              		.loc 1 989 11 is_stmt 1 view .LVU195
 989:Middlewares/ST/STM32_USB_Host_Library/Core/Src/usbh_core.c ****           (void)USBH_FreePipe(phost, phost->Control.pipe_in);
 538              		.loc 1 989 17 is_stmt 0 view .LVU196
 539 0176 6179     		ldrb	r1, [r4, #5]	@ zero_extendqisi2
 540 0178 2046     		mov	r0, r4
 541              	.LVL37:
 989:Middlewares/ST/STM32_USB_Host_Library/Core/Src/usbh_core.c ****           (void)USBH_FreePipe(phost, phost->Control.pipe_in);
 542              		.loc 1 989 17 view .LVU197
 543 017a FFF7FEFF 		bl	USBH_FreePipe
 544              	.LVL38:
 990:Middlewares/ST/STM32_USB_Host_Library/Core/Src/usbh_core.c **** 
 545              		.loc 1 990 11 is_stmt 1 view .LVU198
 990:Middlewares/ST/STM32_USB_Host_Library/Core/Src/usbh_core.c **** 
 546              		.loc 1 990 17 is_stmt 0 view .LVU199
 547 017e 2179     		ldrb	r1, [r4, #4]	@ zero_extendqisi2
 548 0180 2046     		mov	r0, r4
 549 0182 FFF7FEFF 		bl	USBH_FreePipe
 550              	.LVL39:
 993:Middlewares/ST/STM32_USB_Host_Library/Core/Src/usbh_core.c ****           phost->gState = HOST_IDLE;
 551              		.loc 1 993 11 is_stmt 1 view .LVU200
 993:Middlewares/ST/STM32_USB_Host_Library/Core/Src/usbh_core.c ****           phost->gState = HOST_IDLE;
 552              		.loc 1 993 28 is_stmt 0 view .LVU201
 553 0186 0023     		movs	r3, #0
 554 0188 6370     		strb	r3, [r4, #1]
 994:Middlewares/ST/STM32_USB_Host_Library/Core/Src/usbh_core.c ****         }
 555              		.loc 1 994 11 is_stmt 1 view .LVU202
 994:Middlewares/ST/STM32_USB_Host_Library/Core/Src/usbh_core.c ****         }
 556              		.loc 1 994 25 is_stmt 0 view .LVU203
 557 018a 2370     		strb	r3, [r4]
 845:Middlewares/ST/STM32_USB_Host_Library/Core/Src/usbh_core.c ****   USBH_StatusTypeDef ReqStatus = USBH_BUSY;
 558              		.loc 1 845 22 view .LVU204
 559 018c 0125     		movs	r5, #1
 560 018e 91E0     		b	.L14
 561              	.LVL40:
 562              	.L19:
1005:Middlewares/ST/STM32_USB_Host_Library/Core/Src/usbh_core.c ****       if (ReqStatus == USBH_OK)
 563              		.loc 1 1005 7 is_stmt 1 view .LVU205
1005:Middlewares/ST/STM32_USB_Host_Library/Core/Src/usbh_core.c ****       if (ReqStatus == USBH_OK)
 564              		.loc 1 1005 19 is_stmt 0 view .LVU206
 565 0190 B0F83A13 		ldrh	r1, [r0, #826]
 566 0194 FFF7FEFF 		bl	USBH_Get_CfgDesc
 567              	.LVL41:
1006:Middlewares/ST/STM32_USB_Host_Library/Core/Src/usbh_core.c ****       {
 568              		.loc 1 1006 7 is_stmt 1 view .LVU207
1006:Middlewares/ST/STM32_USB_Host_Library/Core/Src/usbh_core.c ****       {
 569              		.loc 1 1006 10 is_stmt 0 view .LVU208
ARM GAS  /tmp/ccKRVJ90.s 			page 35


 570 0198 18B9     		cbnz	r0, .L31
1008:Middlewares/ST/STM32_USB_Host_Library/Core/Src/usbh_core.c ****       }
 571              		.loc 1 1008 9 is_stmt 1 view .LVU209
1008:Middlewares/ST/STM32_USB_Host_Library/Core/Src/usbh_core.c ****       }
 572              		.loc 1 1008 26 is_stmt 0 view .LVU210
 573 019a 0523     		movs	r3, #5
 574 019c 6370     		strb	r3, [r4, #1]
 845:Middlewares/ST/STM32_USB_Host_Library/Core/Src/usbh_core.c ****   USBH_StatusTypeDef ReqStatus = USBH_BUSY;
 575              		.loc 1 845 22 view .LVU211
 576 019e 0125     		movs	r5, #1
 577 01a0 88E0     		b	.L14
 578              	.L31:
1010:Middlewares/ST/STM32_USB_Host_Library/Core/Src/usbh_core.c ****       {
 579              		.loc 1 1010 12 is_stmt 1 view .LVU212
1010:Middlewares/ST/STM32_USB_Host_Library/Core/Src/usbh_core.c ****       {
 580              		.loc 1 1010 15 is_stmt 0 view .LVU213
 581 01a2 0328     		cmp	r0, #3
 582 01a4 01D0     		beq	.L51
 845:Middlewares/ST/STM32_USB_Host_Library/Core/Src/usbh_core.c ****   USBH_StatusTypeDef ReqStatus = USBH_BUSY;
 583              		.loc 1 845 22 view .LVU214
 584 01a6 0125     		movs	r5, #1
 585 01a8 84E0     		b	.L14
 586              	.L51:
1012:Middlewares/ST/STM32_USB_Host_Library/Core/Src/usbh_core.c ****         phost->device.EnumCnt++;
 587              		.loc 1 1012 9 is_stmt 1 view .LVU215
1012:Middlewares/ST/STM32_USB_Host_Library/Core/Src/usbh_core.c ****         phost->device.EnumCnt++;
 588              		.loc 1 1012 9 view .LVU216
1012:Middlewares/ST/STM32_USB_Host_Library/Core/Src/usbh_core.c ****         phost->device.EnumCnt++;
 589              		.loc 1 1012 9 view .LVU217
1013:Middlewares/ST/STM32_USB_Host_Library/Core/Src/usbh_core.c ****         if (phost->device.EnumCnt > 3U)
 590              		.loc 1 1013 9 view .LVU218
1013:Middlewares/ST/STM32_USB_Host_Library/Core/Src/usbh_core.c ****         if (phost->device.EnumCnt > 3U)
 591              		.loc 1 1013 22 is_stmt 0 view .LVU219
 592 01aa 94F81E33 		ldrb	r3, [r4, #798]	@ zero_extendqisi2
1013:Middlewares/ST/STM32_USB_Host_Library/Core/Src/usbh_core.c ****         if (phost->device.EnumCnt > 3U)
 593              		.loc 1 1013 30 view .LVU220
 594 01ae 0133     		adds	r3, r3, #1
 595 01b0 DBB2     		uxtb	r3, r3
 596 01b2 84F81E33 		strb	r3, [r4, #798]
1014:Middlewares/ST/STM32_USB_Host_Library/Core/Src/usbh_core.c ****         {
 597              		.loc 1 1014 9 is_stmt 1 view .LVU221
1014:Middlewares/ST/STM32_USB_Host_Library/Core/Src/usbh_core.c ****         {
 598              		.loc 1 1014 12 is_stmt 0 view .LVU222
 599 01b6 032B     		cmp	r3, #3
 600 01b8 03D9     		bls	.L32
1017:Middlewares/ST/STM32_USB_Host_Library/Core/Src/usbh_core.c ****           phost->gState = HOST_ABORT_STATE;
 601              		.loc 1 1017 11 is_stmt 1 view .LVU223
1017:Middlewares/ST/STM32_USB_Host_Library/Core/Src/usbh_core.c ****           phost->gState = HOST_ABORT_STATE;
 602              		.loc 1 1017 11 view .LVU224
1017:Middlewares/ST/STM32_USB_Host_Library/Core/Src/usbh_core.c ****           phost->gState = HOST_ABORT_STATE;
 603              		.loc 1 1017 11 view .LVU225
1018:Middlewares/ST/STM32_USB_Host_Library/Core/Src/usbh_core.c ****         }
 604              		.loc 1 1018 11 view .LVU226
1018:Middlewares/ST/STM32_USB_Host_Library/Core/Src/usbh_core.c ****         }
 605              		.loc 1 1018 25 is_stmt 0 view .LVU227
 606 01ba 0D23     		movs	r3, #13
 607 01bc 2370     		strb	r3, [r4]
ARM GAS  /tmp/ccKRVJ90.s 			page 36


 845:Middlewares/ST/STM32_USB_Host_Library/Core/Src/usbh_core.c ****   USBH_StatusTypeDef ReqStatus = USBH_BUSY;
 608              		.loc 1 845 22 view .LVU228
 609 01be 0125     		movs	r5, #1
 610 01c0 78E0     		b	.L14
 611              	.L32:
1023:Middlewares/ST/STM32_USB_Host_Library/Core/Src/usbh_core.c ****           (void)USBH_FreePipe(phost, phost->Control.pipe_in);
 612              		.loc 1 1023 11 is_stmt 1 view .LVU229
1023:Middlewares/ST/STM32_USB_Host_Library/Core/Src/usbh_core.c ****           (void)USBH_FreePipe(phost, phost->Control.pipe_in);
 613              		.loc 1 1023 17 is_stmt 0 view .LVU230
 614 01c2 6179     		ldrb	r1, [r4, #5]	@ zero_extendqisi2
 615 01c4 2046     		mov	r0, r4
 616              	.LVL42:
1023:Middlewares/ST/STM32_USB_Host_Library/Core/Src/usbh_core.c ****           (void)USBH_FreePipe(phost, phost->Control.pipe_in);
 617              		.loc 1 1023 17 view .LVU231
 618 01c6 FFF7FEFF 		bl	USBH_FreePipe
 619              	.LVL43:
1024:Middlewares/ST/STM32_USB_Host_Library/Core/Src/usbh_core.c **** 
 620              		.loc 1 1024 11 is_stmt 1 view .LVU232
1024:Middlewares/ST/STM32_USB_Host_Library/Core/Src/usbh_core.c **** 
 621              		.loc 1 1024 17 is_stmt 0 view .LVU233
 622 01ca 2179     		ldrb	r1, [r4, #4]	@ zero_extendqisi2
 623 01cc 2046     		mov	r0, r4
 624 01ce FFF7FEFF 		bl	USBH_FreePipe
 625              	.LVL44:
1027:Middlewares/ST/STM32_USB_Host_Library/Core/Src/usbh_core.c ****           phost->gState = HOST_IDLE;
 626              		.loc 1 1027 11 is_stmt 1 view .LVU234
1027:Middlewares/ST/STM32_USB_Host_Library/Core/Src/usbh_core.c ****           phost->gState = HOST_IDLE;
 627              		.loc 1 1027 28 is_stmt 0 view .LVU235
 628 01d2 0023     		movs	r3, #0
 629 01d4 6370     		strb	r3, [r4, #1]
1028:Middlewares/ST/STM32_USB_Host_Library/Core/Src/usbh_core.c ****         }
 630              		.loc 1 1028 11 is_stmt 1 view .LVU236
1028:Middlewares/ST/STM32_USB_Host_Library/Core/Src/usbh_core.c ****         }
 631              		.loc 1 1028 25 is_stmt 0 view .LVU237
 632 01d6 2370     		strb	r3, [r4]
 845:Middlewares/ST/STM32_USB_Host_Library/Core/Src/usbh_core.c ****   USBH_StatusTypeDef ReqStatus = USBH_BUSY;
 633              		.loc 1 845 22 view .LVU238
 634 01d8 0125     		movs	r5, #1
 635 01da 6BE0     		b	.L14
 636              	.LVL45:
 637              	.L18:
1038:Middlewares/ST/STM32_USB_Host_Library/Core/Src/usbh_core.c ****       {
 638              		.loc 1 1038 7 is_stmt 1 view .LVU239
1038:Middlewares/ST/STM32_USB_Host_Library/Core/Src/usbh_core.c ****       {
 639              		.loc 1 1038 32 is_stmt 0 view .LVU240
 640 01dc 90F83413 		ldrb	r1, [r0, #820]	@ zero_extendqisi2
1038:Middlewares/ST/STM32_USB_Host_Library/Core/Src/usbh_core.c ****       {
 641              		.loc 1 1038 10 view .LVU241
 642 01e0 39B3     		cbz	r1, .L33
1041:Middlewares/ST/STM32_USB_Host_Library/Core/Src/usbh_core.c ****                                         phost->device.Data, 0xFFU);
 643              		.loc 1 1041 9 is_stmt 1 view .LVU242
1041:Middlewares/ST/STM32_USB_Host_Library/Core/Src/usbh_core.c ****                                         phost->device.Data, 0xFFU);
 644              		.loc 1 1041 21 is_stmt 0 view .LVU243
 645 01e2 FF23     		movs	r3, #255
 646 01e4 00F58E72 		add	r2, r0, #284
 647 01e8 FFF7FEFF 		bl	USBH_Get_StringDesc
 648              	.LVL46:
ARM GAS  /tmp/ccKRVJ90.s 			page 37


1043:Middlewares/ST/STM32_USB_Host_Library/Core/Src/usbh_core.c ****         {
 649              		.loc 1 1043 9 is_stmt 1 view .LVU244
1043:Middlewares/ST/STM32_USB_Host_Library/Core/Src/usbh_core.c ****         {
 650              		.loc 1 1043 12 is_stmt 0 view .LVU245
 651 01ec 18B1     		cbz	r0, .L52
1058:Middlewares/ST/STM32_USB_Host_Library/Core/Src/usbh_core.c ****         {
 652              		.loc 1 1058 14 is_stmt 1 view .LVU246
1058:Middlewares/ST/STM32_USB_Host_Library/Core/Src/usbh_core.c ****         {
 653              		.loc 1 1058 17 is_stmt 0 view .LVU247
 654 01ee 0328     		cmp	r0, #3
 655 01f0 10D0     		beq	.L53
 845:Middlewares/ST/STM32_USB_Host_Library/Core/Src/usbh_core.c ****   USBH_StatusTypeDef ReqStatus = USBH_BUSY;
 656              		.loc 1 845 22 view .LVU248
 657 01f2 0125     		movs	r5, #1
 658 01f4 5EE0     		b	.L14
 659              	.L52:
1046:Middlewares/ST/STM32_USB_Host_Library/Core/Src/usbh_core.c ****           phost->EnumState = ENUM_GET_PRODUCT_STRING_DESC;
 660              		.loc 1 1046 11 is_stmt 1 view .LVU249
1046:Middlewares/ST/STM32_USB_Host_Library/Core/Src/usbh_core.c ****           phost->EnumState = ENUM_GET_PRODUCT_STRING_DESC;
 661              		.loc 1 1046 11 view .LVU250
1046:Middlewares/ST/STM32_USB_Host_Library/Core/Src/usbh_core.c ****           phost->EnumState = ENUM_GET_PRODUCT_STRING_DESC;
 662              		.loc 1 1046 11 view .LVU251
1047:Middlewares/ST/STM32_USB_Host_Library/Core/Src/usbh_core.c **** 
 663              		.loc 1 1047 11 view .LVU252
1047:Middlewares/ST/STM32_USB_Host_Library/Core/Src/usbh_core.c **** 
 664              		.loc 1 1047 28 is_stmt 0 view .LVU253
 665 01f6 0623     		movs	r3, #6
 666 01f8 6370     		strb	r3, [r4, #1]
1050:Middlewares/ST/STM32_USB_Host_Library/Core/Src/usbh_core.c **** #if (osCMSIS < 0x20000U)
 667              		.loc 1 1050 11 is_stmt 1 view .LVU254
1050:Middlewares/ST/STM32_USB_Host_Library/Core/Src/usbh_core.c **** #if (osCMSIS < 0x20000U)
 668              		.loc 1 1050 25 is_stmt 0 view .LVU255
 669 01fa 0523     		movs	r3, #5
 670 01fc C4F8E033 		str	r3, [r4, #992]
1054:Middlewares/ST/STM32_USB_Host_Library/Core/Src/usbh_core.c **** #endif
 671              		.loc 1 1054 11 is_stmt 1 view .LVU256
1054:Middlewares/ST/STM32_USB_Host_Library/Core/Src/usbh_core.c **** #endif
 672              		.loc 1 1054 17 is_stmt 0 view .LVU257
 673 0200 0023     		movs	r3, #0
 674 0202 1A46     		mov	r2, r3
 675 0204 04F57871 		add	r1, r4, #992
 676 0208 D4F8D803 		ldr	r0, [r4, #984]
 677              	.LVL47:
1054:Middlewares/ST/STM32_USB_Host_Library/Core/Src/usbh_core.c **** #endif
 678              		.loc 1 1054 17 view .LVU258
 679 020c FFF7FEFF 		bl	osMessageQueuePut
 680              	.LVL48:
 845:Middlewares/ST/STM32_USB_Host_Library/Core/Src/usbh_core.c ****   USBH_StatusTypeDef ReqStatus = USBH_BUSY;
 681              		.loc 1 845 22 view .LVU259
 682 0210 0125     		movs	r5, #1
 683 0212 4FE0     		b	.L14
 684              	.LVL49:
 685              	.L53:
1060:Middlewares/ST/STM32_USB_Host_Library/Core/Src/usbh_core.c ****           phost->EnumState = ENUM_GET_PRODUCT_STRING_DESC;
 686              		.loc 1 1060 11 is_stmt 1 view .LVU260
1060:Middlewares/ST/STM32_USB_Host_Library/Core/Src/usbh_core.c ****           phost->EnumState = ENUM_GET_PRODUCT_STRING_DESC;
 687              		.loc 1 1060 11 view .LVU261
ARM GAS  /tmp/ccKRVJ90.s 			page 38


1060:Middlewares/ST/STM32_USB_Host_Library/Core/Src/usbh_core.c ****           phost->EnumState = ENUM_GET_PRODUCT_STRING_DESC;
 688              		.loc 1 1060 11 view .LVU262
1061:Middlewares/ST/STM32_USB_Host_Library/Core/Src/usbh_core.c **** 
 689              		.loc 1 1061 11 view .LVU263
1061:Middlewares/ST/STM32_USB_Host_Library/Core/Src/usbh_core.c **** 
 690              		.loc 1 1061 28 is_stmt 0 view .LVU264
 691 0214 0623     		movs	r3, #6
 692 0216 6370     		strb	r3, [r4, #1]
1064:Middlewares/ST/STM32_USB_Host_Library/Core/Src/usbh_core.c **** #if (osCMSIS < 0x20000U)
 693              		.loc 1 1064 11 is_stmt 1 view .LVU265
1064:Middlewares/ST/STM32_USB_Host_Library/Core/Src/usbh_core.c **** #if (osCMSIS < 0x20000U)
 694              		.loc 1 1064 25 is_stmt 0 view .LVU266
 695 0218 0523     		movs	r3, #5
 696 021a C4F8E033 		str	r3, [r4, #992]
1068:Middlewares/ST/STM32_USB_Host_Library/Core/Src/usbh_core.c **** #endif
 697              		.loc 1 1068 11 is_stmt 1 view .LVU267
1068:Middlewares/ST/STM32_USB_Host_Library/Core/Src/usbh_core.c **** #endif
 698              		.loc 1 1068 17 is_stmt 0 view .LVU268
 699 021e 0023     		movs	r3, #0
 700 0220 1A46     		mov	r2, r3
 701 0222 04F57871 		add	r1, r4, #992
 702 0226 D4F8D803 		ldr	r0, [r4, #984]
 703              	.LVL50:
1068:Middlewares/ST/STM32_USB_Host_Library/Core/Src/usbh_core.c **** #endif
 704              		.loc 1 1068 17 view .LVU269
 705 022a FFF7FEFF 		bl	osMessageQueuePut
 706              	.LVL51:
 845:Middlewares/ST/STM32_USB_Host_Library/Core/Src/usbh_core.c ****   USBH_StatusTypeDef ReqStatus = USBH_BUSY;
 707              		.loc 1 845 22 view .LVU270
 708 022e 0125     		movs	r5, #1
 709 0230 40E0     		b	.L14
 710              	.LVL52:
 711              	.L33:
1079:Middlewares/ST/STM32_USB_Host_Library/Core/Src/usbh_core.c ****         phost->EnumState = ENUM_GET_PRODUCT_STRING_DESC;
 712              		.loc 1 1079 9 is_stmt 1 view .LVU271
1079:Middlewares/ST/STM32_USB_Host_Library/Core/Src/usbh_core.c ****         phost->EnumState = ENUM_GET_PRODUCT_STRING_DESC;
 713              		.loc 1 1079 9 view .LVU272
1079:Middlewares/ST/STM32_USB_Host_Library/Core/Src/usbh_core.c ****         phost->EnumState = ENUM_GET_PRODUCT_STRING_DESC;
 714              		.loc 1 1079 9 view .LVU273
1080:Middlewares/ST/STM32_USB_Host_Library/Core/Src/usbh_core.c **** 
 715              		.loc 1 1080 9 view .LVU274
1080:Middlewares/ST/STM32_USB_Host_Library/Core/Src/usbh_core.c **** 
 716              		.loc 1 1080 26 is_stmt 0 view .LVU275
 717 0232 0623     		movs	r3, #6
 718 0234 4370     		strb	r3, [r0, #1]
1083:Middlewares/ST/STM32_USB_Host_Library/Core/Src/usbh_core.c **** #if (osCMSIS < 0x20000U)
 719              		.loc 1 1083 9 is_stmt 1 view .LVU276
1083:Middlewares/ST/STM32_USB_Host_Library/Core/Src/usbh_core.c **** #if (osCMSIS < 0x20000U)
 720              		.loc 1 1083 23 is_stmt 0 view .LVU277
 721 0236 0523     		movs	r3, #5
 722 0238 C0F8E033 		str	r3, [r0, #992]
1087:Middlewares/ST/STM32_USB_Host_Library/Core/Src/usbh_core.c **** #endif
 723              		.loc 1 1087 9 is_stmt 1 view .LVU278
1087:Middlewares/ST/STM32_USB_Host_Library/Core/Src/usbh_core.c **** #endif
 724              		.loc 1 1087 15 is_stmt 0 view .LVU279
 725 023c 0023     		movs	r3, #0
 726 023e 1A46     		mov	r2, r3
ARM GAS  /tmp/ccKRVJ90.s 			page 39


 727 0240 00F57871 		add	r1, r0, #992
 728 0244 D0F8D803 		ldr	r0, [r0, #984]
 729              	.LVL53:
1087:Middlewares/ST/STM32_USB_Host_Library/Core/Src/usbh_core.c **** #endif
 730              		.loc 1 1087 15 view .LVU280
 731 0248 FFF7FEFF 		bl	osMessageQueuePut
 732              	.LVL54:
 845:Middlewares/ST/STM32_USB_Host_Library/Core/Src/usbh_core.c ****   USBH_StatusTypeDef ReqStatus = USBH_BUSY;
 733              		.loc 1 845 22 view .LVU281
 734 024c 0125     		movs	r5, #1
 735 024e 31E0     		b	.L14
 736              	.LVL55:
 737              	.L17:
1094:Middlewares/ST/STM32_USB_Host_Library/Core/Src/usbh_core.c ****       {
 738              		.loc 1 1094 7 is_stmt 1 view .LVU282
1094:Middlewares/ST/STM32_USB_Host_Library/Core/Src/usbh_core.c ****       {
 739              		.loc 1 1094 32 is_stmt 0 view .LVU283
 740 0250 90F83513 		ldrb	r1, [r0, #821]	@ zero_extendqisi2
1094:Middlewares/ST/STM32_USB_Host_Library/Core/Src/usbh_core.c ****       {
 741              		.loc 1 1094 10 view .LVU284
 742 0254 E1B1     		cbz	r1, .L35
1097:Middlewares/ST/STM32_USB_Host_Library/Core/Src/usbh_core.c ****                                         phost->device.Data, 0xFFU);
 743              		.loc 1 1097 9 is_stmt 1 view .LVU285
1097:Middlewares/ST/STM32_USB_Host_Library/Core/Src/usbh_core.c ****                                         phost->device.Data, 0xFFU);
 744              		.loc 1 1097 21 is_stmt 0 view .LVU286
 745 0256 FF23     		movs	r3, #255
 746 0258 00F58E72 		add	r2, r0, #284
 747 025c FFF7FEFF 		bl	USBH_Get_StringDesc
 748              	.LVL56:
1099:Middlewares/ST/STM32_USB_Host_Library/Core/Src/usbh_core.c ****         {
 749              		.loc 1 1099 9 is_stmt 1 view .LVU287
1099:Middlewares/ST/STM32_USB_Host_Library/Core/Src/usbh_core.c ****         {
 750              		.loc 1 1099 12 is_stmt 0 view .LVU288
 751 0260 18B9     		cbnz	r0, .L36
1102:Middlewares/ST/STM32_USB_Host_Library/Core/Src/usbh_core.c ****           phost->EnumState = ENUM_GET_SERIALNUM_STRING_DESC;
 752              		.loc 1 1102 11 is_stmt 1 view .LVU289
1102:Middlewares/ST/STM32_USB_Host_Library/Core/Src/usbh_core.c ****           phost->EnumState = ENUM_GET_SERIALNUM_STRING_DESC;
 753              		.loc 1 1102 11 view .LVU290
1102:Middlewares/ST/STM32_USB_Host_Library/Core/Src/usbh_core.c ****           phost->EnumState = ENUM_GET_SERIALNUM_STRING_DESC;
 754              		.loc 1 1102 11 view .LVU291
1103:Middlewares/ST/STM32_USB_Host_Library/Core/Src/usbh_core.c ****         }
 755              		.loc 1 1103 11 view .LVU292
1103:Middlewares/ST/STM32_USB_Host_Library/Core/Src/usbh_core.c ****         }
 756              		.loc 1 1103 28 is_stmt 0 view .LVU293
 757 0262 0723     		movs	r3, #7
 758 0264 6370     		strb	r3, [r4, #1]
 845:Middlewares/ST/STM32_USB_Host_Library/Core/Src/usbh_core.c ****   USBH_StatusTypeDef ReqStatus = USBH_BUSY;
 759              		.loc 1 845 22 view .LVU294
 760 0266 0125     		movs	r5, #1
 761 0268 24E0     		b	.L14
 762              	.L36:
1105:Middlewares/ST/STM32_USB_Host_Library/Core/Src/usbh_core.c ****         {
 763              		.loc 1 1105 14 is_stmt 1 view .LVU295
1105:Middlewares/ST/STM32_USB_Host_Library/Core/Src/usbh_core.c ****         {
 764              		.loc 1 1105 17 is_stmt 0 view .LVU296
 765 026a 0328     		cmp	r0, #3
 766 026c 01D0     		beq	.L54
ARM GAS  /tmp/ccKRVJ90.s 			page 40


 845:Middlewares/ST/STM32_USB_Host_Library/Core/Src/usbh_core.c ****   USBH_StatusTypeDef ReqStatus = USBH_BUSY;
 767              		.loc 1 845 22 view .LVU297
 768 026e 0125     		movs	r5, #1
 769 0270 20E0     		b	.L14
 770              	.L54:
1107:Middlewares/ST/STM32_USB_Host_Library/Core/Src/usbh_core.c ****           phost->EnumState = ENUM_GET_SERIALNUM_STRING_DESC;
 771              		.loc 1 1107 11 is_stmt 1 view .LVU298
1107:Middlewares/ST/STM32_USB_Host_Library/Core/Src/usbh_core.c ****           phost->EnumState = ENUM_GET_SERIALNUM_STRING_DESC;
 772              		.loc 1 1107 11 view .LVU299
1107:Middlewares/ST/STM32_USB_Host_Library/Core/Src/usbh_core.c ****           phost->EnumState = ENUM_GET_SERIALNUM_STRING_DESC;
 773              		.loc 1 1107 11 view .LVU300
1108:Middlewares/ST/STM32_USB_Host_Library/Core/Src/usbh_core.c **** 
 774              		.loc 1 1108 11 view .LVU301
1108:Middlewares/ST/STM32_USB_Host_Library/Core/Src/usbh_core.c **** 
 775              		.loc 1 1108 28 is_stmt 0 view .LVU302
 776 0272 0723     		movs	r3, #7
 777 0274 6370     		strb	r3, [r4, #1]
1111:Middlewares/ST/STM32_USB_Host_Library/Core/Src/usbh_core.c **** #if (osCMSIS < 0x20000U)
 778              		.loc 1 1111 11 is_stmt 1 view .LVU303
1111:Middlewares/ST/STM32_USB_Host_Library/Core/Src/usbh_core.c **** #if (osCMSIS < 0x20000U)
 779              		.loc 1 1111 25 is_stmt 0 view .LVU304
 780 0276 0523     		movs	r3, #5
 781 0278 C4F8E033 		str	r3, [r4, #992]
1115:Middlewares/ST/STM32_USB_Host_Library/Core/Src/usbh_core.c **** #endif
 782              		.loc 1 1115 11 is_stmt 1 view .LVU305
1115:Middlewares/ST/STM32_USB_Host_Library/Core/Src/usbh_core.c **** #endif
 783              		.loc 1 1115 17 is_stmt 0 view .LVU306
 784 027c 0023     		movs	r3, #0
 785 027e 1A46     		mov	r2, r3
 786 0280 04F57871 		add	r1, r4, #992
 787 0284 D4F8D803 		ldr	r0, [r4, #984]
 788              	.LVL57:
1115:Middlewares/ST/STM32_USB_Host_Library/Core/Src/usbh_core.c **** #endif
 789              		.loc 1 1115 17 view .LVU307
 790 0288 FFF7FEFF 		bl	osMessageQueuePut
 791              	.LVL58:
 845:Middlewares/ST/STM32_USB_Host_Library/Core/Src/usbh_core.c ****   USBH_StatusTypeDef ReqStatus = USBH_BUSY;
 792              		.loc 1 845 22 view .LVU308
 793 028c 0125     		movs	r5, #1
 794 028e 11E0     		b	.L14
 795              	.LVL59:
 796              	.L35:
1126:Middlewares/ST/STM32_USB_Host_Library/Core/Src/usbh_core.c ****         phost->EnumState = ENUM_GET_SERIALNUM_STRING_DESC;
 797              		.loc 1 1126 9 is_stmt 1 view .LVU309
1126:Middlewares/ST/STM32_USB_Host_Library/Core/Src/usbh_core.c ****         phost->EnumState = ENUM_GET_SERIALNUM_STRING_DESC;
 798              		.loc 1 1126 9 view .LVU310
1126:Middlewares/ST/STM32_USB_Host_Library/Core/Src/usbh_core.c ****         phost->EnumState = ENUM_GET_SERIALNUM_STRING_DESC;
 799              		.loc 1 1126 9 view .LVU311
1127:Middlewares/ST/STM32_USB_Host_Library/Core/Src/usbh_core.c **** 
 800              		.loc 1 1127 9 view .LVU312
1127:Middlewares/ST/STM32_USB_Host_Library/Core/Src/usbh_core.c **** 
 801              		.loc 1 1127 26 is_stmt 0 view .LVU313
 802 0290 0723     		movs	r3, #7
 803 0292 4370     		strb	r3, [r0, #1]
1130:Middlewares/ST/STM32_USB_Host_Library/Core/Src/usbh_core.c **** #if (osCMSIS < 0x20000U)
 804              		.loc 1 1130 9 is_stmt 1 view .LVU314
1130:Middlewares/ST/STM32_USB_Host_Library/Core/Src/usbh_core.c **** #if (osCMSIS < 0x20000U)
ARM GAS  /tmp/ccKRVJ90.s 			page 41


 805              		.loc 1 1130 23 is_stmt 0 view .LVU315
 806 0294 0523     		movs	r3, #5
 807 0296 C0F8E033 		str	r3, [r0, #992]
1134:Middlewares/ST/STM32_USB_Host_Library/Core/Src/usbh_core.c **** #endif
 808              		.loc 1 1134 9 is_stmt 1 view .LVU316
1134:Middlewares/ST/STM32_USB_Host_Library/Core/Src/usbh_core.c **** #endif
 809              		.loc 1 1134 15 is_stmt 0 view .LVU317
 810 029a 0023     		movs	r3, #0
 811 029c 1A46     		mov	r2, r3
 812 029e 00F57871 		add	r1, r0, #992
 813 02a2 D0F8D803 		ldr	r0, [r0, #984]
 814              	.LVL60:
1134:Middlewares/ST/STM32_USB_Host_Library/Core/Src/usbh_core.c **** #endif
 815              		.loc 1 1134 15 view .LVU318
 816 02a6 FFF7FEFF 		bl	osMessageQueuePut
 817              	.LVL61:
 845:Middlewares/ST/STM32_USB_Host_Library/Core/Src/usbh_core.c ****   USBH_StatusTypeDef ReqStatus = USBH_BUSY;
 818              		.loc 1 845 22 view .LVU319
 819 02aa 0125     		movs	r5, #1
 820 02ac 02E0     		b	.L14
 821              	.LVL62:
 822              	.L15:
1141:Middlewares/ST/STM32_USB_Host_Library/Core/Src/usbh_core.c ****       {
 823              		.loc 1 1141 7 is_stmt 1 view .LVU320
1141:Middlewares/ST/STM32_USB_Host_Library/Core/Src/usbh_core.c ****       {
 824              		.loc 1 1141 32 is_stmt 0 view .LVU321
 825 02ae 90F83653 		ldrb	r5, [r0, #822]	@ zero_extendqisi2
1141:Middlewares/ST/STM32_USB_Host_Library/Core/Src/usbh_core.c ****       {
 826              		.loc 1 1141 10 view .LVU322
 827 02b2 15B9     		cbnz	r5, .L55
 828              	.LVL63:
 829              	.L14:
1172:Middlewares/ST/STM32_USB_Host_Library/Core/Src/usbh_core.c **** }
 830              		.loc 1 1172 3 is_stmt 1 view .LVU323
1173:Middlewares/ST/STM32_USB_Host_Library/Core/Src/usbh_core.c **** 
 831              		.loc 1 1173 1 is_stmt 0 view .LVU324
 832 02b4 2846     		mov	r0, r5
 833 02b6 04B0     		add	sp, sp, #16
 834              	.LCFI5:
 835              		.cfi_remember_state
 836              		.cfi_def_cfa_offset 16
 837              		@ sp needed
 838 02b8 70BD     		pop	{r4, r5, r6, pc}
 839              	.LVL64:
 840              	.L55:
 841              	.LCFI6:
 842              		.cfi_restore_state
1144:Middlewares/ST/STM32_USB_Host_Library/Core/Src/usbh_core.c ****                                         phost->device.Data, 0xFFU);
 843              		.loc 1 1144 9 is_stmt 1 view .LVU325
1144:Middlewares/ST/STM32_USB_Host_Library/Core/Src/usbh_core.c ****                                         phost->device.Data, 0xFFU);
 844              		.loc 1 1144 21 is_stmt 0 view .LVU326
 845 02ba FF23     		movs	r3, #255
 846 02bc 00F58E72 		add	r2, r0, #284
 847 02c0 2946     		mov	r1, r5
 848 02c2 FFF7FEFF 		bl	USBH_Get_StringDesc
 849              	.LVL65:
1146:Middlewares/ST/STM32_USB_Host_Library/Core/Src/usbh_core.c ****         {
ARM GAS  /tmp/ccKRVJ90.s 			page 42


 850              		.loc 1 1146 9 is_stmt 1 view .LVU327
1146:Middlewares/ST/STM32_USB_Host_Library/Core/Src/usbh_core.c ****         {
 851              		.loc 1 1146 12 is_stmt 0 view .LVU328
 852 02c6 0546     		mov	r5, r0
 853 02c8 0028     		cmp	r0, #0
 854 02ca F3D0     		beq	.L14
1152:Middlewares/ST/STM32_USB_Host_Library/Core/Src/usbh_core.c ****         {
 855              		.loc 1 1152 14 is_stmt 1 view .LVU329
1152:Middlewares/ST/STM32_USB_Host_Library/Core/Src/usbh_core.c ****         {
 856              		.loc 1 1152 17 is_stmt 0 view .LVU330
 857 02cc 0328     		cmp	r0, #3
 858 02ce 03D0     		beq	.L44
 845:Middlewares/ST/STM32_USB_Host_Library/Core/Src/usbh_core.c ****   USBH_StatusTypeDef ReqStatus = USBH_BUSY;
 859              		.loc 1 845 22 view .LVU331
 860 02d0 0125     		movs	r5, #1
 861 02d2 EFE7     		b	.L14
 862              	.LVL66:
 863              	.L37:
 848:Middlewares/ST/STM32_USB_Host_Library/Core/Src/usbh_core.c ****   {
 864              		.loc 1 848 16 view .LVU332
 865 02d4 0125     		movs	r5, #1
 866 02d6 EDE7     		b	.L14
 867              	.LVL67:
 868              	.L44:
1155:Middlewares/ST/STM32_USB_Host_Library/Core/Src/usbh_core.c ****         }
 869              		.loc 1 1155 18 view .LVU333
 870 02d8 0025     		movs	r5, #0
 871 02da EBE7     		b	.L14
 872              		.cfi_endproc
 873              	.LFE254:
 875              		.section	.rodata.USBH_Init.str1.4,"aMS",%progbits,1
 876              		.align	2
 877              	.LC0:
 878 0000 55534248 		.ascii	"USBH_Queue\000"
 878      5F517565 
 878      756500
 879              		.section	.text.USBH_Init,"ax",%progbits
 880              		.align	1
 881              		.global	USBH_Init
 882              		.syntax unified
 883              		.thumb
 884              		.thumb_func
 885              		.fpu fpv4-sp-d16
 887              	USBH_Init:
 888              	.LVL68:
 889              	.LFB242:
  99:Middlewares/ST/STM32_USB_Host_Library/Core/Src/usbh_core.c ****   /* Check whether the USB Host handle is valid */
 890              		.loc 1 99 1 is_stmt 1 view -0
 891              		.cfi_startproc
 892              		@ args = 0, pretend = 0, frame = 0
 893              		@ frame_needed = 0, uses_anonymous_args = 0
 101:Middlewares/ST/STM32_USB_Host_Library/Core/Src/usbh_core.c ****   {
 894              		.loc 1 101 3 view .LVU335
 101:Middlewares/ST/STM32_USB_Host_Library/Core/Src/usbh_core.c ****   {
 895              		.loc 1 101 6 is_stmt 0 view .LVU336
 896 0000 78B3     		cbz	r0, .L59
  99:Middlewares/ST/STM32_USB_Host_Library/Core/Src/usbh_core.c ****   /* Check whether the USB Host handle is valid */
ARM GAS  /tmp/ccKRVJ90.s 			page 43


 897              		.loc 1 99 1 view .LVU337
 898 0002 70B5     		push	{r4, r5, r6, lr}
 899              	.LCFI7:
 900              		.cfi_def_cfa_offset 16
 901              		.cfi_offset 4, -16
 902              		.cfi_offset 5, -12
 903              		.cfi_offset 6, -8
 904              		.cfi_offset 14, -4
 905 0004 0E46     		mov	r6, r1
 906 0006 0446     		mov	r4, r0
 108:Middlewares/ST/STM32_USB_Host_Library/Core/Src/usbh_core.c **** 
 907              		.loc 1 108 3 is_stmt 1 view .LVU338
 108:Middlewares/ST/STM32_USB_Host_Library/Core/Src/usbh_core.c **** 
 908              		.loc 1 108 13 is_stmt 0 view .LVU339
 909 0008 80F8CC23 		strb	r2, [r0, #972]
 111:Middlewares/ST/STM32_USB_Host_Library/Core/Src/usbh_core.c ****   phost->ClassNumber = 0U;
 910              		.loc 1 111 3 is_stmt 1 view .LVU340
 111:Middlewares/ST/STM32_USB_Host_Library/Core/Src/usbh_core.c ****   phost->ClassNumber = 0U;
 911              		.loc 1 111 23 is_stmt 0 view .LVU341
 912 000c 0025     		movs	r5, #0
 913 000e C0F87C53 		str	r5, [r0, #892]
 112:Middlewares/ST/STM32_USB_Host_Library/Core/Src/usbh_core.c **** 
 914              		.loc 1 112 3 is_stmt 1 view .LVU342
 112:Middlewares/ST/STM32_USB_Host_Library/Core/Src/usbh_core.c **** 
 915              		.loc 1 112 22 is_stmt 0 view .LVU343
 916 0012 C0F88053 		str	r5, [r0, #896]
 115:Middlewares/ST/STM32_USB_Host_Library/Core/Src/usbh_core.c **** 
 917              		.loc 1 115 3 is_stmt 1 view .LVU344
 115:Middlewares/ST/STM32_USB_Host_Library/Core/Src/usbh_core.c **** 
 918              		.loc 1 115 9 is_stmt 0 view .LVU345
 919 0016 FFF7FEFF 		bl	DeInitStateMachine
 920              	.LVL69:
 118:Middlewares/ST/STM32_USB_Host_Library/Core/Src/usbh_core.c ****   phost->device.is_connected = 0U;
 921              		.loc 1 118 3 is_stmt 1 view .LVU346
 118:Middlewares/ST/STM32_USB_Host_Library/Core/Src/usbh_core.c ****   phost->device.is_connected = 0U;
 922              		.loc 1 118 29 is_stmt 0 view .LVU347
 923 001a 84F82353 		strb	r5, [r4, #803]
 119:Middlewares/ST/STM32_USB_Host_Library/Core/Src/usbh_core.c ****   phost->device.is_disconnected = 0U;
 924              		.loc 1 119 3 is_stmt 1 view .LVU348
 119:Middlewares/ST/STM32_USB_Host_Library/Core/Src/usbh_core.c ****   phost->device.is_disconnected = 0U;
 925              		.loc 1 119 30 is_stmt 0 view .LVU349
 926 001e 84F82053 		strb	r5, [r4, #800]
 120:Middlewares/ST/STM32_USB_Host_Library/Core/Src/usbh_core.c ****   phost->device.is_ReEnumerated = 0U;
 927              		.loc 1 120 3 is_stmt 1 view .LVU350
 120:Middlewares/ST/STM32_USB_Host_Library/Core/Src/usbh_core.c ****   phost->device.is_ReEnumerated = 0U;
 928              		.loc 1 120 33 is_stmt 0 view .LVU351
 929 0022 84F82153 		strb	r5, [r4, #801]
 121:Middlewares/ST/STM32_USB_Host_Library/Core/Src/usbh_core.c **** 
 930              		.loc 1 121 3 is_stmt 1 view .LVU352
 121:Middlewares/ST/STM32_USB_Host_Library/Core/Src/usbh_core.c **** 
 931              		.loc 1 121 33 is_stmt 0 view .LVU353
 932 0026 84F82253 		strb	r5, [r4, #802]
 124:Middlewares/ST/STM32_USB_Host_Library/Core/Src/usbh_core.c ****   {
 933              		.loc 1 124 3 is_stmt 1 view .LVU354
 124:Middlewares/ST/STM32_USB_Host_Library/Core/Src/usbh_core.c ****   {
 934              		.loc 1 124 6 is_stmt 0 view .LVU355
 935 002a 0EB1     		cbz	r6, .L58
ARM GAS  /tmp/ccKRVJ90.s 			page 44


 126:Middlewares/ST/STM32_USB_Host_Library/Core/Src/usbh_core.c ****   }
 936              		.loc 1 126 5 is_stmt 1 view .LVU356
 126:Middlewares/ST/STM32_USB_Host_Library/Core/Src/usbh_core.c ****   }
 937              		.loc 1 126 18 is_stmt 0 view .LVU357
 938 002c C4F8D463 		str	r6, [r4, #980]
 939              	.L58:
 148:Middlewares/ST/STM32_USB_Host_Library/Core/Src/usbh_core.c **** 
 940              		.loc 1 148 3 is_stmt 1 view .LVU358
 148:Middlewares/ST/STM32_USB_Host_Library/Core/Src/usbh_core.c **** 
 941              		.loc 1 148 21 is_stmt 0 view .LVU359
 942 0030 0022     		movs	r2, #0
 943 0032 0421     		movs	r1, #4
 944 0034 1020     		movs	r0, #16
 945 0036 FFF7FEFF 		bl	osMessageQueueNew
 946              	.LVL70:
 148:Middlewares/ST/STM32_USB_Host_Library/Core/Src/usbh_core.c **** 
 947              		.loc 1 148 19 view .LVU360
 948 003a C4F8D803 		str	r0, [r4, #984]
 151:Middlewares/ST/STM32_USB_Host_Library/Core/Src/usbh_core.c **** 
 949              		.loc 1 151 3 is_stmt 1 view .LVU361
 151:Middlewares/ST/STM32_USB_Host_Library/Core/Src/usbh_core.c **** 
 950              		.loc 1 151 25 is_stmt 0 view .LVU362
 951 003e 0A4A     		ldr	r2, .L64
 952 0040 0A4B     		ldr	r3, .L64+4
 953 0042 1360     		str	r3, [r2]
 154:Middlewares/ST/STM32_USB_Host_Library/Core/Src/usbh_core.c **** #else
 954              		.loc 1 154 3 is_stmt 1 view .LVU363
 154:Middlewares/ST/STM32_USB_Host_Library/Core/Src/usbh_core.c **** #else
 955              		.loc 1 154 31 is_stmt 0 view .LVU364
 956 0044 8023     		movs	r3, #128
 957 0046 5361     		str	r3, [r2, #20]
 159:Middlewares/ST/STM32_USB_Host_Library/Core/Src/usbh_core.c ****   phost->thread = osThreadNew(USBH_Process_OS, phost, &USBH_Thread_Atrr);
 958              		.loc 1 159 3 is_stmt 1 view .LVU365
 159:Middlewares/ST/STM32_USB_Host_Library/Core/Src/usbh_core.c ****   phost->thread = osThreadNew(USBH_Process_OS, phost, &USBH_Thread_Atrr);
 959              		.loc 1 159 29 is_stmt 0 view .LVU366
 960 0048 1823     		movs	r3, #24
 961 004a 9361     		str	r3, [r2, #24]
 160:Middlewares/ST/STM32_USB_Host_Library/Core/Src/usbh_core.c **** 
 962              		.loc 1 160 3 is_stmt 1 view .LVU367
 160:Middlewares/ST/STM32_USB_Host_Library/Core/Src/usbh_core.c **** 
 963              		.loc 1 160 19 is_stmt 0 view .LVU368
 964 004c 2146     		mov	r1, r4
 965 004e 0848     		ldr	r0, .L64+8
 966 0050 FFF7FEFF 		bl	osThreadNew
 967              	.LVL71:
 160:Middlewares/ST/STM32_USB_Host_Library/Core/Src/usbh_core.c **** 
 968              		.loc 1 160 17 view .LVU369
 969 0054 C4F8DC03 		str	r0, [r4, #988]
 166:Middlewares/ST/STM32_USB_Host_Library/Core/Src/usbh_core.c **** 
 970              		.loc 1 166 3 is_stmt 1 view .LVU370
 166:Middlewares/ST/STM32_USB_Host_Library/Core/Src/usbh_core.c **** 
 971              		.loc 1 166 9 is_stmt 0 view .LVU371
 972 0058 2046     		mov	r0, r4
 973 005a FFF7FEFF 		bl	USBH_LL_Init
 974              	.LVL72:
 168:Middlewares/ST/STM32_USB_Host_Library/Core/Src/usbh_core.c **** }
 975              		.loc 1 168 3 is_stmt 1 view .LVU372
ARM GAS  /tmp/ccKRVJ90.s 			page 45


 168:Middlewares/ST/STM32_USB_Host_Library/Core/Src/usbh_core.c **** }
 976              		.loc 1 168 10 is_stmt 0 view .LVU373
 977 005e 0020     		movs	r0, #0
 169:Middlewares/ST/STM32_USB_Host_Library/Core/Src/usbh_core.c **** 
 978              		.loc 1 169 1 view .LVU374
 979 0060 70BD     		pop	{r4, r5, r6, pc}
 980              	.LVL73:
 981              	.L59:
 982              	.LCFI8:
 983              		.cfi_def_cfa_offset 0
 984              		.cfi_restore 4
 985              		.cfi_restore 5
 986              		.cfi_restore 6
 987              		.cfi_restore 14
 104:Middlewares/ST/STM32_USB_Host_Library/Core/Src/usbh_core.c ****   }
 988              		.loc 1 104 12 view .LVU375
 989 0062 0220     		movs	r0, #2
 990              	.LVL74:
 169:Middlewares/ST/STM32_USB_Host_Library/Core/Src/usbh_core.c **** 
 991              		.loc 1 169 1 view .LVU376
 992 0064 7047     		bx	lr
 993              	.L65:
 994 0066 00BF     		.align	2
 995              	.L64:
 996 0068 00000000 		.word	USBH_Thread_Atrr
 997 006c 00000000 		.word	.LC0
 998 0070 00000000 		.word	USBH_Process_OS
 999              		.cfi_endproc
 1000              	.LFE242:
 1002              		.section	.text.USBH_DeInit,"ax",%progbits
 1003              		.align	1
 1004              		.global	USBH_DeInit
 1005              		.syntax unified
 1006              		.thumb
 1007              		.thumb_func
 1008              		.fpu fpv4-sp-d16
 1010              	USBH_DeInit:
 1011              	.LVL75:
 1012              	.LFB243:
 179:Middlewares/ST/STM32_USB_Host_Library/Core/Src/usbh_core.c ****   (void)DeInitStateMachine(phost);
 1013              		.loc 1 179 1 is_stmt 1 view -0
 1014              		.cfi_startproc
 1015              		@ args = 0, pretend = 0, frame = 0
 1016              		@ frame_needed = 0, uses_anonymous_args = 0
 179:Middlewares/ST/STM32_USB_Host_Library/Core/Src/usbh_core.c ****   (void)DeInitStateMachine(phost);
 1017              		.loc 1 179 1 is_stmt 0 view .LVU378
 1018 0000 10B5     		push	{r4, lr}
 1019              	.LCFI9:
 1020              		.cfi_def_cfa_offset 8
 1021              		.cfi_offset 4, -8
 1022              		.cfi_offset 14, -4
 1023 0002 0446     		mov	r4, r0
 180:Middlewares/ST/STM32_USB_Host_Library/Core/Src/usbh_core.c **** 
 1024              		.loc 1 180 3 is_stmt 1 view .LVU379
 180:Middlewares/ST/STM32_USB_Host_Library/Core/Src/usbh_core.c **** 
 1025              		.loc 1 180 9 is_stmt 0 view .LVU380
 1026 0004 FFF7FEFF 		bl	DeInitStateMachine
ARM GAS  /tmp/ccKRVJ90.s 			page 46


 1027              	.LVL76:
 183:Middlewares/ST/STM32_USB_Host_Library/Core/Src/usbh_core.c ****   phost->device.is_connected = 0U;
 1028              		.loc 1 183 3 is_stmt 1 view .LVU381
 183:Middlewares/ST/STM32_USB_Host_Library/Core/Src/usbh_core.c ****   phost->device.is_connected = 0U;
 1029              		.loc 1 183 29 is_stmt 0 view .LVU382
 1030 0008 0023     		movs	r3, #0
 1031 000a 84F82333 		strb	r3, [r4, #803]
 184:Middlewares/ST/STM32_USB_Host_Library/Core/Src/usbh_core.c ****   phost->device.is_disconnected = 0U;
 1032              		.loc 1 184 3 is_stmt 1 view .LVU383
 184:Middlewares/ST/STM32_USB_Host_Library/Core/Src/usbh_core.c ****   phost->device.is_disconnected = 0U;
 1033              		.loc 1 184 30 is_stmt 0 view .LVU384
 1034 000e 84F82033 		strb	r3, [r4, #800]
 185:Middlewares/ST/STM32_USB_Host_Library/Core/Src/usbh_core.c ****   phost->device.is_ReEnumerated = 0U;
 1035              		.loc 1 185 3 is_stmt 1 view .LVU385
 185:Middlewares/ST/STM32_USB_Host_Library/Core/Src/usbh_core.c ****   phost->device.is_ReEnumerated = 0U;
 1036              		.loc 1 185 33 is_stmt 0 view .LVU386
 1037 0012 84F82133 		strb	r3, [r4, #801]
 186:Middlewares/ST/STM32_USB_Host_Library/Core/Src/usbh_core.c ****   phost->device.RstCnt = 0U;
 1038              		.loc 1 186 3 is_stmt 1 view .LVU387
 186:Middlewares/ST/STM32_USB_Host_Library/Core/Src/usbh_core.c ****   phost->device.RstCnt = 0U;
 1039              		.loc 1 186 33 is_stmt 0 view .LVU388
 1040 0016 84F82233 		strb	r3, [r4, #802]
 187:Middlewares/ST/STM32_USB_Host_Library/Core/Src/usbh_core.c ****   phost->device.EnumCnt = 0U;
 1041              		.loc 1 187 3 is_stmt 1 view .LVU389
 187:Middlewares/ST/STM32_USB_Host_Library/Core/Src/usbh_core.c ****   phost->device.EnumCnt = 0U;
 1042              		.loc 1 187 24 is_stmt 0 view .LVU390
 1043 001a 84F81F33 		strb	r3, [r4, #799]
 188:Middlewares/ST/STM32_USB_Host_Library/Core/Src/usbh_core.c **** 
 1044              		.loc 1 188 3 is_stmt 1 view .LVU391
 188:Middlewares/ST/STM32_USB_Host_Library/Core/Src/usbh_core.c **** 
 1045              		.loc 1 188 25 is_stmt 0 view .LVU392
 1046 001e 84F81E33 		strb	r3, [r4, #798]
 190:Middlewares/ST/STM32_USB_Host_Library/Core/Src/usbh_core.c ****   {
 1047              		.loc 1 190 3 is_stmt 1 view .LVU393
 190:Middlewares/ST/STM32_USB_Host_Library/Core/Src/usbh_core.c ****   {
 1048              		.loc 1 190 12 is_stmt 0 view .LVU394
 1049 0022 D4F8D033 		ldr	r3, [r4, #976]
 190:Middlewares/ST/STM32_USB_Host_Library/Core/Src/usbh_core.c ****   {
 1050              		.loc 1 190 6 view .LVU395
 1051 0026 13B1     		cbz	r3, .L67
 192:Middlewares/ST/STM32_USB_Host_Library/Core/Src/usbh_core.c ****   }
 1052              		.loc 1 192 5 is_stmt 1 view .LVU396
 192:Middlewares/ST/STM32_USB_Host_Library/Core/Src/usbh_core.c ****   }
 1053              		.loc 1 192 11 is_stmt 0 view .LVU397
 1054 0028 2046     		mov	r0, r4
 1055 002a FFF7FEFF 		bl	USBH_LL_Stop
 1056              	.LVL77:
 1057              	.L67:
 205:Middlewares/ST/STM32_USB_Host_Library/Core/Src/usbh_core.c ****   (void)osMessageQueueDelete(phost->os_event);
 1058              		.loc 1 205 3 is_stmt 1 view .LVU398
 205:Middlewares/ST/STM32_USB_Host_Library/Core/Src/usbh_core.c ****   (void)osMessageQueueDelete(phost->os_event);
 1059              		.loc 1 205 9 is_stmt 0 view .LVU399
 1060 002e D4F8DC03 		ldr	r0, [r4, #988]
 1061 0032 FFF7FEFF 		bl	osThreadTerminate
 1062              	.LVL78:
 206:Middlewares/ST/STM32_USB_Host_Library/Core/Src/usbh_core.c **** 
 1063              		.loc 1 206 3 is_stmt 1 view .LVU400
ARM GAS  /tmp/ccKRVJ90.s 			page 47


 206:Middlewares/ST/STM32_USB_Host_Library/Core/Src/usbh_core.c **** 
 1064              		.loc 1 206 9 is_stmt 0 view .LVU401
 1065 0036 D4F8D803 		ldr	r0, [r4, #984]
 1066 003a FFF7FEFF 		bl	osMessageQueueDelete
 1067              	.LVL79:
 211:Middlewares/ST/STM32_USB_Host_Library/Core/Src/usbh_core.c **** }
 1068              		.loc 1 211 3 is_stmt 1 view .LVU402
 212:Middlewares/ST/STM32_USB_Host_Library/Core/Src/usbh_core.c **** 
 1069              		.loc 1 212 1 is_stmt 0 view .LVU403
 1070 003e 0020     		movs	r0, #0
 1071 0040 10BD     		pop	{r4, pc}
 212:Middlewares/ST/STM32_USB_Host_Library/Core/Src/usbh_core.c **** 
 1072              		.loc 1 212 1 view .LVU404
 1073              		.cfi_endproc
 1074              	.LFE243:
 1076              		.section	.text.USBH_RegisterClass,"ax",%progbits
 1077              		.align	1
 1078              		.global	USBH_RegisterClass
 1079              		.syntax unified
 1080              		.thumb
 1081              		.thumb_func
 1082              		.fpu fpv4-sp-d16
 1084              	USBH_RegisterClass:
 1085              	.LVL80:
 1086              	.LFB245:
 262:Middlewares/ST/STM32_USB_Host_Library/Core/Src/usbh_core.c ****   USBH_StatusTypeDef status = USBH_OK;
 1087              		.loc 1 262 1 is_stmt 1 view -0
 1088              		.cfi_startproc
 1089              		@ args = 0, pretend = 0, frame = 0
 1090              		@ frame_needed = 0, uses_anonymous_args = 0
 1091              		@ link register save eliminated.
 263:Middlewares/ST/STM32_USB_Host_Library/Core/Src/usbh_core.c **** 
 1092              		.loc 1 263 3 view .LVU406
 265:Middlewares/ST/STM32_USB_Host_Library/Core/Src/usbh_core.c ****   {
 1093              		.loc 1 265 3 view .LVU407
 265:Middlewares/ST/STM32_USB_Host_Library/Core/Src/usbh_core.c ****   {
 1094              		.loc 1 265 6 is_stmt 0 view .LVU408
 1095 0000 0A46     		mov	r2, r1
 1096 0002 51B1     		cbz	r1, .L71
 267:Middlewares/ST/STM32_USB_Host_Library/Core/Src/usbh_core.c ****     {
 1097              		.loc 1 267 5 is_stmt 1 view .LVU409
 267:Middlewares/ST/STM32_USB_Host_Library/Core/Src/usbh_core.c ****     {
 1098              		.loc 1 267 14 is_stmt 0 view .LVU410
 1099 0004 D0F88033 		ldr	r3, [r0, #896]
 267:Middlewares/ST/STM32_USB_Host_Library/Core/Src/usbh_core.c ****     {
 1100              		.loc 1 267 8 view .LVU411
 1101 0008 4BB9     		cbnz	r3, .L72
 270:Middlewares/ST/STM32_USB_Host_Library/Core/Src/usbh_core.c ****       status = USBH_OK;
 1102              		.loc 1 270 7 is_stmt 1 view .LVU412
 270:Middlewares/ST/STM32_USB_Host_Library/Core/Src/usbh_core.c ****       status = USBH_OK;
 1103              		.loc 1 270 39 is_stmt 0 view .LVU413
 1104 000a 591C     		adds	r1, r3, #1
 1105              	.LVL81:
 270:Middlewares/ST/STM32_USB_Host_Library/Core/Src/usbh_core.c ****       status = USBH_OK;
 1106              		.loc 1 270 39 view .LVU414
 1107 000c C0F88013 		str	r1, [r0, #896]
 270:Middlewares/ST/STM32_USB_Host_Library/Core/Src/usbh_core.c ****       status = USBH_OK;
ARM GAS  /tmp/ccKRVJ90.s 			page 48


 1108              		.loc 1 270 43 view .LVU415
 1109 0010 DE33     		adds	r3, r3, #222
 1110 0012 40F82320 		str	r2, [r0, r3, lsl #2]
 271:Middlewares/ST/STM32_USB_Host_Library/Core/Src/usbh_core.c ****     }
 1111              		.loc 1 271 7 is_stmt 1 view .LVU416
 271:Middlewares/ST/STM32_USB_Host_Library/Core/Src/usbh_core.c ****     }
 1112              		.loc 1 271 14 is_stmt 0 view .LVU417
 1113 0016 0020     		movs	r0, #0
 1114              	.LVL82:
 271:Middlewares/ST/STM32_USB_Host_Library/Core/Src/usbh_core.c ****     }
 1115              		.loc 1 271 14 view .LVU418
 1116 0018 7047     		bx	lr
 1117              	.LVL83:
 1118              	.L71:
 282:Middlewares/ST/STM32_USB_Host_Library/Core/Src/usbh_core.c ****   }
 1119              		.loc 1 282 12 view .LVU419
 1120 001a 0220     		movs	r0, #2
 1121              	.LVL84:
 282:Middlewares/ST/STM32_USB_Host_Library/Core/Src/usbh_core.c ****   }
 1122              		.loc 1 282 12 view .LVU420
 1123 001c 7047     		bx	lr
 1124              	.LVL85:
 1125              	.L72:
 276:Middlewares/ST/STM32_USB_Host_Library/Core/Src/usbh_core.c ****     }
 1126              		.loc 1 276 14 view .LVU421
 1127 001e 0220     		movs	r0, #2
 1128              	.LVL86:
 285:Middlewares/ST/STM32_USB_Host_Library/Core/Src/usbh_core.c **** }
 1129              		.loc 1 285 3 is_stmt 1 view .LVU422
 286:Middlewares/ST/STM32_USB_Host_Library/Core/Src/usbh_core.c **** 
 1130              		.loc 1 286 1 is_stmt 0 view .LVU423
 1131 0020 7047     		bx	lr
 1132              		.cfi_endproc
 1133              	.LFE245:
 1135              		.section	.text.USBH_SelectInterface,"ax",%progbits
 1136              		.align	1
 1137              		.global	USBH_SelectInterface
 1138              		.syntax unified
 1139              		.thumb
 1140              		.thumb_func
 1141              		.fpu fpv4-sp-d16
 1143              	USBH_SelectInterface:
 1144              	.LVL87:
 1145              	.LFB246:
 297:Middlewares/ST/STM32_USB_Host_Library/Core/Src/usbh_core.c ****   USBH_StatusTypeDef status = USBH_OK;
 1146              		.loc 1 297 1 is_stmt 1 view -0
 1147              		.cfi_startproc
 1148              		@ args = 0, pretend = 0, frame = 0
 1149              		@ frame_needed = 0, uses_anonymous_args = 0
 1150              		@ link register save eliminated.
 298:Middlewares/ST/STM32_USB_Host_Library/Core/Src/usbh_core.c **** 
 1151              		.loc 1 298 3 view .LVU425
 300:Middlewares/ST/STM32_USB_Host_Library/Core/Src/usbh_core.c ****   {
 1152              		.loc 1 300 3 view .LVU426
 300:Middlewares/ST/STM32_USB_Host_Library/Core/Src/usbh_core.c ****   {
 1153              		.loc 1 300 40 is_stmt 0 view .LVU427
 1154 0000 90F83C33 		ldrb	r3, [r0, #828]	@ zero_extendqisi2
ARM GAS  /tmp/ccKRVJ90.s 			page 49


 300:Middlewares/ST/STM32_USB_Host_Library/Core/Src/usbh_core.c ****   {
 1155              		.loc 1 300 6 view .LVU428
 1156 0004 8B42     		cmp	r3, r1
 1157 0006 03D9     		bls	.L75
 302:Middlewares/ST/STM32_USB_Host_Library/Core/Src/usbh_core.c ****     USBH_UsrLog("Switching to Interface (#%d)", interface);
 1158              		.loc 1 302 5 is_stmt 1 view .LVU429
 302:Middlewares/ST/STM32_USB_Host_Library/Core/Src/usbh_core.c ****     USBH_UsrLog("Switching to Interface (#%d)", interface);
 1159              		.loc 1 302 37 is_stmt 0 view .LVU430
 1160 0008 80F82413 		strb	r1, [r0, #804]
 303:Middlewares/ST/STM32_USB_Host_Library/Core/Src/usbh_core.c ****     USBH_UsrLog("Class    : %xh", phost->device.CfgDesc.Itf_Desc[interface].bInterfaceClass);
 1161              		.loc 1 303 5 is_stmt 1 view .LVU431
 303:Middlewares/ST/STM32_USB_Host_Library/Core/Src/usbh_core.c ****     USBH_UsrLog("Class    : %xh", phost->device.CfgDesc.Itf_Desc[interface].bInterfaceClass);
 1162              		.loc 1 303 5 view .LVU432
 303:Middlewares/ST/STM32_USB_Host_Library/Core/Src/usbh_core.c ****     USBH_UsrLog("Class    : %xh", phost->device.CfgDesc.Itf_Desc[interface].bInterfaceClass);
 1163              		.loc 1 303 5 view .LVU433
 304:Middlewares/ST/STM32_USB_Host_Library/Core/Src/usbh_core.c ****     USBH_UsrLog("SubClass : %xh", phost->device.CfgDesc.Itf_Desc[interface].bInterfaceSubClass);
 1164              		.loc 1 304 5 view .LVU434
 304:Middlewares/ST/STM32_USB_Host_Library/Core/Src/usbh_core.c ****     USBH_UsrLog("SubClass : %xh", phost->device.CfgDesc.Itf_Desc[interface].bInterfaceSubClass);
 1165              		.loc 1 304 5 view .LVU435
 304:Middlewares/ST/STM32_USB_Host_Library/Core/Src/usbh_core.c ****     USBH_UsrLog("SubClass : %xh", phost->device.CfgDesc.Itf_Desc[interface].bInterfaceSubClass);
 1166              		.loc 1 304 5 view .LVU436
 305:Middlewares/ST/STM32_USB_Host_Library/Core/Src/usbh_core.c ****     USBH_UsrLog("Protocol : %xh", phost->device.CfgDesc.Itf_Desc[interface].bInterfaceProtocol);
 1167              		.loc 1 305 5 view .LVU437
 305:Middlewares/ST/STM32_USB_Host_Library/Core/Src/usbh_core.c ****     USBH_UsrLog("Protocol : %xh", phost->device.CfgDesc.Itf_Desc[interface].bInterfaceProtocol);
 1168              		.loc 1 305 5 view .LVU438
 305:Middlewares/ST/STM32_USB_Host_Library/Core/Src/usbh_core.c ****     USBH_UsrLog("Protocol : %xh", phost->device.CfgDesc.Itf_Desc[interface].bInterfaceProtocol);
 1169              		.loc 1 305 5 view .LVU439
 306:Middlewares/ST/STM32_USB_Host_Library/Core/Src/usbh_core.c ****   }
 1170              		.loc 1 306 5 view .LVU440
 306:Middlewares/ST/STM32_USB_Host_Library/Core/Src/usbh_core.c ****   }
 1171              		.loc 1 306 5 view .LVU441
 306:Middlewares/ST/STM32_USB_Host_Library/Core/Src/usbh_core.c ****   }
 1172              		.loc 1 306 5 view .LVU442
 298:Middlewares/ST/STM32_USB_Host_Library/Core/Src/usbh_core.c **** 
 1173              		.loc 1 298 22 is_stmt 0 view .LVU443
 1174 000c 0020     		movs	r0, #0
 1175              	.LVL88:
 298:Middlewares/ST/STM32_USB_Host_Library/Core/Src/usbh_core.c **** 
 1176              		.loc 1 298 22 view .LVU444
 1177 000e 7047     		bx	lr
 1178              	.LVL89:
 1179              	.L75:
 311:Middlewares/ST/STM32_USB_Host_Library/Core/Src/usbh_core.c ****   }
 1180              		.loc 1 311 12 view .LVU445
 1181 0010 0220     		movs	r0, #2
 1182              	.LVL90:
 314:Middlewares/ST/STM32_USB_Host_Library/Core/Src/usbh_core.c **** }
 1183              		.loc 1 314 3 is_stmt 1 view .LVU446
 315:Middlewares/ST/STM32_USB_Host_Library/Core/Src/usbh_core.c **** 
 1184              		.loc 1 315 1 is_stmt 0 view .LVU447
 1185 0012 7047     		bx	lr
 1186              		.cfi_endproc
 1187              	.LFE246:
 1189              		.section	.text.USBH_GetActiveClass,"ax",%progbits
 1190              		.align	1
 1191              		.global	USBH_GetActiveClass
 1192              		.syntax unified
ARM GAS  /tmp/ccKRVJ90.s 			page 50


 1193              		.thumb
 1194              		.thumb_func
 1195              		.fpu fpv4-sp-d16
 1197              	USBH_GetActiveClass:
 1198              	.LVL91:
 1199              	.LFB247:
 326:Middlewares/ST/STM32_USB_Host_Library/Core/Src/usbh_core.c ****   return (phost->device.CfgDesc.Itf_Desc[0].bInterfaceClass);
 1200              		.loc 1 326 1 is_stmt 1 view -0
 1201              		.cfi_startproc
 1202              		@ args = 0, pretend = 0, frame = 0
 1203              		@ frame_needed = 0, uses_anonymous_args = 0
 1204              		@ link register save eliminated.
 327:Middlewares/ST/STM32_USB_Host_Library/Core/Src/usbh_core.c **** }
 1205              		.loc 1 327 3 view .LVU449
 328:Middlewares/ST/STM32_USB_Host_Library/Core/Src/usbh_core.c **** 
 1206              		.loc 1 328 1 is_stmt 0 view .LVU450
 1207 0000 90F84703 		ldrb	r0, [r0, #839]	@ zero_extendqisi2
 1208              	.LVL92:
 328:Middlewares/ST/STM32_USB_Host_Library/Core/Src/usbh_core.c **** 
 1209              		.loc 1 328 1 view .LVU451
 1210 0004 7047     		bx	lr
 1211              		.cfi_endproc
 1212              	.LFE247:
 1214              		.section	.text.USBH_FindInterface,"ax",%progbits
 1215              		.align	1
 1216              		.global	USBH_FindInterface
 1217              		.syntax unified
 1218              		.thumb
 1219              		.thumb_func
 1220              		.fpu fpv4-sp-d16
 1222              	USBH_FindInterface:
 1223              	.LVL93:
 1224              	.LFB248:
 342:Middlewares/ST/STM32_USB_Host_Library/Core/Src/usbh_core.c ****   USBH_InterfaceDescTypeDef *pif;
 1225              		.loc 1 342 1 is_stmt 1 view -0
 1226              		.cfi_startproc
 1227              		@ args = 0, pretend = 0, frame = 0
 1228              		@ frame_needed = 0, uses_anonymous_args = 0
 1229              		@ link register save eliminated.
 342:Middlewares/ST/STM32_USB_Host_Library/Core/Src/usbh_core.c ****   USBH_InterfaceDescTypeDef *pif;
 1230              		.loc 1 342 1 is_stmt 0 view .LVU453
 1231 0000 70B4     		push	{r4, r5, r6}
 1232              	.LCFI10:
 1233              		.cfi_def_cfa_offset 12
 1234              		.cfi_offset 4, -12
 1235              		.cfi_offset 5, -8
 1236              		.cfi_offset 6, -4
 1237 0002 0646     		mov	r6, r0
 343:Middlewares/ST/STM32_USB_Host_Library/Core/Src/usbh_core.c ****   USBH_CfgDescTypeDef *pcfg;
 1238              		.loc 1 343 3 is_stmt 1 view .LVU454
 344:Middlewares/ST/STM32_USB_Host_Library/Core/Src/usbh_core.c ****   uint8_t if_ix = 0U;
 1239              		.loc 1 344 3 view .LVU455
 345:Middlewares/ST/STM32_USB_Host_Library/Core/Src/usbh_core.c **** 
 1240              		.loc 1 345 3 view .LVU456
 1241              	.LVL94:
 347:Middlewares/ST/STM32_USB_Host_Library/Core/Src/usbh_core.c ****   pcfg = &phost->device.CfgDesc;
 1242              		.loc 1 347 3 view .LVU457
ARM GAS  /tmp/ccKRVJ90.s 			page 51


 348:Middlewares/ST/STM32_USB_Host_Library/Core/Src/usbh_core.c **** 
 1243              		.loc 1 348 3 view .LVU458
 350:Middlewares/ST/STM32_USB_Host_Library/Core/Src/usbh_core.c ****   {
 1244              		.loc 1 350 3 view .LVU459
 345:Middlewares/ST/STM32_USB_Host_Library/Core/Src/usbh_core.c **** 
 1245              		.loc 1 345 11 is_stmt 0 view .LVU460
 1246 0004 0020     		movs	r0, #0
 1247              	.LVL95:
 350:Middlewares/ST/STM32_USB_Host_Library/Core/Src/usbh_core.c ****   {
 1248              		.loc 1 350 9 view .LVU461
 1249 0006 0AE0     		b	.L78
 1250              	.LVL96:
 1251              	.L81:
 355:Middlewares/ST/STM32_USB_Host_Library/Core/Src/usbh_core.c ****     {
 1252              		.loc 1 355 14 discriminator 1 view .LVU462
 1253 0008 1A24     		movs	r4, #26
 1254 000a 04FB0565 		mla	r5, r4, r5, r6
 1255 000e 95F84943 		ldrb	r4, [r5, #841]	@ zero_extendqisi2
 354:Middlewares/ST/STM32_USB_Host_Library/Core/Src/usbh_core.c ****         ((pif->bInterfaceProtocol == Protocol) || (Protocol == 0xFFU)))
 1256              		.loc 1 354 72 discriminator 1 view .LVU463
 1257 0012 9C42     		cmp	r4, r3
 1258 0014 1AD0     		beq	.L82
 355:Middlewares/ST/STM32_USB_Host_Library/Core/Src/usbh_core.c ****     {
 1259              		.loc 1 355 48 view .LVU464
 1260 0016 FF2B     		cmp	r3, #255
 1261 0018 18D0     		beq	.L82
 1262              	.L80:
 359:Middlewares/ST/STM32_USB_Host_Library/Core/Src/usbh_core.c ****   }
 1263              		.loc 1 359 5 is_stmt 1 view .LVU465
 359:Middlewares/ST/STM32_USB_Host_Library/Core/Src/usbh_core.c ****   }
 1264              		.loc 1 359 10 is_stmt 0 view .LVU466
 1265 001a 0130     		adds	r0, r0, #1
 1266              	.LVL97:
 359:Middlewares/ST/STM32_USB_Host_Library/Core/Src/usbh_core.c ****   }
 1267              		.loc 1 359 10 view .LVU467
 1268 001c C0B2     		uxtb	r0, r0
 1269              	.LVL98:
 1270              	.L78:
 350:Middlewares/ST/STM32_USB_Host_Library/Core/Src/usbh_core.c ****   {
 1271              		.loc 1 350 9 is_stmt 1 view .LVU468
 1272 001e 0128     		cmp	r0, #1
 1273 0020 13D8     		bhi	.L85
 352:Middlewares/ST/STM32_USB_Host_Library/Core/Src/usbh_core.c ****     if (((pif->bInterfaceClass == Class) || (Class == 0xFFU)) &&
 1274              		.loc 1 352 5 view .LVU469
 352:Middlewares/ST/STM32_USB_Host_Library/Core/Src/usbh_core.c ****     if (((pif->bInterfaceClass == Class) || (Class == 0xFFU)) &&
 1275              		.loc 1 352 26 is_stmt 0 view .LVU470
 1276 0022 0546     		mov	r5, r0
 1277              	.LVL99:
 353:Middlewares/ST/STM32_USB_Host_Library/Core/Src/usbh_core.c ****         ((pif->bInterfaceSubClass == SubClass) || (SubClass == 0xFFU)) &&
 1278              		.loc 1 353 5 is_stmt 1 view .LVU471
 353:Middlewares/ST/STM32_USB_Host_Library/Core/Src/usbh_core.c ****         ((pif->bInterfaceSubClass == SubClass) || (SubClass == 0xFFU)) &&
 1279              		.loc 1 353 14 is_stmt 0 view .LVU472
 1280 0024 1A24     		movs	r4, #26
 1281 0026 04FB0064 		mla	r4, r4, r0, r6
 1282 002a 94F84743 		ldrb	r4, [r4, #839]	@ zero_extendqisi2
 353:Middlewares/ST/STM32_USB_Host_Library/Core/Src/usbh_core.c ****         ((pif->bInterfaceSubClass == SubClass) || (SubClass == 0xFFU)) &&
 1283              		.loc 1 353 8 view .LVU473
ARM GAS  /tmp/ccKRVJ90.s 			page 52


 1284 002e 8C42     		cmp	r4, r1
 1285 0030 01D0     		beq	.L79
 353:Middlewares/ST/STM32_USB_Host_Library/Core/Src/usbh_core.c ****         ((pif->bInterfaceSubClass == SubClass) || (SubClass == 0xFFU)) &&
 1286              		.loc 1 353 42 discriminator 2 view .LVU474
 1287 0032 FF29     		cmp	r1, #255
 1288 0034 F1D1     		bne	.L80
 1289              	.L79:
 354:Middlewares/ST/STM32_USB_Host_Library/Core/Src/usbh_core.c ****         ((pif->bInterfaceProtocol == Protocol) || (Protocol == 0xFFU)))
 1290              		.loc 1 354 14 discriminator 3 view .LVU475
 1291 0036 1A24     		movs	r4, #26
 1292 0038 04FB0564 		mla	r4, r4, r5, r6
 1293 003c 94F84843 		ldrb	r4, [r4, #840]	@ zero_extendqisi2
 353:Middlewares/ST/STM32_USB_Host_Library/Core/Src/usbh_core.c ****         ((pif->bInterfaceSubClass == SubClass) || (SubClass == 0xFFU)) &&
 1294              		.loc 1 353 63 discriminator 3 view .LVU476
 1295 0040 9442     		cmp	r4, r2
 1296 0042 E1D0     		beq	.L81
 354:Middlewares/ST/STM32_USB_Host_Library/Core/Src/usbh_core.c ****         ((pif->bInterfaceProtocol == Protocol) || (Protocol == 0xFFU)))
 1297              		.loc 1 354 48 view .LVU477
 1298 0044 FF2A     		cmp	r2, #255
 1299 0046 E8D1     		bne	.L80
 1300 0048 DEE7     		b	.L81
 1301              	.LVL100:
 1302              	.L85:
 361:Middlewares/ST/STM32_USB_Host_Library/Core/Src/usbh_core.c **** }
 1303              		.loc 1 361 10 view .LVU478
 1304 004a FF20     		movs	r0, #255
 1305              	.LVL101:
 1306              	.L82:
 362:Middlewares/ST/STM32_USB_Host_Library/Core/Src/usbh_core.c **** 
 1307              		.loc 1 362 1 view .LVU479
 1308 004c 70BC     		pop	{r4, r5, r6}
 1309              	.LCFI11:
 1310              		.cfi_restore 6
 1311              		.cfi_restore 5
 1312              		.cfi_restore 4
 1313              		.cfi_def_cfa_offset 0
 1314              	.LVL102:
 362:Middlewares/ST/STM32_USB_Host_Library/Core/Src/usbh_core.c **** 
 1315              		.loc 1 362 1 view .LVU480
 1316 004e 7047     		bx	lr
 1317              		.cfi_endproc
 1318              	.LFE248:
 1320              		.section	.text.USBH_FindInterfaceIndex,"ax",%progbits
 1321              		.align	1
 1322              		.global	USBH_FindInterfaceIndex
 1323              		.syntax unified
 1324              		.thumb
 1325              		.thumb_func
 1326              		.fpu fpv4-sp-d16
 1328              	USBH_FindInterfaceIndex:
 1329              	.LVL103:
 1330              	.LFB249:
 375:Middlewares/ST/STM32_USB_Host_Library/Core/Src/usbh_core.c ****   USBH_InterfaceDescTypeDef *pif;
 1331              		.loc 1 375 1 is_stmt 1 view -0
 1332              		.cfi_startproc
 1333              		@ args = 0, pretend = 0, frame = 0
 1334              		@ frame_needed = 0, uses_anonymous_args = 0
ARM GAS  /tmp/ccKRVJ90.s 			page 53


 1335              		@ link register save eliminated.
 375:Middlewares/ST/STM32_USB_Host_Library/Core/Src/usbh_core.c ****   USBH_InterfaceDescTypeDef *pif;
 1336              		.loc 1 375 1 is_stmt 0 view .LVU482
 1337 0000 10B4     		push	{r4}
 1338              	.LCFI12:
 1339              		.cfi_def_cfa_offset 4
 1340              		.cfi_offset 4, -4
 1341 0002 0446     		mov	r4, r0
 376:Middlewares/ST/STM32_USB_Host_Library/Core/Src/usbh_core.c ****   USBH_CfgDescTypeDef *pcfg;
 1342              		.loc 1 376 3 is_stmt 1 view .LVU483
 377:Middlewares/ST/STM32_USB_Host_Library/Core/Src/usbh_core.c ****   uint8_t if_ix = 0U;
 1343              		.loc 1 377 3 view .LVU484
 378:Middlewares/ST/STM32_USB_Host_Library/Core/Src/usbh_core.c **** 
 1344              		.loc 1 378 3 view .LVU485
 1345              	.LVL104:
 380:Middlewares/ST/STM32_USB_Host_Library/Core/Src/usbh_core.c ****   pcfg = &phost->device.CfgDesc;
 1346              		.loc 1 380 3 view .LVU486
 381:Middlewares/ST/STM32_USB_Host_Library/Core/Src/usbh_core.c **** 
 1347              		.loc 1 381 3 view .LVU487
 383:Middlewares/ST/STM32_USB_Host_Library/Core/Src/usbh_core.c ****   {
 1348              		.loc 1 383 3 view .LVU488
 378:Middlewares/ST/STM32_USB_Host_Library/Core/Src/usbh_core.c **** 
 1349              		.loc 1 378 11 is_stmt 0 view .LVU489
 1350 0004 0020     		movs	r0, #0
 1351              	.LVL105:
 383:Middlewares/ST/STM32_USB_Host_Library/Core/Src/usbh_core.c ****   {
 1352              		.loc 1 383 9 view .LVU490
 1353 0006 01E0     		b	.L87
 1354              	.LVL106:
 1355              	.L88:
 390:Middlewares/ST/STM32_USB_Host_Library/Core/Src/usbh_core.c ****   }
 1356              		.loc 1 390 5 is_stmt 1 view .LVU491
 390:Middlewares/ST/STM32_USB_Host_Library/Core/Src/usbh_core.c ****   }
 1357              		.loc 1 390 10 is_stmt 0 view .LVU492
 1358 0008 0130     		adds	r0, r0, #1
 1359              	.LVL107:
 390:Middlewares/ST/STM32_USB_Host_Library/Core/Src/usbh_core.c ****   }
 1360              		.loc 1 390 10 view .LVU493
 1361 000a C0B2     		uxtb	r0, r0
 1362              	.LVL108:
 1363              	.L87:
 383:Middlewares/ST/STM32_USB_Host_Library/Core/Src/usbh_core.c ****   {
 1364              		.loc 1 383 9 is_stmt 1 view .LVU494
 1365 000c 0128     		cmp	r0, #1
 1366 000e 0ED8     		bhi	.L92
 385:Middlewares/ST/STM32_USB_Host_Library/Core/Src/usbh_core.c ****     if ((pif->bInterfaceNumber == interface_number) && (pif->bAlternateSetting == alt_settings))
 1367              		.loc 1 385 5 view .LVU495
 1368              	.LVL109:
 386:Middlewares/ST/STM32_USB_Host_Library/Core/Src/usbh_core.c ****     {
 1369              		.loc 1 386 5 view .LVU496
 386:Middlewares/ST/STM32_USB_Host_Library/Core/Src/usbh_core.c ****     {
 1370              		.loc 1 386 13 is_stmt 0 view .LVU497
 1371 0010 1A23     		movs	r3, #26
 1372 0012 03FB0043 		mla	r3, r3, r0, r4
 1373 0016 93F84433 		ldrb	r3, [r3, #836]	@ zero_extendqisi2
 386:Middlewares/ST/STM32_USB_Host_Library/Core/Src/usbh_core.c ****     {
 1374              		.loc 1 386 8 view .LVU498
ARM GAS  /tmp/ccKRVJ90.s 			page 54


 1375 001a 8B42     		cmp	r3, r1
 1376 001c F4D1     		bne	.L88
 386:Middlewares/ST/STM32_USB_Host_Library/Core/Src/usbh_core.c ****     {
 1377              		.loc 1 386 60 discriminator 1 view .LVU499
 1378 001e 1A23     		movs	r3, #26
 1379 0020 03FB0043 		mla	r3, r3, r0, r4
 1380 0024 93F84533 		ldrb	r3, [r3, #837]	@ zero_extendqisi2
 386:Middlewares/ST/STM32_USB_Host_Library/Core/Src/usbh_core.c ****     {
 1381              		.loc 1 386 53 discriminator 1 view .LVU500
 1382 0028 9342     		cmp	r3, r2
 1383 002a EDD1     		bne	.L88
 1384 002c 00E0     		b	.L89
 1385              	.LVL110:
 1386              	.L92:
 392:Middlewares/ST/STM32_USB_Host_Library/Core/Src/usbh_core.c **** }
 1387              		.loc 1 392 10 view .LVU501
 1388 002e FF20     		movs	r0, #255
 1389              	.LVL111:
 1390              	.L89:
 393:Middlewares/ST/STM32_USB_Host_Library/Core/Src/usbh_core.c **** 
 1391              		.loc 1 393 1 view .LVU502
 1392 0030 5DF8044B 		ldr	r4, [sp], #4
 1393              	.LCFI13:
 1394              		.cfi_restore 4
 1395              		.cfi_def_cfa_offset 0
 1396              	.LVL112:
 393:Middlewares/ST/STM32_USB_Host_Library/Core/Src/usbh_core.c **** 
 1397              		.loc 1 393 1 view .LVU503
 1398 0034 7047     		bx	lr
 1399              		.cfi_endproc
 1400              	.LFE249:
 1402              		.section	.text.USBH_Start,"ax",%progbits
 1403              		.align	1
 1404              		.global	USBH_Start
 1405              		.syntax unified
 1406              		.thumb
 1407              		.thumb_func
 1408              		.fpu fpv4-sp-d16
 1410              	USBH_Start:
 1411              	.LVL113:
 1412              	.LFB250:
 403:Middlewares/ST/STM32_USB_Host_Library/Core/Src/usbh_core.c ****   /* Start the low level driver  */
 1413              		.loc 1 403 1 is_stmt 1 view -0
 1414              		.cfi_startproc
 1415              		@ args = 0, pretend = 0, frame = 0
 1416              		@ frame_needed = 0, uses_anonymous_args = 0
 403:Middlewares/ST/STM32_USB_Host_Library/Core/Src/usbh_core.c ****   /* Start the low level driver  */
 1417              		.loc 1 403 1 is_stmt 0 view .LVU505
 1418 0000 10B5     		push	{r4, lr}
 1419              	.LCFI14:
 1420              		.cfi_def_cfa_offset 8
 1421              		.cfi_offset 4, -8
 1422              		.cfi_offset 14, -4
 1423 0002 0446     		mov	r4, r0
 405:Middlewares/ST/STM32_USB_Host_Library/Core/Src/usbh_core.c **** 
 1424              		.loc 1 405 3 is_stmt 1 view .LVU506
 405:Middlewares/ST/STM32_USB_Host_Library/Core/Src/usbh_core.c **** 
ARM GAS  /tmp/ccKRVJ90.s 			page 55


 1425              		.loc 1 405 9 is_stmt 0 view .LVU507
 1426 0004 FFF7FEFF 		bl	USBH_LL_Start
 1427              	.LVL114:
 408:Middlewares/ST/STM32_USB_Host_Library/Core/Src/usbh_core.c **** 
 1428              		.loc 1 408 3 is_stmt 1 view .LVU508
 408:Middlewares/ST/STM32_USB_Host_Library/Core/Src/usbh_core.c **** 
 1429              		.loc 1 408 9 is_stmt 0 view .LVU509
 1430 0008 0121     		movs	r1, #1
 1431 000a 2046     		mov	r0, r4
 1432 000c FFF7FEFF 		bl	USBH_LL_DriverVBUS
 1433              	.LVL115:
 410:Middlewares/ST/STM32_USB_Host_Library/Core/Src/usbh_core.c **** }
 1434              		.loc 1 410 3 is_stmt 1 view .LVU510
 411:Middlewares/ST/STM32_USB_Host_Library/Core/Src/usbh_core.c **** 
 1435              		.loc 1 411 1 is_stmt 0 view .LVU511
 1436 0010 0020     		movs	r0, #0
 1437 0012 10BD     		pop	{r4, pc}
 411:Middlewares/ST/STM32_USB_Host_Library/Core/Src/usbh_core.c **** 
 1438              		.loc 1 411 1 view .LVU512
 1439              		.cfi_endproc
 1440              	.LFE250:
 1442              		.section	.text.USBH_Stop,"ax",%progbits
 1443              		.align	1
 1444              		.global	USBH_Stop
 1445              		.syntax unified
 1446              		.thumb
 1447              		.thumb_func
 1448              		.fpu fpv4-sp-d16
 1450              	USBH_Stop:
 1451              	.LVL116:
 1452              	.LFB251:
 421:Middlewares/ST/STM32_USB_Host_Library/Core/Src/usbh_core.c ****   /* DeActivate VBUS on the port */
 1453              		.loc 1 421 1 is_stmt 1 view -0
 1454              		.cfi_startproc
 1455              		@ args = 0, pretend = 0, frame = 0
 1456              		@ frame_needed = 0, uses_anonymous_args = 0
 421:Middlewares/ST/STM32_USB_Host_Library/Core/Src/usbh_core.c ****   /* DeActivate VBUS on the port */
 1457              		.loc 1 421 1 is_stmt 0 view .LVU514
 1458 0000 10B5     		push	{r4, lr}
 1459              	.LCFI15:
 1460              		.cfi_def_cfa_offset 8
 1461              		.cfi_offset 4, -8
 1462              		.cfi_offset 14, -4
 1463 0002 0446     		mov	r4, r0
 423:Middlewares/ST/STM32_USB_Host_Library/Core/Src/usbh_core.c **** 
 1464              		.loc 1 423 3 is_stmt 1 view .LVU515
 423:Middlewares/ST/STM32_USB_Host_Library/Core/Src/usbh_core.c **** 
 1465              		.loc 1 423 9 is_stmt 0 view .LVU516
 1466 0004 0021     		movs	r1, #0
 1467 0006 FFF7FEFF 		bl	USBH_LL_DriverVBUS
 1468              	.LVL117:
 426:Middlewares/ST/STM32_USB_Host_Library/Core/Src/usbh_core.c **** 
 1469              		.loc 1 426 3 is_stmt 1 view .LVU517
 426:Middlewares/ST/STM32_USB_Host_Library/Core/Src/usbh_core.c **** 
 1470              		.loc 1 426 9 is_stmt 0 view .LVU518
 1471 000a 2046     		mov	r0, r4
 1472 000c FFF7FEFF 		bl	USBH_LL_Stop
ARM GAS  /tmp/ccKRVJ90.s 			page 56


 1473              	.LVL118:
 429:Middlewares/ST/STM32_USB_Host_Library/Core/Src/usbh_core.c ****   (void)USBH_FreePipe(phost, phost->Control.pipe_out);
 1474              		.loc 1 429 3 is_stmt 1 view .LVU519
 429:Middlewares/ST/STM32_USB_Host_Library/Core/Src/usbh_core.c ****   (void)USBH_FreePipe(phost, phost->Control.pipe_out);
 1475              		.loc 1 429 9 is_stmt 0 view .LVU520
 1476 0010 2179     		ldrb	r1, [r4, #4]	@ zero_extendqisi2
 1477 0012 2046     		mov	r0, r4
 1478 0014 FFF7FEFF 		bl	USBH_FreePipe
 1479              	.LVL119:
 430:Middlewares/ST/STM32_USB_Host_Library/Core/Src/usbh_core.c **** 
 1480              		.loc 1 430 3 is_stmt 1 view .LVU521
 430:Middlewares/ST/STM32_USB_Host_Library/Core/Src/usbh_core.c **** 
 1481              		.loc 1 430 9 is_stmt 0 view .LVU522
 1482 0018 6179     		ldrb	r1, [r4, #5]	@ zero_extendqisi2
 1483 001a 2046     		mov	r0, r4
 1484 001c FFF7FEFF 		bl	USBH_FreePipe
 1485              	.LVL120:
 432:Middlewares/ST/STM32_USB_Host_Library/Core/Src/usbh_core.c **** }
 1486              		.loc 1 432 3 is_stmt 1 view .LVU523
 433:Middlewares/ST/STM32_USB_Host_Library/Core/Src/usbh_core.c **** 
 1487              		.loc 1 433 1 is_stmt 0 view .LVU524
 1488 0020 0020     		movs	r0, #0
 1489 0022 10BD     		pop	{r4, pc}
 433:Middlewares/ST/STM32_USB_Host_Library/Core/Src/usbh_core.c **** 
 1490              		.loc 1 433 1 view .LVU525
 1491              		.cfi_endproc
 1492              	.LFE251:
 1494              		.section	.text.USBH_Process,"ax",%progbits
 1495              		.align	1
 1496              		.global	USBH_Process
 1497              		.syntax unified
 1498              		.thumb
 1499              		.thumb_func
 1500              		.fpu fpv4-sp-d16
 1502              	USBH_Process:
 1503              	.LVL121:
 1504              	.LFB253:
 474:Middlewares/ST/STM32_USB_Host_Library/Core/Src/usbh_core.c ****   __IO USBH_StatusTypeDef status = USBH_FAIL;
 1505              		.loc 1 474 1 is_stmt 1 view -0
 1506              		.cfi_startproc
 1507              		@ args = 0, pretend = 0, frame = 8
 1508              		@ frame_needed = 0, uses_anonymous_args = 0
 474:Middlewares/ST/STM32_USB_Host_Library/Core/Src/usbh_core.c ****   __IO USBH_StatusTypeDef status = USBH_FAIL;
 1509              		.loc 1 474 1 is_stmt 0 view .LVU527
 1510 0000 30B5     		push	{r4, r5, lr}
 1511              	.LCFI16:
 1512              		.cfi_def_cfa_offset 12
 1513              		.cfi_offset 4, -12
 1514              		.cfi_offset 5, -8
 1515              		.cfi_offset 14, -4
 1516 0002 87B0     		sub	sp, sp, #28
 1517              	.LCFI17:
 1518              		.cfi_def_cfa_offset 40
 1519 0004 0446     		mov	r4, r0
 475:Middlewares/ST/STM32_USB_Host_Library/Core/Src/usbh_core.c ****   uint8_t idx = 0U;
 1520              		.loc 1 475 3 is_stmt 1 view .LVU528
 475:Middlewares/ST/STM32_USB_Host_Library/Core/Src/usbh_core.c ****   uint8_t idx = 0U;
ARM GAS  /tmp/ccKRVJ90.s 			page 57


 1521              		.loc 1 475 27 is_stmt 0 view .LVU529
 1522 0006 0223     		movs	r3, #2
 1523 0008 8DF81730 		strb	r3, [sp, #23]
 476:Middlewares/ST/STM32_USB_Host_Library/Core/Src/usbh_core.c **** 
 1524              		.loc 1 476 3 is_stmt 1 view .LVU530
 1525              	.LVL122:
 479:Middlewares/ST/STM32_USB_Host_Library/Core/Src/usbh_core.c ****   {
 1526              		.loc 1 479 3 view .LVU531
 479:Middlewares/ST/STM32_USB_Host_Library/Core/Src/usbh_core.c ****   {
 1527              		.loc 1 479 20 is_stmt 0 view .LVU532
 1528 000c 90F82133 		ldrb	r3, [r0, #801]	@ zero_extendqisi2
 1529 0010 DBB2     		uxtb	r3, r3
 479:Middlewares/ST/STM32_USB_Host_Library/Core/Src/usbh_core.c ****   {
 1530              		.loc 1 479 6 view .LVU533
 1531 0012 012B     		cmp	r3, #1
 1532 0014 11D0     		beq	.L138
 1533              	.L98:
 484:Middlewares/ST/STM32_USB_Host_Library/Core/Src/usbh_core.c ****   {
 1534              		.loc 1 484 3 is_stmt 1 view .LVU534
 484:Middlewares/ST/STM32_USB_Host_Library/Core/Src/usbh_core.c ****   {
 1535              		.loc 1 484 16 is_stmt 0 view .LVU535
 1536 0016 2378     		ldrb	r3, [r4]	@ zero_extendqisi2
 1537 0018 DBB2     		uxtb	r3, r3
 1538 001a 0B2B     		cmp	r3, #11
 1539 001c 4ED8     		bhi	.L99
 1540 001e DFE813F0 		tbh	[pc, r3, lsl #1]
 1541              	.L101:
 1542 0022 0F00     		.2byte	(.L111-.L101)/2
 1543 0024 2900     		.2byte	(.L110-.L101)/2
 1544 0026 5A00     		.2byte	(.L109-.L101)/2
 1545 0028 7201     		.2byte	(.L108-.L101)/2
 1546 002a 4D00     		.2byte	(.L99-.L101)/2
 1547 002c 9B00     		.2byte	(.L107-.L101)/2
 1548 002e 4501     		.2byte	(.L106-.L101)/2
 1549 0030 BB00     		.2byte	(.L105-.L101)/2
 1550 0032 D000     		.2byte	(.L104-.L101)/2
 1551 0034 E400     		.2byte	(.L103-.L101)/2
 1552 0036 0B01     		.2byte	(.L102-.L101)/2
 1553 0038 6901     		.2byte	(.L100-.L101)/2
 1554              		.p2align 1
 1555              	.L138:
 481:Middlewares/ST/STM32_USB_Host_Library/Core/Src/usbh_core.c ****   }
 1556              		.loc 1 481 5 is_stmt 1 view .LVU536
 481:Middlewares/ST/STM32_USB_Host_Library/Core/Src/usbh_core.c ****   }
 1557              		.loc 1 481 19 is_stmt 0 view .LVU537
 1558 003a 0323     		movs	r3, #3
 1559 003c 0370     		strb	r3, [r0]
 1560 003e EAE7     		b	.L98
 1561              	.L111:
 488:Middlewares/ST/STM32_USB_Host_Library/Core/Src/usbh_core.c ****       {
 1562              		.loc 1 488 7 is_stmt 1 view .LVU538
 488:Middlewares/ST/STM32_USB_Host_Library/Core/Src/usbh_core.c ****       {
 1563              		.loc 1 488 25 is_stmt 0 view .LVU539
 1564 0040 94F82033 		ldrb	r3, [r4, #800]	@ zero_extendqisi2
 488:Middlewares/ST/STM32_USB_Host_Library/Core/Src/usbh_core.c ****       {
 1565              		.loc 1 488 10 view .LVU540
 1566 0044 D3B3     		cbz	r3, .L99
ARM GAS  /tmp/ccKRVJ90.s 			page 58


 490:Middlewares/ST/STM32_USB_Host_Library/Core/Src/usbh_core.c **** 
 1567              		.loc 1 490 9 is_stmt 1 view .LVU541
 490:Middlewares/ST/STM32_USB_Host_Library/Core/Src/usbh_core.c **** 
 1568              		.loc 1 490 9 view .LVU542
 490:Middlewares/ST/STM32_USB_Host_Library/Core/Src/usbh_core.c **** 
 1569              		.loc 1 490 9 view .LVU543
 493:Middlewares/ST/STM32_USB_Host_Library/Core/Src/usbh_core.c ****         USBH_Delay(200U);
 1570              		.loc 1 493 9 view .LVU544
 493:Middlewares/ST/STM32_USB_Host_Library/Core/Src/usbh_core.c ****         USBH_Delay(200U);
 1571              		.loc 1 493 23 is_stmt 0 view .LVU545
 1572 0046 0125     		movs	r5, #1
 1573 0048 2570     		strb	r5, [r4]
 494:Middlewares/ST/STM32_USB_Host_Library/Core/Src/usbh_core.c ****         (void)USBH_LL_ResetPort(phost);
 1574              		.loc 1 494 9 is_stmt 1 view .LVU546
 1575 004a C820     		movs	r0, #200
 1576              	.LVL123:
 494:Middlewares/ST/STM32_USB_Host_Library/Core/Src/usbh_core.c ****         (void)USBH_LL_ResetPort(phost);
 1577              		.loc 1 494 9 is_stmt 0 view .LVU547
 1578 004c FFF7FEFF 		bl	USBH_Delay
 1579              	.LVL124:
 495:Middlewares/ST/STM32_USB_Host_Library/Core/Src/usbh_core.c **** 
 1580              		.loc 1 495 9 is_stmt 1 view .LVU548
 495:Middlewares/ST/STM32_USB_Host_Library/Core/Src/usbh_core.c **** 
 1581              		.loc 1 495 15 is_stmt 0 view .LVU549
 1582 0050 2046     		mov	r0, r4
 1583 0052 FFF7FEFF 		bl	USBH_LL_ResetPort
 1584              	.LVL125:
 498:Middlewares/ST/STM32_USB_Host_Library/Core/Src/usbh_core.c ****         phost->Timeout = 0U;
 1585              		.loc 1 498 9 is_stmt 1 view .LVU550
 498:Middlewares/ST/STM32_USB_Host_Library/Core/Src/usbh_core.c ****         phost->Timeout = 0U;
 1586              		.loc 1 498 31 is_stmt 0 view .LVU551
 1587 0056 0022     		movs	r2, #0
 1588 0058 84F81C23 		strb	r2, [r4, #796]
 499:Middlewares/ST/STM32_USB_Host_Library/Core/Src/usbh_core.c **** 
 1589              		.loc 1 499 9 is_stmt 1 view .LVU552
 499:Middlewares/ST/STM32_USB_Host_Library/Core/Src/usbh_core.c **** 
 1590              		.loc 1 499 24 is_stmt 0 view .LVU553
 1591 005c C4F8C823 		str	r2, [r4, #968]
 502:Middlewares/ST/STM32_USB_Host_Library/Core/Src/usbh_core.c **** #if (osCMSIS < 0x20000U)
 1592              		.loc 1 502 9 is_stmt 1 view .LVU554
 502:Middlewares/ST/STM32_USB_Host_Library/Core/Src/usbh_core.c **** #if (osCMSIS < 0x20000U)
 1593              		.loc 1 502 23 is_stmt 0 view .LVU555
 1594 0060 C4F8E053 		str	r5, [r4, #992]
 506:Middlewares/ST/STM32_USB_Host_Library/Core/Src/usbh_core.c **** #endif
 1595              		.loc 1 506 9 is_stmt 1 view .LVU556
 506:Middlewares/ST/STM32_USB_Host_Library/Core/Src/usbh_core.c **** #endif
 1596              		.loc 1 506 15 is_stmt 0 view .LVU557
 1597 0064 1346     		mov	r3, r2
 1598 0066 04F57871 		add	r1, r4, #992
 1599 006a D4F8D803 		ldr	r0, [r4, #984]
 1600 006e FFF7FEFF 		bl	osMessageQueuePut
 1601              	.LVL126:
 1602 0072 23E0     		b	.L99
 1603              	.LVL127:
 1604              	.L110:
 514:Middlewares/ST/STM32_USB_Host_Library/Core/Src/usbh_core.c ****       {
 1605              		.loc 1 514 7 is_stmt 1 view .LVU558
ARM GAS  /tmp/ccKRVJ90.s 			page 59


 514:Middlewares/ST/STM32_USB_Host_Library/Core/Src/usbh_core.c ****       {
 1606              		.loc 1 514 24 is_stmt 0 view .LVU559
 1607 0074 94F82333 		ldrb	r3, [r4, #803]	@ zero_extendqisi2
 514:Middlewares/ST/STM32_USB_Host_Library/Core/Src/usbh_core.c ****       {
 1608              		.loc 1 514 10 view .LVU560
 1609 0078 012B     		cmp	r3, #1
 1610 007a 0FD0     		beq	.L139
 522:Middlewares/ST/STM32_USB_Host_Library/Core/Src/usbh_core.c ****         {
 1611              		.loc 1 522 9 is_stmt 1 view .LVU561
 522:Middlewares/ST/STM32_USB_Host_Library/Core/Src/usbh_core.c ****         {
 1612              		.loc 1 522 18 is_stmt 0 view .LVU562
 1613 007c D4F8C833 		ldr	r3, [r4, #968]
 522:Middlewares/ST/STM32_USB_Host_Library/Core/Src/usbh_core.c ****         {
 1614              		.loc 1 522 12 view .LVU563
 1615 0080 B3F57A7F 		cmp	r3, #1000
 1616 0084 20D9     		bls	.L114
 524:Middlewares/ST/STM32_USB_Host_Library/Core/Src/usbh_core.c ****           if (phost->device.RstCnt > 3U)
 1617              		.loc 1 524 11 is_stmt 1 view .LVU564
 524:Middlewares/ST/STM32_USB_Host_Library/Core/Src/usbh_core.c ****           if (phost->device.RstCnt > 3U)
 1618              		.loc 1 524 24 is_stmt 0 view .LVU565
 1619 0086 94F81F33 		ldrb	r3, [r4, #799]	@ zero_extendqisi2
 524:Middlewares/ST/STM32_USB_Host_Library/Core/Src/usbh_core.c ****           if (phost->device.RstCnt > 3U)
 1620              		.loc 1 524 31 view .LVU566
 1621 008a 0133     		adds	r3, r3, #1
 1622 008c DBB2     		uxtb	r3, r3
 1623 008e 84F81F33 		strb	r3, [r4, #799]
 525:Middlewares/ST/STM32_USB_Host_Library/Core/Src/usbh_core.c ****           {
 1624              		.loc 1 525 11 is_stmt 1 view .LVU567
 525:Middlewares/ST/STM32_USB_Host_Library/Core/Src/usbh_core.c ****           {
 1625              		.loc 1 525 14 is_stmt 0 view .LVU568
 1626 0092 032B     		cmp	r3, #3
 1627 0094 15D9     		bls	.L115
 528:Middlewares/ST/STM32_USB_Host_Library/Core/Src/usbh_core.c ****             phost->gState = HOST_ABORT_STATE;
 1628              		.loc 1 528 13 is_stmt 1 view .LVU569
 528:Middlewares/ST/STM32_USB_Host_Library/Core/Src/usbh_core.c ****             phost->gState = HOST_ABORT_STATE;
 1629              		.loc 1 528 13 view .LVU570
 528:Middlewares/ST/STM32_USB_Host_Library/Core/Src/usbh_core.c ****             phost->gState = HOST_ABORT_STATE;
 1630              		.loc 1 528 13 view .LVU571
 529:Middlewares/ST/STM32_USB_Host_Library/Core/Src/usbh_core.c ****           }
 1631              		.loc 1 529 13 view .LVU572
 529:Middlewares/ST/STM32_USB_Host_Library/Core/Src/usbh_core.c ****           }
 1632              		.loc 1 529 27 is_stmt 0 view .LVU573
 1633 0096 0D23     		movs	r3, #13
 1634 0098 2370     		strb	r3, [r4]
 1635 009a 04E0     		b	.L113
 1636              	.L139:
 516:Middlewares/ST/STM32_USB_Host_Library/Core/Src/usbh_core.c ****         phost->device.RstCnt = 0U;
 1637              		.loc 1 516 9 is_stmt 1 view .LVU574
 516:Middlewares/ST/STM32_USB_Host_Library/Core/Src/usbh_core.c ****         phost->device.RstCnt = 0U;
 1638              		.loc 1 516 9 view .LVU575
 516:Middlewares/ST/STM32_USB_Host_Library/Core/Src/usbh_core.c ****         phost->device.RstCnt = 0U;
 1639              		.loc 1 516 9 view .LVU576
 517:Middlewares/ST/STM32_USB_Host_Library/Core/Src/usbh_core.c ****         phost->gState = HOST_DEV_ATTACHED;
 1640              		.loc 1 517 9 view .LVU577
 517:Middlewares/ST/STM32_USB_Host_Library/Core/Src/usbh_core.c ****         phost->gState = HOST_DEV_ATTACHED;
 1641              		.loc 1 517 30 is_stmt 0 view .LVU578
 1642 009c 0023     		movs	r3, #0
ARM GAS  /tmp/ccKRVJ90.s 			page 60


 1643 009e 84F81F33 		strb	r3, [r4, #799]
 518:Middlewares/ST/STM32_USB_Host_Library/Core/Src/usbh_core.c ****       }
 1644              		.loc 1 518 9 is_stmt 1 view .LVU579
 518:Middlewares/ST/STM32_USB_Host_Library/Core/Src/usbh_core.c ****       }
 1645              		.loc 1 518 23 is_stmt 0 view .LVU580
 1646 00a2 0223     		movs	r3, #2
 1647 00a4 2370     		strb	r3, [r4]
 1648              	.LVL128:
 1649              	.L113:
 543:Middlewares/ST/STM32_USB_Host_Library/Core/Src/usbh_core.c **** #if (osCMSIS < 0x20000U)
 1650              		.loc 1 543 7 is_stmt 1 view .LVU581
 543:Middlewares/ST/STM32_USB_Host_Library/Core/Src/usbh_core.c **** #if (osCMSIS < 0x20000U)
 1651              		.loc 1 543 21 is_stmt 0 view .LVU582
 1652 00a6 0123     		movs	r3, #1
 1653 00a8 C4F8E033 		str	r3, [r4, #992]
 547:Middlewares/ST/STM32_USB_Host_Library/Core/Src/usbh_core.c **** #endif
 1654              		.loc 1 547 7 is_stmt 1 view .LVU583
 547:Middlewares/ST/STM32_USB_Host_Library/Core/Src/usbh_core.c **** #endif
 1655              		.loc 1 547 13 is_stmt 0 view .LVU584
 1656 00ac 0023     		movs	r3, #0
 1657 00ae 1A46     		mov	r2, r3
 1658 00b0 04F57871 		add	r1, r4, #992
 1659 00b4 D4F8D803 		ldr	r0, [r4, #984]
 1660 00b8 FFF7FEFF 		bl	osMessageQueuePut
 1661              	.LVL129:
 550:Middlewares/ST/STM32_USB_Host_Library/Core/Src/usbh_core.c **** 
 1662              		.loc 1 550 7 is_stmt 1 view .LVU585
 1663              	.L99:
 833:Middlewares/ST/STM32_USB_Host_Library/Core/Src/usbh_core.c **** }
 1664              		.loc 1 833 3 view .LVU586
 834:Middlewares/ST/STM32_USB_Host_Library/Core/Src/usbh_core.c **** 
 1665              		.loc 1 834 1 is_stmt 0 view .LVU587
 1666 00bc 0020     		movs	r0, #0
 1667 00be 07B0     		add	sp, sp, #28
 1668              	.LCFI18:
 1669              		.cfi_remember_state
 1670              		.cfi_def_cfa_offset 12
 1671              		@ sp needed
 1672 00c0 30BD     		pop	{r4, r5, pc}
 1673              	.LVL130:
 1674              	.L115:
 1675              	.LCFI19:
 1676              		.cfi_restore_state
 533:Middlewares/ST/STM32_USB_Host_Library/Core/Src/usbh_core.c ****           }
 1677              		.loc 1 533 13 is_stmt 1 view .LVU588
 533:Middlewares/ST/STM32_USB_Host_Library/Core/Src/usbh_core.c ****           }
 1678              		.loc 1 533 27 is_stmt 0 view .LVU589
 1679 00c2 0023     		movs	r3, #0
 1680 00c4 2370     		strb	r3, [r4]
 1681 00c6 EEE7     		b	.L113
 1682              	.L114:
 538:Middlewares/ST/STM32_USB_Host_Library/Core/Src/usbh_core.c ****           USBH_Delay(10U);
 1683              		.loc 1 538 11 is_stmt 1 view .LVU590
 538:Middlewares/ST/STM32_USB_Host_Library/Core/Src/usbh_core.c ****           USBH_Delay(10U);
 1684              		.loc 1 538 26 is_stmt 0 view .LVU591
 1685 00c8 0A33     		adds	r3, r3, #10
 1686 00ca C4F8C833 		str	r3, [r4, #968]
ARM GAS  /tmp/ccKRVJ90.s 			page 61


 539:Middlewares/ST/STM32_USB_Host_Library/Core/Src/usbh_core.c ****         }
 1687              		.loc 1 539 11 is_stmt 1 view .LVU592
 1688 00ce 0A20     		movs	r0, #10
 1689              	.LVL131:
 539:Middlewares/ST/STM32_USB_Host_Library/Core/Src/usbh_core.c ****         }
 1690              		.loc 1 539 11 is_stmt 0 view .LVU593
 1691 00d0 FFF7FEFF 		bl	USBH_Delay
 1692              	.LVL132:
 1693 00d4 E7E7     		b	.L113
 1694              	.LVL133:
 1695              	.L109:
 554:Middlewares/ST/STM32_USB_Host_Library/Core/Src/usbh_core.c ****       {
 1696              		.loc 1 554 7 is_stmt 1 view .LVU594
 554:Middlewares/ST/STM32_USB_Host_Library/Core/Src/usbh_core.c ****       {
 1697              		.loc 1 554 16 is_stmt 0 view .LVU595
 1698 00d6 D4F8D433 		ldr	r3, [r4, #980]
 554:Middlewares/ST/STM32_USB_Host_Library/Core/Src/usbh_core.c ****       {
 1699              		.loc 1 554 10 view .LVU596
 1700 00da 13B1     		cbz	r3, .L116
 556:Middlewares/ST/STM32_USB_Host_Library/Core/Src/usbh_core.c ****       }
 1701              		.loc 1 556 9 is_stmt 1 view .LVU597
 1702 00dc 0421     		movs	r1, #4
 1703 00de 2046     		mov	r0, r4
 1704              	.LVL134:
 556:Middlewares/ST/STM32_USB_Host_Library/Core/Src/usbh_core.c ****       }
 1705              		.loc 1 556 9 is_stmt 0 view .LVU598
 1706 00e0 9847     		blx	r3
 1707              	.LVL135:
 1708              	.L116:
 560:Middlewares/ST/STM32_USB_Host_Library/Core/Src/usbh_core.c **** 
 1709              		.loc 1 560 7 is_stmt 1 view .LVU599
 1710 00e2 6420     		movs	r0, #100
 1711 00e4 FFF7FEFF 		bl	USBH_Delay
 1712              	.LVL136:
 562:Middlewares/ST/STM32_USB_Host_Library/Core/Src/usbh_core.c **** 
 1713              		.loc 1 562 7 view .LVU600
 562:Middlewares/ST/STM32_USB_Host_Library/Core/Src/usbh_core.c **** 
 1714              		.loc 1 562 38 is_stmt 0 view .LVU601
 1715 00e8 2046     		mov	r0, r4
 1716 00ea FFF7FEFF 		bl	USBH_LL_GetSpeed
 1717              	.LVL137:
 562:Middlewares/ST/STM32_USB_Host_Library/Core/Src/usbh_core.c **** 
 1718              		.loc 1 562 27 view .LVU602
 1719 00ee 84F81D03 		strb	r0, [r4, #797]
 564:Middlewares/ST/STM32_USB_Host_Library/Core/Src/usbh_core.c **** 
 1720              		.loc 1 564 7 is_stmt 1 view .LVU603
 564:Middlewares/ST/STM32_USB_Host_Library/Core/Src/usbh_core.c **** 
 1721              		.loc 1 564 21 is_stmt 0 view .LVU604
 1722 00f2 0523     		movs	r3, #5
 1723 00f4 2370     		strb	r3, [r4]
 566:Middlewares/ST/STM32_USB_Host_Library/Core/Src/usbh_core.c ****       phost->Control.pipe_in  = USBH_AllocPipe(phost, 0x80U);
 1724              		.loc 1 566 7 is_stmt 1 view .LVU605
 566:Middlewares/ST/STM32_USB_Host_Library/Core/Src/usbh_core.c ****       phost->Control.pipe_in  = USBH_AllocPipe(phost, 0x80U);
 1725              		.loc 1 566 33 is_stmt 0 view .LVU606
 1726 00f6 0021     		movs	r1, #0
 1727 00f8 2046     		mov	r0, r4
 1728 00fa FFF7FEFF 		bl	USBH_AllocPipe
ARM GAS  /tmp/ccKRVJ90.s 			page 62


 1729              	.LVL138:
 566:Middlewares/ST/STM32_USB_Host_Library/Core/Src/usbh_core.c ****       phost->Control.pipe_in  = USBH_AllocPipe(phost, 0x80U);
 1730              		.loc 1 566 31 view .LVU607
 1731 00fe 6071     		strb	r0, [r4, #5]
 567:Middlewares/ST/STM32_USB_Host_Library/Core/Src/usbh_core.c **** 
 1732              		.loc 1 567 7 is_stmt 1 view .LVU608
 567:Middlewares/ST/STM32_USB_Host_Library/Core/Src/usbh_core.c **** 
 1733              		.loc 1 567 33 is_stmt 0 view .LVU609
 1734 0100 8021     		movs	r1, #128
 1735 0102 2046     		mov	r0, r4
 1736 0104 FFF7FEFF 		bl	USBH_AllocPipe
 1737              	.LVL139:
 1738 0108 0146     		mov	r1, r0
 567:Middlewares/ST/STM32_USB_Host_Library/Core/Src/usbh_core.c **** 
 1739              		.loc 1 567 31 view .LVU610
 1740 010a 2071     		strb	r0, [r4, #4]
 570:Middlewares/ST/STM32_USB_Host_Library/Core/Src/usbh_core.c ****                           phost->device.address, phost->device.speed,
 1741              		.loc 1 570 7 is_stmt 1 view .LVU611
 570:Middlewares/ST/STM32_USB_Host_Library/Core/Src/usbh_core.c ****                           phost->device.address, phost->device.speed,
 1742              		.loc 1 570 13 is_stmt 0 view .LVU612
 1743 010c A379     		ldrb	r3, [r4, #6]	@ zero_extendqisi2
 1744 010e 0293     		str	r3, [sp, #8]
 1745 0110 0025     		movs	r5, #0
 1746 0112 0195     		str	r5, [sp, #4]
 1747 0114 94F81D33 		ldrb	r3, [r4, #797]	@ zero_extendqisi2
 1748 0118 0093     		str	r3, [sp]
 1749 011a 94F81C33 		ldrb	r3, [r4, #796]	@ zero_extendqisi2
 1750 011e 8022     		movs	r2, #128
 1751 0120 2046     		mov	r0, r4
 1752 0122 FFF7FEFF 		bl	USBH_OpenPipe
 1753              	.LVL140:
 575:Middlewares/ST/STM32_USB_Host_Library/Core/Src/usbh_core.c ****                           phost->device.address, phost->device.speed,
 1754              		.loc 1 575 7 is_stmt 1 view .LVU613
 575:Middlewares/ST/STM32_USB_Host_Library/Core/Src/usbh_core.c ****                           phost->device.address, phost->device.speed,
 1755              		.loc 1 575 13 is_stmt 0 view .LVU614
 1756 0126 A379     		ldrb	r3, [r4, #6]	@ zero_extendqisi2
 1757 0128 0293     		str	r3, [sp, #8]
 1758 012a 0195     		str	r5, [sp, #4]
 1759 012c 94F81D33 		ldrb	r3, [r4, #797]	@ zero_extendqisi2
 1760 0130 0093     		str	r3, [sp]
 1761 0132 94F81C33 		ldrb	r3, [r4, #796]	@ zero_extendqisi2
 1762 0136 2A46     		mov	r2, r5
 1763 0138 6179     		ldrb	r1, [r4, #5]	@ zero_extendqisi2
 1764 013a 2046     		mov	r0, r4
 1765 013c FFF7FEFF 		bl	USBH_OpenPipe
 1766              	.LVL141:
 580:Middlewares/ST/STM32_USB_Host_Library/Core/Src/usbh_core.c **** #if (osCMSIS < 0x20000U)
 1767              		.loc 1 580 7 is_stmt 1 view .LVU615
 580:Middlewares/ST/STM32_USB_Host_Library/Core/Src/usbh_core.c **** #if (osCMSIS < 0x20000U)
 1768              		.loc 1 580 21 is_stmt 0 view .LVU616
 1769 0140 0123     		movs	r3, #1
 1770 0142 C4F8E033 		str	r3, [r4, #992]
 584:Middlewares/ST/STM32_USB_Host_Library/Core/Src/usbh_core.c **** #endif
 1771              		.loc 1 584 7 is_stmt 1 view .LVU617
 584:Middlewares/ST/STM32_USB_Host_Library/Core/Src/usbh_core.c **** #endif
 1772              		.loc 1 584 13 is_stmt 0 view .LVU618
 1773 0146 2B46     		mov	r3, r5
ARM GAS  /tmp/ccKRVJ90.s 			page 63


 1774 0148 2A46     		mov	r2, r5
 1775 014a 04F57871 		add	r1, r4, #992
 1776 014e D4F8D803 		ldr	r0, [r4, #984]
 1777 0152 FFF7FEFF 		bl	osMessageQueuePut
 1778              	.LVL142:
 587:Middlewares/ST/STM32_USB_Host_Library/Core/Src/usbh_core.c **** 
 1779              		.loc 1 587 7 is_stmt 1 view .LVU619
 1780 0156 B1E7     		b	.L99
 1781              	.LVL143:
 1782              	.L107:
 591:Middlewares/ST/STM32_USB_Host_Library/Core/Src/usbh_core.c ****       if (status == USBH_OK)
 1783              		.loc 1 591 7 view .LVU620
 591:Middlewares/ST/STM32_USB_Host_Library/Core/Src/usbh_core.c ****       if (status == USBH_OK)
 1784              		.loc 1 591 16 is_stmt 0 view .LVU621
 1785 0158 2046     		mov	r0, r4
 1786              	.LVL144:
 591:Middlewares/ST/STM32_USB_Host_Library/Core/Src/usbh_core.c ****       if (status == USBH_OK)
 1787              		.loc 1 591 16 view .LVU622
 1788 015a FFF7FEFF 		bl	USBH_HandleEnum
 1789              	.LVL145:
 591:Middlewares/ST/STM32_USB_Host_Library/Core/Src/usbh_core.c ****       if (status == USBH_OK)
 1790              		.loc 1 591 14 view .LVU623
 1791 015e 8DF81700 		strb	r0, [sp, #23]
 592:Middlewares/ST/STM32_USB_Host_Library/Core/Src/usbh_core.c ****       {
 1792              		.loc 1 592 7 is_stmt 1 view .LVU624
 592:Middlewares/ST/STM32_USB_Host_Library/Core/Src/usbh_core.c ****       {
 1793              		.loc 1 592 18 is_stmt 0 view .LVU625
 1794 0162 9DF81730 		ldrb	r3, [sp, #23]	@ zero_extendqisi2
 592:Middlewares/ST/STM32_USB_Host_Library/Core/Src/usbh_core.c ****       {
 1795              		.loc 1 592 10 view .LVU626
 1796 0166 002B     		cmp	r3, #0
 1797 0168 A8D1     		bne	.L99
 595:Middlewares/ST/STM32_USB_Host_Library/Core/Src/usbh_core.c **** 
 1798              		.loc 1 595 9 is_stmt 1 view .LVU627
 595:Middlewares/ST/STM32_USB_Host_Library/Core/Src/usbh_core.c **** 
 1799              		.loc 1 595 9 view .LVU628
 595:Middlewares/ST/STM32_USB_Host_Library/Core/Src/usbh_core.c **** 
 1800              		.loc 1 595 9 view .LVU629
 597:Middlewares/ST/STM32_USB_Host_Library/Core/Src/usbh_core.c **** 
 1801              		.loc 1 597 9 view .LVU630
 597:Middlewares/ST/STM32_USB_Host_Library/Core/Src/usbh_core.c **** 
 1802              		.loc 1 597 41 is_stmt 0 view .LVU631
 1803 016a 84F82433 		strb	r3, [r4, #804]
 599:Middlewares/ST/STM32_USB_Host_Library/Core/Src/usbh_core.c ****         {
 1804              		.loc 1 599 9 is_stmt 1 view .LVU632
 599:Middlewares/ST/STM32_USB_Host_Library/Core/Src/usbh_core.c ****         {
 1805              		.loc 1 599 34 is_stmt 0 view .LVU633
 1806 016e 94F83733 		ldrb	r3, [r4, #823]	@ zero_extendqisi2
 599:Middlewares/ST/STM32_USB_Host_Library/Core/Src/usbh_core.c ****         {
 1807              		.loc 1 599 12 view .LVU634
 1808 0172 012B     		cmp	r3, #1
 1809 0174 0DD0     		beq	.L140
 606:Middlewares/ST/STM32_USB_Host_Library/Core/Src/usbh_core.c ****         }
 1810              		.loc 1 606 11 is_stmt 1 view .LVU635
 606:Middlewares/ST/STM32_USB_Host_Library/Core/Src/usbh_core.c ****         }
 1811              		.loc 1 606 25 is_stmt 0 view .LVU636
 1812 0176 0723     		movs	r3, #7
ARM GAS  /tmp/ccKRVJ90.s 			page 64


 1813 0178 2370     		strb	r3, [r4]
 1814              	.L118:
 609:Middlewares/ST/STM32_USB_Host_Library/Core/Src/usbh_core.c **** #if (osCMSIS < 0x20000U)
 1815              		.loc 1 609 9 is_stmt 1 view .LVU637
 609:Middlewares/ST/STM32_USB_Host_Library/Core/Src/usbh_core.c **** #if (osCMSIS < 0x20000U)
 1816              		.loc 1 609 23 is_stmt 0 view .LVU638
 1817 017a 0523     		movs	r3, #5
 1818 017c C4F8E033 		str	r3, [r4, #992]
 613:Middlewares/ST/STM32_USB_Host_Library/Core/Src/usbh_core.c **** #endif
 1819              		.loc 1 613 9 is_stmt 1 view .LVU639
 613:Middlewares/ST/STM32_USB_Host_Library/Core/Src/usbh_core.c **** #endif
 1820              		.loc 1 613 15 is_stmt 0 view .LVU640
 1821 0180 0023     		movs	r3, #0
 1822 0182 1A46     		mov	r2, r3
 1823 0184 04F57871 		add	r1, r4, #992
 1824 0188 D4F8D803 		ldr	r0, [r4, #984]
 1825 018c FFF7FEFF 		bl	osMessageQueuePut
 1826              	.LVL146:
 1827 0190 94E7     		b	.L99
 1828              	.L140:
 601:Middlewares/ST/STM32_USB_Host_Library/Core/Src/usbh_core.c ****           phost->gState = HOST_SET_CONFIGURATION;
 1829              		.loc 1 601 11 is_stmt 1 view .LVU641
 601:Middlewares/ST/STM32_USB_Host_Library/Core/Src/usbh_core.c ****           phost->gState = HOST_SET_CONFIGURATION;
 1830              		.loc 1 601 11 view .LVU642
 601:Middlewares/ST/STM32_USB_Host_Library/Core/Src/usbh_core.c ****           phost->gState = HOST_SET_CONFIGURATION;
 1831              		.loc 1 601 11 view .LVU643
 602:Middlewares/ST/STM32_USB_Host_Library/Core/Src/usbh_core.c ****         }
 1832              		.loc 1 602 11 view .LVU644
 602:Middlewares/ST/STM32_USB_Host_Library/Core/Src/usbh_core.c ****         }
 1833              		.loc 1 602 25 is_stmt 0 view .LVU645
 1834 0192 0823     		movs	r3, #8
 1835 0194 2370     		strb	r3, [r4]
 1836 0196 F0E7     		b	.L118
 1837              	.LVL147:
 1838              	.L105:
 622:Middlewares/ST/STM32_USB_Host_Library/Core/Src/usbh_core.c ****       {
 1839              		.loc 1 622 7 is_stmt 1 view .LVU646
 622:Middlewares/ST/STM32_USB_Host_Library/Core/Src/usbh_core.c ****       {
 1840              		.loc 1 622 16 is_stmt 0 view .LVU647
 1841 0198 D4F8D433 		ldr	r3, [r4, #980]
 622:Middlewares/ST/STM32_USB_Host_Library/Core/Src/usbh_core.c ****       {
 1842              		.loc 1 622 10 view .LVU648
 1843 019c 002B     		cmp	r3, #0
 1844 019e 8DD0     		beq	.L99
 624:Middlewares/ST/STM32_USB_Host_Library/Core/Src/usbh_core.c ****         phost->gState = HOST_SET_CONFIGURATION;
 1845              		.loc 1 624 9 is_stmt 1 view .LVU649
 1846 01a0 0121     		movs	r1, #1
 1847 01a2 2046     		mov	r0, r4
 1848              	.LVL148:
 624:Middlewares/ST/STM32_USB_Host_Library/Core/Src/usbh_core.c ****         phost->gState = HOST_SET_CONFIGURATION;
 1849              		.loc 1 624 9 is_stmt 0 view .LVU650
 1850 01a4 9847     		blx	r3
 1851              	.LVL149:
 625:Middlewares/ST/STM32_USB_Host_Library/Core/Src/usbh_core.c **** 
 1852              		.loc 1 625 9 is_stmt 1 view .LVU651
 625:Middlewares/ST/STM32_USB_Host_Library/Core/Src/usbh_core.c **** 
 1853              		.loc 1 625 23 is_stmt 0 view .LVU652
ARM GAS  /tmp/ccKRVJ90.s 			page 65


 1854 01a6 0823     		movs	r3, #8
 1855 01a8 2370     		strb	r3, [r4]
 628:Middlewares/ST/STM32_USB_Host_Library/Core/Src/usbh_core.c **** #if (osCMSIS < 0x20000U)
 1856              		.loc 1 628 9 is_stmt 1 view .LVU653
 628:Middlewares/ST/STM32_USB_Host_Library/Core/Src/usbh_core.c **** #if (osCMSIS < 0x20000U)
 1857              		.loc 1 628 23 is_stmt 0 view .LVU654
 1858 01aa 0523     		movs	r3, #5
 1859 01ac C4F8E033 		str	r3, [r4, #992]
 632:Middlewares/ST/STM32_USB_Host_Library/Core/Src/usbh_core.c **** #endif
 1860              		.loc 1 632 9 is_stmt 1 view .LVU655
 632:Middlewares/ST/STM32_USB_Host_Library/Core/Src/usbh_core.c **** #endif
 1861              		.loc 1 632 15 is_stmt 0 view .LVU656
 1862 01b0 0023     		movs	r3, #0
 1863 01b2 1A46     		mov	r2, r3
 1864 01b4 04F57871 		add	r1, r4, #992
 1865 01b8 D4F8D803 		ldr	r0, [r4, #984]
 1866 01bc FFF7FEFF 		bl	osMessageQueuePut
 1867              	.LVL150:
 1868 01c0 7CE7     		b	.L99
 1869              	.LVL151:
 1870              	.L104:
 641:Middlewares/ST/STM32_USB_Host_Library/Core/Src/usbh_core.c ****       {
 1871              		.loc 1 641 7 is_stmt 1 view .LVU657
 641:Middlewares/ST/STM32_USB_Host_Library/Core/Src/usbh_core.c ****       {
 1872              		.loc 1 641 11 is_stmt 0 view .LVU658
 1873 01c2 94F83D13 		ldrb	r1, [r4, #829]	@ zero_extendqisi2
 1874 01c6 2046     		mov	r0, r4
 1875              	.LVL152:
 641:Middlewares/ST/STM32_USB_Host_Library/Core/Src/usbh_core.c ****       {
 1876              		.loc 1 641 11 view .LVU659
 1877 01c8 FFF7FEFF 		bl	USBH_SetCfg
 1878              	.LVL153:
 641:Middlewares/ST/STM32_USB_Host_Library/Core/Src/usbh_core.c ****       {
 1879              		.loc 1 641 10 view .LVU660
 1880 01cc 08B9     		cbnz	r0, .L119
 643:Middlewares/ST/STM32_USB_Host_Library/Core/Src/usbh_core.c ****         USBH_UsrLog("Default configuration set.");
 1881              		.loc 1 643 9 is_stmt 1 view .LVU661
 643:Middlewares/ST/STM32_USB_Host_Library/Core/Src/usbh_core.c ****         USBH_UsrLog("Default configuration set.");
 1882              		.loc 1 643 23 is_stmt 0 view .LVU662
 1883 01ce 0923     		movs	r3, #9
 1884 01d0 2370     		strb	r3, [r4]
 1885              	.L119:
 644:Middlewares/ST/STM32_USB_Host_Library/Core/Src/usbh_core.c ****       }
 1886              		.loc 1 644 9 is_stmt 1 view .LVU663
 644:Middlewares/ST/STM32_USB_Host_Library/Core/Src/usbh_core.c ****       }
 1887              		.loc 1 644 9 view .LVU664
 644:Middlewares/ST/STM32_USB_Host_Library/Core/Src/usbh_core.c ****       }
 1888              		.loc 1 644 9 view .LVU665
 648:Middlewares/ST/STM32_USB_Host_Library/Core/Src/usbh_core.c **** #if (osCMSIS < 0x20000U)
 1889              		.loc 1 648 7 view .LVU666
 648:Middlewares/ST/STM32_USB_Host_Library/Core/Src/usbh_core.c **** #if (osCMSIS < 0x20000U)
 1890              		.loc 1 648 21 is_stmt 0 view .LVU667
 1891 01d2 0123     		movs	r3, #1
 1892 01d4 C4F8E033 		str	r3, [r4, #992]
 652:Middlewares/ST/STM32_USB_Host_Library/Core/Src/usbh_core.c **** #endif
 1893              		.loc 1 652 7 is_stmt 1 view .LVU668
 652:Middlewares/ST/STM32_USB_Host_Library/Core/Src/usbh_core.c **** #endif
ARM GAS  /tmp/ccKRVJ90.s 			page 66


 1894              		.loc 1 652 13 is_stmt 0 view .LVU669
 1895 01d8 0023     		movs	r3, #0
 1896 01da 1A46     		mov	r2, r3
 1897 01dc 04F57871 		add	r1, r4, #992
 1898 01e0 D4F8D803 		ldr	r0, [r4, #984]
 1899 01e4 FFF7FEFF 		bl	osMessageQueuePut
 1900              	.LVL154:
 655:Middlewares/ST/STM32_USB_Host_Library/Core/Src/usbh_core.c **** 
 1901              		.loc 1 655 7 is_stmt 1 view .LVU670
 1902 01e8 68E7     		b	.L99
 1903              	.LVL155:
 1904              	.L103:
 659:Middlewares/ST/STM32_USB_Host_Library/Core/Src/usbh_core.c ****       {
 1905              		.loc 1 659 7 view .LVU671
 659:Middlewares/ST/STM32_USB_Host_Library/Core/Src/usbh_core.c ****       {
 1906              		.loc 1 659 34 is_stmt 0 view .LVU672
 1907 01ea 94F83F33 		ldrb	r3, [r4, #831]	@ zero_extendqisi2
 659:Middlewares/ST/STM32_USB_Host_Library/Core/Src/usbh_core.c ****       {
 1908              		.loc 1 659 10 view .LVU673
 1909 01ee 13F0200F 		tst	r3, #32
 1910 01f2 0DD1     		bne	.L141
 680:Middlewares/ST/STM32_USB_Host_Library/Core/Src/usbh_core.c ****       }
 1911              		.loc 1 680 9 is_stmt 1 view .LVU674
 680:Middlewares/ST/STM32_USB_Host_Library/Core/Src/usbh_core.c ****       }
 1912              		.loc 1 680 23 is_stmt 0 view .LVU675
 1913 01f4 0A23     		movs	r3, #10
 1914 01f6 2370     		strb	r3, [r4]
 1915              	.LVL156:
 1916              	.L122:
 684:Middlewares/ST/STM32_USB_Host_Library/Core/Src/usbh_core.c **** #if (osCMSIS < 0x20000U)
 1917              		.loc 1 684 7 is_stmt 1 view .LVU676
 684:Middlewares/ST/STM32_USB_Host_Library/Core/Src/usbh_core.c **** #if (osCMSIS < 0x20000U)
 1918              		.loc 1 684 21 is_stmt 0 view .LVU677
 1919 01f8 0123     		movs	r3, #1
 1920 01fa C4F8E033 		str	r3, [r4, #992]
 688:Middlewares/ST/STM32_USB_Host_Library/Core/Src/usbh_core.c **** #endif
 1921              		.loc 1 688 7 is_stmt 1 view .LVU678
 688:Middlewares/ST/STM32_USB_Host_Library/Core/Src/usbh_core.c **** #endif
 1922              		.loc 1 688 13 is_stmt 0 view .LVU679
 1923 01fe 0023     		movs	r3, #0
 1924 0200 1A46     		mov	r2, r3
 1925 0202 04F57871 		add	r1, r4, #992
 1926 0206 D4F8D803 		ldr	r0, [r4, #984]
 1927 020a FFF7FEFF 		bl	osMessageQueuePut
 1928              	.LVL157:
 691:Middlewares/ST/STM32_USB_Host_Library/Core/Src/usbh_core.c **** 
 1929              		.loc 1 691 7 is_stmt 1 view .LVU680
 1930 020e 55E7     		b	.L99
 1931              	.LVL158:
 1932              	.L141:
 661:Middlewares/ST/STM32_USB_Host_Library/Core/Src/usbh_core.c **** 
 1933              		.loc 1 661 9 view .LVU681
 661:Middlewares/ST/STM32_USB_Host_Library/Core/Src/usbh_core.c **** 
 1934              		.loc 1 661 18 is_stmt 0 view .LVU682
 1935 0210 0121     		movs	r1, #1
 1936 0212 2046     		mov	r0, r4
 1937              	.LVL159:
ARM GAS  /tmp/ccKRVJ90.s 			page 67


 661:Middlewares/ST/STM32_USB_Host_Library/Core/Src/usbh_core.c **** 
 1938              		.loc 1 661 18 view .LVU683
 1939 0214 FFF7FEFF 		bl	USBH_SetFeature
 1940              	.LVL160:
 661:Middlewares/ST/STM32_USB_Host_Library/Core/Src/usbh_core.c **** 
 1941              		.loc 1 661 16 view .LVU684
 1942 0218 8DF81700 		strb	r0, [sp, #23]
 663:Middlewares/ST/STM32_USB_Host_Library/Core/Src/usbh_core.c ****         {
 1943              		.loc 1 663 9 is_stmt 1 view .LVU685
 663:Middlewares/ST/STM32_USB_Host_Library/Core/Src/usbh_core.c ****         {
 1944              		.loc 1 663 20 is_stmt 0 view .LVU686
 1945 021c 9DF81730 		ldrb	r3, [sp, #23]	@ zero_extendqisi2
 663:Middlewares/ST/STM32_USB_Host_Library/Core/Src/usbh_core.c ****         {
 1946              		.loc 1 663 12 view .LVU687
 1947 0220 13B9     		cbnz	r3, .L121
 665:Middlewares/ST/STM32_USB_Host_Library/Core/Src/usbh_core.c ****           phost->gState = HOST_CHECK_CLASS;
 1948              		.loc 1 665 11 is_stmt 1 view .LVU688
 665:Middlewares/ST/STM32_USB_Host_Library/Core/Src/usbh_core.c ****           phost->gState = HOST_CHECK_CLASS;
 1949              		.loc 1 665 11 view .LVU689
 665:Middlewares/ST/STM32_USB_Host_Library/Core/Src/usbh_core.c ****           phost->gState = HOST_CHECK_CLASS;
 1950              		.loc 1 665 11 view .LVU690
 666:Middlewares/ST/STM32_USB_Host_Library/Core/Src/usbh_core.c ****         }
 1951              		.loc 1 666 11 view .LVU691
 666:Middlewares/ST/STM32_USB_Host_Library/Core/Src/usbh_core.c ****         }
 1952              		.loc 1 666 25 is_stmt 0 view .LVU692
 1953 0222 0A23     		movs	r3, #10
 1954 0224 2370     		strb	r3, [r4]
 1955 0226 E7E7     		b	.L122
 1956              	.L121:
 668:Middlewares/ST/STM32_USB_Host_Library/Core/Src/usbh_core.c ****         {
 1957              		.loc 1 668 14 is_stmt 1 view .LVU693
 668:Middlewares/ST/STM32_USB_Host_Library/Core/Src/usbh_core.c ****         {
 1958              		.loc 1 668 25 is_stmt 0 view .LVU694
 1959 0228 9DF81730 		ldrb	r3, [sp, #23]	@ zero_extendqisi2
 1960 022c DBB2     		uxtb	r3, r3
 668:Middlewares/ST/STM32_USB_Host_Library/Core/Src/usbh_core.c ****         {
 1961              		.loc 1 668 17 view .LVU695
 1962 022e 032B     		cmp	r3, #3
 1963 0230 E2D1     		bne	.L122
 670:Middlewares/ST/STM32_USB_Host_Library/Core/Src/usbh_core.c ****           phost->gState = HOST_CHECK_CLASS;
 1964              		.loc 1 670 11 is_stmt 1 view .LVU696
 670:Middlewares/ST/STM32_USB_Host_Library/Core/Src/usbh_core.c ****           phost->gState = HOST_CHECK_CLASS;
 1965              		.loc 1 670 11 view .LVU697
 670:Middlewares/ST/STM32_USB_Host_Library/Core/Src/usbh_core.c ****           phost->gState = HOST_CHECK_CLASS;
 1966              		.loc 1 670 11 view .LVU698
 671:Middlewares/ST/STM32_USB_Host_Library/Core/Src/usbh_core.c ****         }
 1967              		.loc 1 671 11 view .LVU699
 671:Middlewares/ST/STM32_USB_Host_Library/Core/Src/usbh_core.c ****         }
 1968              		.loc 1 671 25 is_stmt 0 view .LVU700
 1969 0232 0A23     		movs	r3, #10
 1970 0234 2370     		strb	r3, [r4]
 1971 0236 DFE7     		b	.L122
 1972              	.LVL161:
 1973              	.L102:
 695:Middlewares/ST/STM32_USB_Host_Library/Core/Src/usbh_core.c ****       {
 1974              		.loc 1 695 7 is_stmt 1 view .LVU701
 695:Middlewares/ST/STM32_USB_Host_Library/Core/Src/usbh_core.c ****       {
ARM GAS  /tmp/ccKRVJ90.s 			page 68


 1975              		.loc 1 695 16 is_stmt 0 view .LVU702
 1976 0238 D4F88033 		ldr	r3, [r4, #896]
 695:Middlewares/ST/STM32_USB_Host_Library/Core/Src/usbh_core.c ****       {
 1977              		.loc 1 695 10 view .LVU703
 1978 023c 8BB1     		cbz	r3, .L123
 701:Middlewares/ST/STM32_USB_Host_Library/Core/Src/usbh_core.c **** 
 1979              		.loc 1 701 9 is_stmt 1 view .LVU704
 701:Middlewares/ST/STM32_USB_Host_Library/Core/Src/usbh_core.c **** 
 1980              		.loc 1 701 29 is_stmt 0 view .LVU705
 1981 023e 0023     		movs	r3, #0
 1982 0240 C4F87C33 		str	r3, [r4, #892]
 703:Middlewares/ST/STM32_USB_Host_Library/Core/Src/usbh_core.c ****         {
 1983              		.loc 1 703 9 is_stmt 1 view .LVU706
 1984              	.LVL162:
 1985              	.L124:
 703:Middlewares/ST/STM32_USB_Host_Library/Core/Src/usbh_core.c ****         {
 1986              		.loc 1 703 24 discriminator 1 view .LVU707
 703:Middlewares/ST/STM32_USB_Host_Library/Core/Src/usbh_core.c ****         {
 1987              		.loc 1 703 9 is_stmt 0 discriminator 1 view .LVU708
 1988 0244 CBB1     		cbz	r3, .L127
 1989              	.LVL163:
 1990              	.L126:
 712:Middlewares/ST/STM32_USB_Host_Library/Core/Src/usbh_core.c ****         {
 1991              		.loc 1 712 9 is_stmt 1 view .LVU709
 712:Middlewares/ST/STM32_USB_Host_Library/Core/Src/usbh_core.c ****         {
 1992              		.loc 1 712 18 is_stmt 0 view .LVU710
 1993 0246 D4F87C33 		ldr	r3, [r4, #892]
 712:Middlewares/ST/STM32_USB_Host_Library/Core/Src/usbh_core.c ****         {
 1994              		.loc 1 712 12 view .LVU711
 1995 024a 63B3     		cbz	r3, .L128
 714:Middlewares/ST/STM32_USB_Host_Library/Core/Src/usbh_core.c ****           {
 1996              		.loc 1 714 11 is_stmt 1 view .LVU712
 714:Middlewares/ST/STM32_USB_Host_Library/Core/Src/usbh_core.c ****           {
 1997              		.loc 1 714 34 is_stmt 0 view .LVU713
 1998 024c 9B68     		ldr	r3, [r3, #8]
 714:Middlewares/ST/STM32_USB_Host_Library/Core/Src/usbh_core.c ****           {
 1999              		.loc 1 714 15 view .LVU714
 2000 024e 2046     		mov	r0, r4
 2001 0250 9847     		blx	r3
 2002              	.LVL164:
 714:Middlewares/ST/STM32_USB_Host_Library/Core/Src/usbh_core.c ****           {
 2003              		.loc 1 714 14 view .LVU715
 2004 0252 28BB     		cbnz	r0, .L129
 716:Middlewares/ST/STM32_USB_Host_Library/Core/Src/usbh_core.c ****             USBH_UsrLog("%s class started.", phost->pActiveClass->Name);
 2005              		.loc 1 716 13 is_stmt 1 view .LVU716
 716:Middlewares/ST/STM32_USB_Host_Library/Core/Src/usbh_core.c ****             USBH_UsrLog("%s class started.", phost->pActiveClass->Name);
 2006              		.loc 1 716 27 is_stmt 0 view .LVU717
 2007 0254 0623     		movs	r3, #6
 2008 0256 2370     		strb	r3, [r4]
 717:Middlewares/ST/STM32_USB_Host_Library/Core/Src/usbh_core.c **** 
 2009              		.loc 1 717 13 is_stmt 1 view .LVU718
 717:Middlewares/ST/STM32_USB_Host_Library/Core/Src/usbh_core.c **** 
 2010              		.loc 1 717 13 view .LVU719
 717:Middlewares/ST/STM32_USB_Host_Library/Core/Src/usbh_core.c **** 
 2011              		.loc 1 717 13 view .LVU720
 720:Middlewares/ST/STM32_USB_Host_Library/Core/Src/usbh_core.c ****           }
 2012              		.loc 1 720 13 view .LVU721
ARM GAS  /tmp/ccKRVJ90.s 			page 69


 720:Middlewares/ST/STM32_USB_Host_Library/Core/Src/usbh_core.c ****           }
 2013              		.loc 1 720 18 is_stmt 0 view .LVU722
 2014 0258 D4F8D433 		ldr	r3, [r4, #980]
 720:Middlewares/ST/STM32_USB_Host_Library/Core/Src/usbh_core.c ****           }
 2015              		.loc 1 720 13 view .LVU723
 2016 025c 0321     		movs	r1, #3
 2017 025e 2046     		mov	r0, r4
 2018 0260 9847     		blx	r3
 2019              	.LVL165:
 2020              	.L123:
 731:Middlewares/ST/STM32_USB_Host_Library/Core/Src/usbh_core.c ****         }
 2021              		.loc 1 731 11 is_stmt 1 view .LVU724
 731:Middlewares/ST/STM32_USB_Host_Library/Core/Src/usbh_core.c ****         }
 2022              		.loc 1 731 11 view .LVU725
 731:Middlewares/ST/STM32_USB_Host_Library/Core/Src/usbh_core.c ****         }
 2023              		.loc 1 731 11 view .LVU726
 736:Middlewares/ST/STM32_USB_Host_Library/Core/Src/usbh_core.c **** #if (osCMSIS < 0x20000U)
 2024              		.loc 1 736 7 view .LVU727
 736:Middlewares/ST/STM32_USB_Host_Library/Core/Src/usbh_core.c **** #if (osCMSIS < 0x20000U)
 2025              		.loc 1 736 21 is_stmt 0 view .LVU728
 2026 0262 0523     		movs	r3, #5
 2027 0264 C4F8E033 		str	r3, [r4, #992]
 740:Middlewares/ST/STM32_USB_Host_Library/Core/Src/usbh_core.c **** #endif
 2028              		.loc 1 740 7 is_stmt 1 view .LVU729
 740:Middlewares/ST/STM32_USB_Host_Library/Core/Src/usbh_core.c **** #endif
 2029              		.loc 1 740 13 is_stmt 0 view .LVU730
 2030 0268 0023     		movs	r3, #0
 2031 026a 1A46     		mov	r2, r3
 2032 026c 04F57871 		add	r1, r4, #992
 2033 0270 D4F8D803 		ldr	r0, [r4, #984]
 2034 0274 FFF7FEFF 		bl	osMessageQueuePut
 2035              	.LVL166:
 743:Middlewares/ST/STM32_USB_Host_Library/Core/Src/usbh_core.c **** 
 2036              		.loc 1 743 7 is_stmt 1 view .LVU731
 2037 0278 20E7     		b	.L99
 2038              	.LVL167:
 2039              	.L127:
 705:Middlewares/ST/STM32_USB_Host_Library/Core/Src/usbh_core.c ****           {
 2040              		.loc 1 705 11 view .LVU732
 705:Middlewares/ST/STM32_USB_Host_Library/Core/Src/usbh_core.c ****           {
 2041              		.loc 1 705 28 is_stmt 0 view .LVU733
 2042 027a 1846     		mov	r0, r3
 2043 027c 03F1DE02 		add	r2, r3, #222
 2044 0280 54F82220 		ldr	r2, [r4, r2, lsl #2]
 705:Middlewares/ST/STM32_USB_Host_Library/Core/Src/usbh_core.c ****           {
 2045              		.loc 1 705 33 view .LVU734
 2046 0284 1179     		ldrb	r1, [r2, #4]	@ zero_extendqisi2
 705:Middlewares/ST/STM32_USB_Host_Library/Core/Src/usbh_core.c ****           {
 2047              		.loc 1 705 81 view .LVU735
 2048 0286 94F84723 		ldrb	r2, [r4, #839]	@ zero_extendqisi2
 705:Middlewares/ST/STM32_USB_Host_Library/Core/Src/usbh_core.c ****           {
 2049              		.loc 1 705 14 view .LVU736
 2050 028a 9142     		cmp	r1, r2
 2051 028c 02D0     		beq	.L142
 703:Middlewares/ST/STM32_USB_Host_Library/Core/Src/usbh_core.c ****         {
 2052              		.loc 1 703 60 is_stmt 1 discriminator 2 view .LVU737
 703:Middlewares/ST/STM32_USB_Host_Library/Core/Src/usbh_core.c ****         {
ARM GAS  /tmp/ccKRVJ90.s 			page 70


 2053              		.loc 1 703 63 is_stmt 0 discriminator 2 view .LVU738
 2054 028e 0133     		adds	r3, r3, #1
 2055              	.LVL168:
 703:Middlewares/ST/STM32_USB_Host_Library/Core/Src/usbh_core.c ****         {
 2056              		.loc 1 703 63 discriminator 2 view .LVU739
 2057 0290 DBB2     		uxtb	r3, r3
 2058              	.LVL169:
 703:Middlewares/ST/STM32_USB_Host_Library/Core/Src/usbh_core.c ****         {
 2059              		.loc 1 703 63 discriminator 2 view .LVU740
 2060 0292 D7E7     		b	.L124
 2061              	.L142:
 707:Middlewares/ST/STM32_USB_Host_Library/Core/Src/usbh_core.c ****             break;
 2062              		.loc 1 707 13 is_stmt 1 view .LVU741
 707:Middlewares/ST/STM32_USB_Host_Library/Core/Src/usbh_core.c ****             break;
 2063              		.loc 1 707 48 is_stmt 0 view .LVU742
 2064 0294 DE30     		adds	r0, r0, #222
 2065 0296 54F82030 		ldr	r3, [r4, r0, lsl #2]
 2066              	.LVL170:
 707:Middlewares/ST/STM32_USB_Host_Library/Core/Src/usbh_core.c ****             break;
 2067              		.loc 1 707 33 view .LVU743
 2068 029a C4F87C33 		str	r3, [r4, #892]
 708:Middlewares/ST/STM32_USB_Host_Library/Core/Src/usbh_core.c ****           }
 2069              		.loc 1 708 13 is_stmt 1 view .LVU744
 2070 029e D2E7     		b	.L126
 2071              	.L129:
 724:Middlewares/ST/STM32_USB_Host_Library/Core/Src/usbh_core.c ****             USBH_UsrLog("Device not supporting %s class.", phost->pActiveClass->Name);
 2072              		.loc 1 724 13 view .LVU745
 724:Middlewares/ST/STM32_USB_Host_Library/Core/Src/usbh_core.c ****             USBH_UsrLog("Device not supporting %s class.", phost->pActiveClass->Name);
 2073              		.loc 1 724 27 is_stmt 0 view .LVU746
 2074 02a0 0D23     		movs	r3, #13
 2075 02a2 2370     		strb	r3, [r4]
 2076 02a4 DDE7     		b	.L123
 2077              	.L128:
 730:Middlewares/ST/STM32_USB_Host_Library/Core/Src/usbh_core.c ****           USBH_UsrLog("No registered class for this device.");
 2078              		.loc 1 730 11 is_stmt 1 view .LVU747
 730:Middlewares/ST/STM32_USB_Host_Library/Core/Src/usbh_core.c ****           USBH_UsrLog("No registered class for this device.");
 2079              		.loc 1 730 25 is_stmt 0 view .LVU748
 2080 02a6 0D23     		movs	r3, #13
 2081 02a8 2370     		strb	r3, [r4]
 2082 02aa DAE7     		b	.L123
 2083              	.LVL171:
 2084              	.L106:
 747:Middlewares/ST/STM32_USB_Host_Library/Core/Src/usbh_core.c ****       {
 2085              		.loc 1 747 7 is_stmt 1 view .LVU749
 747:Middlewares/ST/STM32_USB_Host_Library/Core/Src/usbh_core.c ****       {
 2086              		.loc 1 747 16 is_stmt 0 view .LVU750
 2087 02ac D4F87C33 		ldr	r3, [r4, #892]
 747:Middlewares/ST/STM32_USB_Host_Library/Core/Src/usbh_core.c ****       {
 2088              		.loc 1 747 10 view .LVU751
 2089 02b0 EBB1     		cbz	r3, .L130
 749:Middlewares/ST/STM32_USB_Host_Library/Core/Src/usbh_core.c **** 
 2090              		.loc 1 749 9 is_stmt 1 view .LVU752
 749:Middlewares/ST/STM32_USB_Host_Library/Core/Src/usbh_core.c **** 
 2091              		.loc 1 749 37 is_stmt 0 view .LVU753
 2092 02b2 1B69     		ldr	r3, [r3, #16]
 749:Middlewares/ST/STM32_USB_Host_Library/Core/Src/usbh_core.c **** 
 2093              		.loc 1 749 18 view .LVU754
ARM GAS  /tmp/ccKRVJ90.s 			page 71


 2094 02b4 2046     		mov	r0, r4
 2095              	.LVL172:
 749:Middlewares/ST/STM32_USB_Host_Library/Core/Src/usbh_core.c **** 
 2096              		.loc 1 749 18 view .LVU755
 2097 02b6 9847     		blx	r3
 2098              	.LVL173:
 749:Middlewares/ST/STM32_USB_Host_Library/Core/Src/usbh_core.c **** 
 2099              		.loc 1 749 16 view .LVU756
 2100 02b8 8DF81700 		strb	r0, [sp, #23]
 751:Middlewares/ST/STM32_USB_Host_Library/Core/Src/usbh_core.c ****         {
 2101              		.loc 1 751 9 is_stmt 1 view .LVU757
 751:Middlewares/ST/STM32_USB_Host_Library/Core/Src/usbh_core.c ****         {
 2102              		.loc 1 751 20 is_stmt 0 view .LVU758
 2103 02bc 9DF81730 		ldrb	r3, [sp, #23]	@ zero_extendqisi2
 751:Middlewares/ST/STM32_USB_Host_Library/Core/Src/usbh_core.c ****         {
 2104              		.loc 1 751 12 view .LVU759
 2105 02c0 6BB9     		cbnz	r3, .L131
 753:Middlewares/ST/STM32_USB_Host_Library/Core/Src/usbh_core.c ****         }
 2106              		.loc 1 753 11 is_stmt 1 view .LVU760
 753:Middlewares/ST/STM32_USB_Host_Library/Core/Src/usbh_core.c ****         }
 2107              		.loc 1 753 25 is_stmt 0 view .LVU761
 2108 02c2 0B23     		movs	r3, #11
 2109 02c4 2370     		strb	r3, [r4]
 2110              	.L132:
 768:Middlewares/ST/STM32_USB_Host_Library/Core/Src/usbh_core.c ****       }
 2111              		.loc 1 768 9 is_stmt 1 view .LVU762
 768:Middlewares/ST/STM32_USB_Host_Library/Core/Src/usbh_core.c ****       }
 2112              		.loc 1 768 9 view .LVU763
 768:Middlewares/ST/STM32_USB_Host_Library/Core/Src/usbh_core.c ****       }
 2113              		.loc 1 768 9 view .LVU764
 771:Middlewares/ST/STM32_USB_Host_Library/Core/Src/usbh_core.c **** #if (osCMSIS < 0x20000U)
 2114              		.loc 1 771 7 view .LVU765
 771:Middlewares/ST/STM32_USB_Host_Library/Core/Src/usbh_core.c **** #if (osCMSIS < 0x20000U)
 2115              		.loc 1 771 21 is_stmt 0 view .LVU766
 2116 02c6 0523     		movs	r3, #5
 2117 02c8 C4F8E033 		str	r3, [r4, #992]
 775:Middlewares/ST/STM32_USB_Host_Library/Core/Src/usbh_core.c **** #endif
 2118              		.loc 1 775 7 is_stmt 1 view .LVU767
 775:Middlewares/ST/STM32_USB_Host_Library/Core/Src/usbh_core.c **** #endif
 2119              		.loc 1 775 13 is_stmt 0 view .LVU768
 2120 02cc 0023     		movs	r3, #0
 2121 02ce 1A46     		mov	r2, r3
 2122 02d0 04F57871 		add	r1, r4, #992
 2123 02d4 D4F8D803 		ldr	r0, [r4, #984]
 2124 02d8 FFF7FEFF 		bl	osMessageQueuePut
 2125              	.LVL174:
 778:Middlewares/ST/STM32_USB_Host_Library/Core/Src/usbh_core.c **** 
 2126              		.loc 1 778 7 is_stmt 1 view .LVU769
 2127 02dc EEE6     		b	.L99
 2128              	.L131:
 755:Middlewares/ST/STM32_USB_Host_Library/Core/Src/usbh_core.c ****         {
 2129              		.loc 1 755 14 view .LVU770
 755:Middlewares/ST/STM32_USB_Host_Library/Core/Src/usbh_core.c ****         {
 2130              		.loc 1 755 25 is_stmt 0 view .LVU771
 2131 02de 9DF81730 		ldrb	r3, [sp, #23]	@ zero_extendqisi2
 2132 02e2 DBB2     		uxtb	r3, r3
 755:Middlewares/ST/STM32_USB_Host_Library/Core/Src/usbh_core.c ****         {
ARM GAS  /tmp/ccKRVJ90.s 			page 72


 2133              		.loc 1 755 17 view .LVU772
 2134 02e4 022B     		cmp	r3, #2
 2135 02e6 EED1     		bne	.L132
 757:Middlewares/ST/STM32_USB_Host_Library/Core/Src/usbh_core.c ****           USBH_ErrLog("Device not responding Please Unplug.");
 2136              		.loc 1 757 11 is_stmt 1 view .LVU773
 757:Middlewares/ST/STM32_USB_Host_Library/Core/Src/usbh_core.c ****           USBH_ErrLog("Device not responding Please Unplug.");
 2137              		.loc 1 757 25 is_stmt 0 view .LVU774
 2138 02e8 0D23     		movs	r3, #13
 2139 02ea 2370     		strb	r3, [r4]
 758:Middlewares/ST/STM32_USB_Host_Library/Core/Src/usbh_core.c ****         }
 2140              		.loc 1 758 11 is_stmt 1 view .LVU775
 758:Middlewares/ST/STM32_USB_Host_Library/Core/Src/usbh_core.c ****         }
 2141              		.loc 1 758 11 view .LVU776
 758:Middlewares/ST/STM32_USB_Host_Library/Core/Src/usbh_core.c ****         }
 2142              		.loc 1 758 11 view .LVU777
 2143 02ec EBE7     		b	.L132
 2144              	.LVL175:
 2145              	.L130:
 767:Middlewares/ST/STM32_USB_Host_Library/Core/Src/usbh_core.c ****         USBH_ErrLog("Invalid Class Driver.");
 2146              		.loc 1 767 9 view .LVU778
 767:Middlewares/ST/STM32_USB_Host_Library/Core/Src/usbh_core.c ****         USBH_ErrLog("Invalid Class Driver.");
 2147              		.loc 1 767 23 is_stmt 0 view .LVU779
 2148 02ee 0D23     		movs	r3, #13
 2149 02f0 2370     		strb	r3, [r4]
 2150 02f2 E8E7     		b	.L132
 2151              	.L100:
 782:Middlewares/ST/STM32_USB_Host_Library/Core/Src/usbh_core.c ****       {
 2152              		.loc 1 782 7 is_stmt 1 view .LVU780
 782:Middlewares/ST/STM32_USB_Host_Library/Core/Src/usbh_core.c ****       {
 2153              		.loc 1 782 16 is_stmt 0 view .LVU781
 2154 02f4 D4F87C33 		ldr	r3, [r4, #892]
 782:Middlewares/ST/STM32_USB_Host_Library/Core/Src/usbh_core.c ****       {
 2155              		.loc 1 782 10 view .LVU782
 2156 02f8 002B     		cmp	r3, #0
 2157 02fa 3FF4DFAE 		beq	.L99
 784:Middlewares/ST/STM32_USB_Host_Library/Core/Src/usbh_core.c ****       }
 2158              		.loc 1 784 9 is_stmt 1 view .LVU783
 784:Middlewares/ST/STM32_USB_Host_Library/Core/Src/usbh_core.c ****       }
 2159              		.loc 1 784 28 is_stmt 0 view .LVU784
 2160 02fe 5B69     		ldr	r3, [r3, #20]
 784:Middlewares/ST/STM32_USB_Host_Library/Core/Src/usbh_core.c ****       }
 2161              		.loc 1 784 9 view .LVU785
 2162 0300 2046     		mov	r0, r4
 2163              	.LVL176:
 784:Middlewares/ST/STM32_USB_Host_Library/Core/Src/usbh_core.c ****       }
 2164              		.loc 1 784 9 view .LVU786
 2165 0302 9847     		blx	r3
 2166              	.LVL177:
 2167 0304 DAE6     		b	.L99
 2168              	.LVL178:
 2169              	.L108:
 789:Middlewares/ST/STM32_USB_Host_Library/Core/Src/usbh_core.c **** 
 2170              		.loc 1 789 7 is_stmt 1 view .LVU787
 789:Middlewares/ST/STM32_USB_Host_Library/Core/Src/usbh_core.c **** 
 2171              		.loc 1 789 37 is_stmt 0 view .LVU788
 2172 0306 0023     		movs	r3, #0
 2173 0308 84F82133 		strb	r3, [r4, #801]
ARM GAS  /tmp/ccKRVJ90.s 			page 73


 791:Middlewares/ST/STM32_USB_Host_Library/Core/Src/usbh_core.c **** 
 2174              		.loc 1 791 7 is_stmt 1 view .LVU789
 791:Middlewares/ST/STM32_USB_Host_Library/Core/Src/usbh_core.c **** 
 2175              		.loc 1 791 13 is_stmt 0 view .LVU790
 2176 030c 2046     		mov	r0, r4
 2177              	.LVL179:
 791:Middlewares/ST/STM32_USB_Host_Library/Core/Src/usbh_core.c **** 
 2178              		.loc 1 791 13 view .LVU791
 2179 030e FFF7FEFF 		bl	DeInitStateMachine
 2180              	.LVL180:
 794:Middlewares/ST/STM32_USB_Host_Library/Core/Src/usbh_core.c ****       {
 2181              		.loc 1 794 7 is_stmt 1 view .LVU792
 794:Middlewares/ST/STM32_USB_Host_Library/Core/Src/usbh_core.c ****       {
 2182              		.loc 1 794 16 is_stmt 0 view .LVU793
 2183 0312 D4F87C33 		ldr	r3, [r4, #892]
 794:Middlewares/ST/STM32_USB_Host_Library/Core/Src/usbh_core.c ****       {
 2184              		.loc 1 794 10 view .LVU794
 2185 0316 2BB1     		cbz	r3, .L133
 796:Middlewares/ST/STM32_USB_Host_Library/Core/Src/usbh_core.c ****         phost->pActiveClass = NULL;
 2186              		.loc 1 796 9 is_stmt 1 view .LVU795
 796:Middlewares/ST/STM32_USB_Host_Library/Core/Src/usbh_core.c ****         phost->pActiveClass = NULL;
 2187              		.loc 1 796 28 is_stmt 0 view .LVU796
 2188 0318 DB68     		ldr	r3, [r3, #12]
 796:Middlewares/ST/STM32_USB_Host_Library/Core/Src/usbh_core.c ****         phost->pActiveClass = NULL;
 2189              		.loc 1 796 9 view .LVU797
 2190 031a 2046     		mov	r0, r4
 2191 031c 9847     		blx	r3
 2192              	.LVL181:
 797:Middlewares/ST/STM32_USB_Host_Library/Core/Src/usbh_core.c ****       }
 2193              		.loc 1 797 9 is_stmt 1 view .LVU798
 797:Middlewares/ST/STM32_USB_Host_Library/Core/Src/usbh_core.c ****       }
 2194              		.loc 1 797 29 is_stmt 0 view .LVU799
 2195 031e 0023     		movs	r3, #0
 2196 0320 C4F87C33 		str	r3, [r4, #892]
 2197              	.L133:
 800:Middlewares/ST/STM32_USB_Host_Library/Core/Src/usbh_core.c ****       {
 2198              		.loc 1 800 7 is_stmt 1 view .LVU800
 800:Middlewares/ST/STM32_USB_Host_Library/Core/Src/usbh_core.c ****       {
 2199              		.loc 1 800 16 is_stmt 0 view .LVU801
 2200 0324 D4F8D433 		ldr	r3, [r4, #980]
 800:Middlewares/ST/STM32_USB_Host_Library/Core/Src/usbh_core.c ****       {
 2201              		.loc 1 800 10 view .LVU802
 2202 0328 13B1     		cbz	r3, .L134
 802:Middlewares/ST/STM32_USB_Host_Library/Core/Src/usbh_core.c ****       }
 2203              		.loc 1 802 9 is_stmt 1 view .LVU803
 2204 032a 0521     		movs	r1, #5
 2205 032c 2046     		mov	r0, r4
 2206 032e 9847     		blx	r3
 2207              	.LVL182:
 2208              	.L134:
 804:Middlewares/ST/STM32_USB_Host_Library/Core/Src/usbh_core.c **** 
 2209              		.loc 1 804 7 view .LVU804
 804:Middlewares/ST/STM32_USB_Host_Library/Core/Src/usbh_core.c **** 
 2210              		.loc 1 804 7 view .LVU805
 804:Middlewares/ST/STM32_USB_Host_Library/Core/Src/usbh_core.c **** 
 2211              		.loc 1 804 7 view .LVU806
 806:Middlewares/ST/STM32_USB_Host_Library/Core/Src/usbh_core.c ****       {
ARM GAS  /tmp/ccKRVJ90.s 			page 74


 2212              		.loc 1 806 7 view .LVU807
 806:Middlewares/ST/STM32_USB_Host_Library/Core/Src/usbh_core.c ****       {
 2213              		.loc 1 806 24 is_stmt 0 view .LVU808
 2214 0330 94F82233 		ldrb	r3, [r4, #802]	@ zero_extendqisi2
 2215 0334 DBB2     		uxtb	r3, r3
 806:Middlewares/ST/STM32_USB_Host_Library/Core/Src/usbh_core.c ****       {
 2216              		.loc 1 806 10 view .LVU809
 2217 0336 012B     		cmp	r3, #1
 2218 0338 0ED0     		beq	.L143
 816:Middlewares/ST/STM32_USB_Host_Library/Core/Src/usbh_core.c ****       }
 2219              		.loc 1 816 9 is_stmt 1 view .LVU810
 816:Middlewares/ST/STM32_USB_Host_Library/Core/Src/usbh_core.c ****       }
 2220              		.loc 1 816 15 is_stmt 0 view .LVU811
 2221 033a 2046     		mov	r0, r4
 2222 033c FFF7FEFF 		bl	USBH_LL_Start
 2223              	.LVL183:
 2224              	.L136:
 820:Middlewares/ST/STM32_USB_Host_Library/Core/Src/usbh_core.c **** #if (osCMSIS < 0x20000U)
 2225              		.loc 1 820 7 is_stmt 1 view .LVU812
 820:Middlewares/ST/STM32_USB_Host_Library/Core/Src/usbh_core.c **** #if (osCMSIS < 0x20000U)
 2226              		.loc 1 820 21 is_stmt 0 view .LVU813
 2227 0340 0123     		movs	r3, #1
 2228 0342 C4F8E033 		str	r3, [r4, #992]
 824:Middlewares/ST/STM32_USB_Host_Library/Core/Src/usbh_core.c **** #endif
 2229              		.loc 1 824 7 is_stmt 1 view .LVU814
 824:Middlewares/ST/STM32_USB_Host_Library/Core/Src/usbh_core.c **** #endif
 2230              		.loc 1 824 13 is_stmt 0 view .LVU815
 2231 0346 0023     		movs	r3, #0
 2232 0348 1A46     		mov	r2, r3
 2233 034a 04F57871 		add	r1, r4, #992
 2234 034e D4F8D803 		ldr	r0, [r4, #984]
 2235 0352 FFF7FEFF 		bl	osMessageQueuePut
 2236              	.LVL184:
 827:Middlewares/ST/STM32_USB_Host_Library/Core/Src/usbh_core.c **** 
 2237              		.loc 1 827 7 is_stmt 1 view .LVU816
 2238 0356 B1E6     		b	.L99
 2239              	.L143:
 808:Middlewares/ST/STM32_USB_Host_Library/Core/Src/usbh_core.c **** 
 2240              		.loc 1 808 9 view .LVU817
 808:Middlewares/ST/STM32_USB_Host_Library/Core/Src/usbh_core.c **** 
 2241              		.loc 1 808 39 is_stmt 0 view .LVU818
 2242 0358 0023     		movs	r3, #0
 2243 035a 84F82233 		strb	r3, [r4, #802]
 811:Middlewares/ST/STM32_USB_Host_Library/Core/Src/usbh_core.c ****       }
 2244              		.loc 1 811 9 is_stmt 1 view .LVU819
 811:Middlewares/ST/STM32_USB_Host_Library/Core/Src/usbh_core.c ****       }
 2245              		.loc 1 811 15 is_stmt 0 view .LVU820
 2246 035e 2046     		mov	r0, r4
 2247 0360 FFF7FEFF 		bl	USBH_Start
 2248              	.LVL185:
 2249 0364 ECE7     		b	.L136
 2250              		.cfi_endproc
 2251              	.LFE253:
 2253              		.section	.text.USBH_Process_OS,"ax",%progbits
 2254              		.align	1
 2255              		.syntax unified
 2256              		.thumb
ARM GAS  /tmp/ccKRVJ90.s 			page 75


 2257              		.thumb_func
 2258              		.fpu fpv4-sp-d16
 2260              	USBH_Process_OS:
 2261              	.LVL186:
 2262              	.LFB263:
1214:Middlewares/ST/STM32_USB_Host_Library/Core/Src/usbh_core.c **** 
1215:Middlewares/ST/STM32_USB_Host_Library/Core/Src/usbh_core.c **** 
1216:Middlewares/ST/STM32_USB_Host_Library/Core/Src/usbh_core.c **** /**
1217:Middlewares/ST/STM32_USB_Host_Library/Core/Src/usbh_core.c ****   * @brief  USBH_PortEnabled
1218:Middlewares/ST/STM32_USB_Host_Library/Core/Src/usbh_core.c ****   *         Port Enabled
1219:Middlewares/ST/STM32_USB_Host_Library/Core/Src/usbh_core.c ****   * @param  phost: Host Handle
1220:Middlewares/ST/STM32_USB_Host_Library/Core/Src/usbh_core.c ****   * @retval None
1221:Middlewares/ST/STM32_USB_Host_Library/Core/Src/usbh_core.c ****   */
1222:Middlewares/ST/STM32_USB_Host_Library/Core/Src/usbh_core.c **** void USBH_LL_PortEnabled(USBH_HandleTypeDef *phost)
1223:Middlewares/ST/STM32_USB_Host_Library/Core/Src/usbh_core.c **** {
1224:Middlewares/ST/STM32_USB_Host_Library/Core/Src/usbh_core.c ****   phost->device.PortEnabled = 1U;
1225:Middlewares/ST/STM32_USB_Host_Library/Core/Src/usbh_core.c **** 
1226:Middlewares/ST/STM32_USB_Host_Library/Core/Src/usbh_core.c **** #if (USBH_USE_OS == 1U)
1227:Middlewares/ST/STM32_USB_Host_Library/Core/Src/usbh_core.c ****   phost->os_msg = (uint32_t)USBH_PORT_EVENT;
1228:Middlewares/ST/STM32_USB_Host_Library/Core/Src/usbh_core.c **** #if (osCMSIS < 0x20000U)
1229:Middlewares/ST/STM32_USB_Host_Library/Core/Src/usbh_core.c ****   (void)osMessagePut(phost->os_event, phost->os_msg, 0U);
1230:Middlewares/ST/STM32_USB_Host_Library/Core/Src/usbh_core.c **** #else
1231:Middlewares/ST/STM32_USB_Host_Library/Core/Src/usbh_core.c ****   (void)osMessageQueuePut(phost->os_event, &phost->os_msg, 0U, 0U);
1232:Middlewares/ST/STM32_USB_Host_Library/Core/Src/usbh_core.c **** #endif
1233:Middlewares/ST/STM32_USB_Host_Library/Core/Src/usbh_core.c **** #endif
1234:Middlewares/ST/STM32_USB_Host_Library/Core/Src/usbh_core.c **** 
1235:Middlewares/ST/STM32_USB_Host_Library/Core/Src/usbh_core.c ****   return;
1236:Middlewares/ST/STM32_USB_Host_Library/Core/Src/usbh_core.c **** }
1237:Middlewares/ST/STM32_USB_Host_Library/Core/Src/usbh_core.c **** 
1238:Middlewares/ST/STM32_USB_Host_Library/Core/Src/usbh_core.c **** 
1239:Middlewares/ST/STM32_USB_Host_Library/Core/Src/usbh_core.c **** /**
1240:Middlewares/ST/STM32_USB_Host_Library/Core/Src/usbh_core.c ****   * @brief  USBH_LL_PortDisabled
1241:Middlewares/ST/STM32_USB_Host_Library/Core/Src/usbh_core.c ****   *         Port Disabled
1242:Middlewares/ST/STM32_USB_Host_Library/Core/Src/usbh_core.c ****   * @param  phost: Host Handle
1243:Middlewares/ST/STM32_USB_Host_Library/Core/Src/usbh_core.c ****   * @retval None
1244:Middlewares/ST/STM32_USB_Host_Library/Core/Src/usbh_core.c ****   */
1245:Middlewares/ST/STM32_USB_Host_Library/Core/Src/usbh_core.c **** void USBH_LL_PortDisabled(USBH_HandleTypeDef *phost)
1246:Middlewares/ST/STM32_USB_Host_Library/Core/Src/usbh_core.c **** {
1247:Middlewares/ST/STM32_USB_Host_Library/Core/Src/usbh_core.c ****   phost->device.PortEnabled = 0U;
1248:Middlewares/ST/STM32_USB_Host_Library/Core/Src/usbh_core.c **** 
1249:Middlewares/ST/STM32_USB_Host_Library/Core/Src/usbh_core.c ****   return;
1250:Middlewares/ST/STM32_USB_Host_Library/Core/Src/usbh_core.c **** }
1251:Middlewares/ST/STM32_USB_Host_Library/Core/Src/usbh_core.c **** 
1252:Middlewares/ST/STM32_USB_Host_Library/Core/Src/usbh_core.c **** 
1253:Middlewares/ST/STM32_USB_Host_Library/Core/Src/usbh_core.c **** /**
1254:Middlewares/ST/STM32_USB_Host_Library/Core/Src/usbh_core.c ****   * @brief  HCD_IsPortEnabled
1255:Middlewares/ST/STM32_USB_Host_Library/Core/Src/usbh_core.c ****   *         Is Port Enabled
1256:Middlewares/ST/STM32_USB_Host_Library/Core/Src/usbh_core.c ****   * @param  phost: Host Handle
1257:Middlewares/ST/STM32_USB_Host_Library/Core/Src/usbh_core.c ****   * @retval None
1258:Middlewares/ST/STM32_USB_Host_Library/Core/Src/usbh_core.c ****   */
1259:Middlewares/ST/STM32_USB_Host_Library/Core/Src/usbh_core.c **** uint8_t USBH_IsPortEnabled(USBH_HandleTypeDef *phost)
1260:Middlewares/ST/STM32_USB_Host_Library/Core/Src/usbh_core.c **** {
1261:Middlewares/ST/STM32_USB_Host_Library/Core/Src/usbh_core.c ****   return (phost->device.PortEnabled);
1262:Middlewares/ST/STM32_USB_Host_Library/Core/Src/usbh_core.c **** }
1263:Middlewares/ST/STM32_USB_Host_Library/Core/Src/usbh_core.c **** 
1264:Middlewares/ST/STM32_USB_Host_Library/Core/Src/usbh_core.c **** 
1265:Middlewares/ST/STM32_USB_Host_Library/Core/Src/usbh_core.c **** /**
ARM GAS  /tmp/ccKRVJ90.s 			page 76


1266:Middlewares/ST/STM32_USB_Host_Library/Core/Src/usbh_core.c ****   * @brief  USBH_LL_Connect
1267:Middlewares/ST/STM32_USB_Host_Library/Core/Src/usbh_core.c ****   *         Handle USB Host connexion event
1268:Middlewares/ST/STM32_USB_Host_Library/Core/Src/usbh_core.c ****   * @param  phost: Host Handle
1269:Middlewares/ST/STM32_USB_Host_Library/Core/Src/usbh_core.c ****   * @retval USBH_Status
1270:Middlewares/ST/STM32_USB_Host_Library/Core/Src/usbh_core.c ****   */
1271:Middlewares/ST/STM32_USB_Host_Library/Core/Src/usbh_core.c **** USBH_StatusTypeDef  USBH_LL_Connect(USBH_HandleTypeDef *phost)
1272:Middlewares/ST/STM32_USB_Host_Library/Core/Src/usbh_core.c **** {
1273:Middlewares/ST/STM32_USB_Host_Library/Core/Src/usbh_core.c ****   phost->device.is_connected = 1U;
1274:Middlewares/ST/STM32_USB_Host_Library/Core/Src/usbh_core.c ****   phost->device.is_disconnected = 0U;
1275:Middlewares/ST/STM32_USB_Host_Library/Core/Src/usbh_core.c ****   phost->device.is_ReEnumerated = 0U;
1276:Middlewares/ST/STM32_USB_Host_Library/Core/Src/usbh_core.c **** 
1277:Middlewares/ST/STM32_USB_Host_Library/Core/Src/usbh_core.c **** 
1278:Middlewares/ST/STM32_USB_Host_Library/Core/Src/usbh_core.c **** #if (USBH_USE_OS == 1U)
1279:Middlewares/ST/STM32_USB_Host_Library/Core/Src/usbh_core.c ****   phost->os_msg = (uint32_t)USBH_PORT_EVENT;
1280:Middlewares/ST/STM32_USB_Host_Library/Core/Src/usbh_core.c **** #if (osCMSIS < 0x20000U)
1281:Middlewares/ST/STM32_USB_Host_Library/Core/Src/usbh_core.c ****   (void)osMessagePut(phost->os_event, phost->os_msg, 0U);
1282:Middlewares/ST/STM32_USB_Host_Library/Core/Src/usbh_core.c **** #else
1283:Middlewares/ST/STM32_USB_Host_Library/Core/Src/usbh_core.c ****   (void)osMessageQueuePut(phost->os_event, &phost->os_msg, 0U, 0U);
1284:Middlewares/ST/STM32_USB_Host_Library/Core/Src/usbh_core.c **** #endif
1285:Middlewares/ST/STM32_USB_Host_Library/Core/Src/usbh_core.c **** #endif
1286:Middlewares/ST/STM32_USB_Host_Library/Core/Src/usbh_core.c **** 
1287:Middlewares/ST/STM32_USB_Host_Library/Core/Src/usbh_core.c ****   return USBH_OK;
1288:Middlewares/ST/STM32_USB_Host_Library/Core/Src/usbh_core.c **** }
1289:Middlewares/ST/STM32_USB_Host_Library/Core/Src/usbh_core.c **** 
1290:Middlewares/ST/STM32_USB_Host_Library/Core/Src/usbh_core.c **** 
1291:Middlewares/ST/STM32_USB_Host_Library/Core/Src/usbh_core.c **** /**
1292:Middlewares/ST/STM32_USB_Host_Library/Core/Src/usbh_core.c ****   * @brief  USBH_LL_Disconnect
1293:Middlewares/ST/STM32_USB_Host_Library/Core/Src/usbh_core.c ****   *         Handle USB Host disconnection event
1294:Middlewares/ST/STM32_USB_Host_Library/Core/Src/usbh_core.c ****   * @param  phost: Host Handle
1295:Middlewares/ST/STM32_USB_Host_Library/Core/Src/usbh_core.c ****   * @retval USBH_Status
1296:Middlewares/ST/STM32_USB_Host_Library/Core/Src/usbh_core.c ****   */
1297:Middlewares/ST/STM32_USB_Host_Library/Core/Src/usbh_core.c **** USBH_StatusTypeDef  USBH_LL_Disconnect(USBH_HandleTypeDef *phost)
1298:Middlewares/ST/STM32_USB_Host_Library/Core/Src/usbh_core.c **** {
1299:Middlewares/ST/STM32_USB_Host_Library/Core/Src/usbh_core.c ****   /* update device connection states */
1300:Middlewares/ST/STM32_USB_Host_Library/Core/Src/usbh_core.c ****   phost->device.is_disconnected = 1U;
1301:Middlewares/ST/STM32_USB_Host_Library/Core/Src/usbh_core.c ****   phost->device.is_connected = 0U;
1302:Middlewares/ST/STM32_USB_Host_Library/Core/Src/usbh_core.c ****   phost->device.PortEnabled = 0U;
1303:Middlewares/ST/STM32_USB_Host_Library/Core/Src/usbh_core.c **** 
1304:Middlewares/ST/STM32_USB_Host_Library/Core/Src/usbh_core.c ****   /* Stop Host */
1305:Middlewares/ST/STM32_USB_Host_Library/Core/Src/usbh_core.c ****   (void)USBH_LL_Stop(phost);
1306:Middlewares/ST/STM32_USB_Host_Library/Core/Src/usbh_core.c **** 
1307:Middlewares/ST/STM32_USB_Host_Library/Core/Src/usbh_core.c ****   /* FRee Control Pipes */
1308:Middlewares/ST/STM32_USB_Host_Library/Core/Src/usbh_core.c ****   (void)USBH_FreePipe(phost, phost->Control.pipe_in);
1309:Middlewares/ST/STM32_USB_Host_Library/Core/Src/usbh_core.c ****   (void)USBH_FreePipe(phost, phost->Control.pipe_out);
1310:Middlewares/ST/STM32_USB_Host_Library/Core/Src/usbh_core.c **** #if (USBH_USE_OS == 1U)
1311:Middlewares/ST/STM32_USB_Host_Library/Core/Src/usbh_core.c ****   phost->os_msg = (uint32_t)USBH_PORT_EVENT;
1312:Middlewares/ST/STM32_USB_Host_Library/Core/Src/usbh_core.c **** #if (osCMSIS < 0x20000U)
1313:Middlewares/ST/STM32_USB_Host_Library/Core/Src/usbh_core.c ****   (void)osMessagePut(phost->os_event, phost->os_msg, 0U);
1314:Middlewares/ST/STM32_USB_Host_Library/Core/Src/usbh_core.c **** #else
1315:Middlewares/ST/STM32_USB_Host_Library/Core/Src/usbh_core.c ****   (void)osMessageQueuePut(phost->os_event, &phost->os_msg, 0U, 0U);
1316:Middlewares/ST/STM32_USB_Host_Library/Core/Src/usbh_core.c **** #endif
1317:Middlewares/ST/STM32_USB_Host_Library/Core/Src/usbh_core.c **** #endif
1318:Middlewares/ST/STM32_USB_Host_Library/Core/Src/usbh_core.c **** 
1319:Middlewares/ST/STM32_USB_Host_Library/Core/Src/usbh_core.c ****   return USBH_OK;
1320:Middlewares/ST/STM32_USB_Host_Library/Core/Src/usbh_core.c **** }
1321:Middlewares/ST/STM32_USB_Host_Library/Core/Src/usbh_core.c **** 
1322:Middlewares/ST/STM32_USB_Host_Library/Core/Src/usbh_core.c **** 
ARM GAS  /tmp/ccKRVJ90.s 			page 77


1323:Middlewares/ST/STM32_USB_Host_Library/Core/Src/usbh_core.c **** #if (USBH_USE_OS == 1U)
1324:Middlewares/ST/STM32_USB_Host_Library/Core/Src/usbh_core.c **** /**
1325:Middlewares/ST/STM32_USB_Host_Library/Core/Src/usbh_core.c ****   * @brief  USB Host Thread task
1326:Middlewares/ST/STM32_USB_Host_Library/Core/Src/usbh_core.c ****   * @param  pvParameters not used
1327:Middlewares/ST/STM32_USB_Host_Library/Core/Src/usbh_core.c ****   * @retval None
1328:Middlewares/ST/STM32_USB_Host_Library/Core/Src/usbh_core.c ****   */
1329:Middlewares/ST/STM32_USB_Host_Library/Core/Src/usbh_core.c **** 
1330:Middlewares/ST/STM32_USB_Host_Library/Core/Src/usbh_core.c **** #if (osCMSIS < 0x20000U)
1331:Middlewares/ST/STM32_USB_Host_Library/Core/Src/usbh_core.c **** static void USBH_Process_OS(void const *argument)
1332:Middlewares/ST/STM32_USB_Host_Library/Core/Src/usbh_core.c **** {
1333:Middlewares/ST/STM32_USB_Host_Library/Core/Src/usbh_core.c ****   osEvent event;
1334:Middlewares/ST/STM32_USB_Host_Library/Core/Src/usbh_core.c **** 
1335:Middlewares/ST/STM32_USB_Host_Library/Core/Src/usbh_core.c ****   for (;;)
1336:Middlewares/ST/STM32_USB_Host_Library/Core/Src/usbh_core.c ****   {
1337:Middlewares/ST/STM32_USB_Host_Library/Core/Src/usbh_core.c ****     event = osMessageGet(((USBH_HandleTypeDef *)argument)->os_event, osWaitForever);
1338:Middlewares/ST/STM32_USB_Host_Library/Core/Src/usbh_core.c ****     if (event.status == osEventMessage)
1339:Middlewares/ST/STM32_USB_Host_Library/Core/Src/usbh_core.c ****     {
1340:Middlewares/ST/STM32_USB_Host_Library/Core/Src/usbh_core.c ****       USBH_Process((USBH_HandleTypeDef *)argument);
1341:Middlewares/ST/STM32_USB_Host_Library/Core/Src/usbh_core.c ****     }
1342:Middlewares/ST/STM32_USB_Host_Library/Core/Src/usbh_core.c ****   }
1343:Middlewares/ST/STM32_USB_Host_Library/Core/Src/usbh_core.c **** }
1344:Middlewares/ST/STM32_USB_Host_Library/Core/Src/usbh_core.c **** #else
1345:Middlewares/ST/STM32_USB_Host_Library/Core/Src/usbh_core.c **** static void USBH_Process_OS(void *argument)
1346:Middlewares/ST/STM32_USB_Host_Library/Core/Src/usbh_core.c **** {
 2263              		.loc 1 1346 1 is_stmt 1 view -0
 2264              		.cfi_startproc
 2265              		@ args = 0, pretend = 0, frame = 0
 2266              		@ frame_needed = 0, uses_anonymous_args = 0
 2267              		.loc 1 1346 1 is_stmt 0 view .LVU822
 2268 0000 10B5     		push	{r4, lr}
 2269              	.LCFI20:
 2270              		.cfi_def_cfa_offset 8
 2271              		.cfi_offset 4, -8
 2272              		.cfi_offset 14, -4
 2273 0002 0446     		mov	r4, r0
 2274 0004 02E0     		b	.L145
 2275              	.LVL187:
 2276              	.L148:
1347:Middlewares/ST/STM32_USB_Host_Library/Core/Src/usbh_core.c ****   osStatus_t status;
1348:Middlewares/ST/STM32_USB_Host_Library/Core/Src/usbh_core.c **** 
1349:Middlewares/ST/STM32_USB_Host_Library/Core/Src/usbh_core.c ****   for (;;)
1350:Middlewares/ST/STM32_USB_Host_Library/Core/Src/usbh_core.c ****   {
1351:Middlewares/ST/STM32_USB_Host_Library/Core/Src/usbh_core.c ****     status = osMessageQueueGet(((USBH_HandleTypeDef *)argument)->os_event,
1352:Middlewares/ST/STM32_USB_Host_Library/Core/Src/usbh_core.c ****                                &((USBH_HandleTypeDef *)argument)->os_msg, NULL, osWaitForever);
1353:Middlewares/ST/STM32_USB_Host_Library/Core/Src/usbh_core.c ****     if (status == osOK)
1354:Middlewares/ST/STM32_USB_Host_Library/Core/Src/usbh_core.c ****     {
1355:Middlewares/ST/STM32_USB_Host_Library/Core/Src/usbh_core.c ****       USBH_Process((USBH_HandleTypeDef *)argument);
 2277              		.loc 1 1355 7 is_stmt 1 view .LVU823
 2278 0006 2046     		mov	r0, r4
 2279              	.LVL188:
 2280              		.loc 1 1355 7 is_stmt 0 view .LVU824
 2281 0008 FFF7FEFF 		bl	USBH_Process
 2282              	.LVL189:
 2283              	.L145:
1347:Middlewares/ST/STM32_USB_Host_Library/Core/Src/usbh_core.c ****   osStatus_t status;
 2284              		.loc 1 1347 3 is_stmt 1 view .LVU825
1349:Middlewares/ST/STM32_USB_Host_Library/Core/Src/usbh_core.c ****   {
ARM GAS  /tmp/ccKRVJ90.s 			page 78


 2285              		.loc 1 1349 3 view .LVU826
1351:Middlewares/ST/STM32_USB_Host_Library/Core/Src/usbh_core.c ****                                &((USBH_HandleTypeDef *)argument)->os_msg, NULL, osWaitForever);
 2286              		.loc 1 1351 5 view .LVU827
1351:Middlewares/ST/STM32_USB_Host_Library/Core/Src/usbh_core.c ****                                &((USBH_HandleTypeDef *)argument)->os_msg, NULL, osWaitForever);
 2287              		.loc 1 1351 14 is_stmt 0 view .LVU828
 2288 000c 4FF0FF33 		mov	r3, #-1
 2289 0010 0022     		movs	r2, #0
 2290 0012 04F57871 		add	r1, r4, #992
 2291 0016 D4F8D803 		ldr	r0, [r4, #984]
 2292 001a FFF7FEFF 		bl	osMessageQueueGet
 2293              	.LVL190:
1353:Middlewares/ST/STM32_USB_Host_Library/Core/Src/usbh_core.c ****     {
 2294              		.loc 1 1353 5 is_stmt 1 view .LVU829
1353:Middlewares/ST/STM32_USB_Host_Library/Core/Src/usbh_core.c ****     {
 2295              		.loc 1 1353 8 is_stmt 0 view .LVU830
 2296 001e 0028     		cmp	r0, #0
 2297 0020 F4D1     		bne	.L145
 2298 0022 F0E7     		b	.L148
 2299              		.cfi_endproc
 2300              	.LFE263:
 2302              		.section	.text.USBH_LL_SetTimer,"ax",%progbits
 2303              		.align	1
 2304              		.global	USBH_LL_SetTimer
 2305              		.syntax unified
 2306              		.thumb
 2307              		.thumb_func
 2308              		.fpu fpv4-sp-d16
 2310              	USBH_LL_SetTimer:
 2311              	.LVL191:
 2312              	.LFB255:
1183:Middlewares/ST/STM32_USB_Host_Library/Core/Src/usbh_core.c ****   phost->Timer = time;
 2313              		.loc 1 1183 1 is_stmt 1 view -0
 2314              		.cfi_startproc
 2315              		@ args = 0, pretend = 0, frame = 0
 2316              		@ frame_needed = 0, uses_anonymous_args = 0
 2317              		@ link register save eliminated.
1184:Middlewares/ST/STM32_USB_Host_Library/Core/Src/usbh_core.c **** }
 2318              		.loc 1 1184 3 view .LVU832
1184:Middlewares/ST/STM32_USB_Host_Library/Core/Src/usbh_core.c **** }
 2319              		.loc 1 1184 16 is_stmt 0 view .LVU833
 2320 0000 C0F8C413 		str	r1, [r0, #964]
1185:Middlewares/ST/STM32_USB_Host_Library/Core/Src/usbh_core.c **** 
 2321              		.loc 1 1185 1 view .LVU834
 2322 0004 7047     		bx	lr
 2323              		.cfi_endproc
 2324              	.LFE255:
 2326              		.section	.text.USBH_LL_IncTimer,"ax",%progbits
 2327              		.align	1
 2328              		.global	USBH_LL_IncTimer
 2329              		.syntax unified
 2330              		.thumb
 2331              		.thumb_func
 2332              		.fpu fpv4-sp-d16
 2334              	USBH_LL_IncTimer:
 2335              	.LVL192:
 2336              	.LFB256:
1195:Middlewares/ST/STM32_USB_Host_Library/Core/Src/usbh_core.c ****   phost->Timer++;
ARM GAS  /tmp/ccKRVJ90.s 			page 79


 2337              		.loc 1 1195 1 is_stmt 1 view -0
 2338              		.cfi_startproc
 2339              		@ args = 0, pretend = 0, frame = 0
 2340              		@ frame_needed = 0, uses_anonymous_args = 0
1195:Middlewares/ST/STM32_USB_Host_Library/Core/Src/usbh_core.c ****   phost->Timer++;
 2341              		.loc 1 1195 1 is_stmt 0 view .LVU836
 2342 0000 08B5     		push	{r3, lr}
 2343              	.LCFI21:
 2344              		.cfi_def_cfa_offset 8
 2345              		.cfi_offset 3, -8
 2346              		.cfi_offset 14, -4
1196:Middlewares/ST/STM32_USB_Host_Library/Core/Src/usbh_core.c ****   USBH_HandleSof(phost);
 2347              		.loc 1 1196 3 is_stmt 1 view .LVU837
1196:Middlewares/ST/STM32_USB_Host_Library/Core/Src/usbh_core.c ****   USBH_HandleSof(phost);
 2348              		.loc 1 1196 8 is_stmt 0 view .LVU838
 2349 0002 D0F8C423 		ldr	r2, [r0, #964]
1196:Middlewares/ST/STM32_USB_Host_Library/Core/Src/usbh_core.c ****   USBH_HandleSof(phost);
 2350              		.loc 1 1196 15 view .LVU839
 2351 0006 0132     		adds	r2, r2, #1
 2352 0008 C0F8C423 		str	r2, [r0, #964]
1197:Middlewares/ST/STM32_USB_Host_Library/Core/Src/usbh_core.c **** }
 2353              		.loc 1 1197 3 is_stmt 1 view .LVU840
 2354 000c FFF7FEFF 		bl	USBH_HandleSof
 2355              	.LVL193:
1198:Middlewares/ST/STM32_USB_Host_Library/Core/Src/usbh_core.c **** 
 2356              		.loc 1 1198 1 is_stmt 0 view .LVU841
 2357 0010 08BD     		pop	{r3, pc}
 2358              		.cfi_endproc
 2359              	.LFE256:
 2361              		.section	.text.USBH_LL_PortEnabled,"ax",%progbits
 2362              		.align	1
 2363              		.global	USBH_LL_PortEnabled
 2364              		.syntax unified
 2365              		.thumb
 2366              		.thumb_func
 2367              		.fpu fpv4-sp-d16
 2369              	USBH_LL_PortEnabled:
 2370              	.LVL194:
 2371              	.LFB258:
1223:Middlewares/ST/STM32_USB_Host_Library/Core/Src/usbh_core.c ****   phost->device.PortEnabled = 1U;
 2372              		.loc 1 1223 1 is_stmt 1 view -0
 2373              		.cfi_startproc
 2374              		@ args = 0, pretend = 0, frame = 0
 2375              		@ frame_needed = 0, uses_anonymous_args = 0
1223:Middlewares/ST/STM32_USB_Host_Library/Core/Src/usbh_core.c ****   phost->device.PortEnabled = 1U;
 2376              		.loc 1 1223 1 is_stmt 0 view .LVU843
 2377 0000 08B5     		push	{r3, lr}
 2378              	.LCFI22:
 2379              		.cfi_def_cfa_offset 8
 2380              		.cfi_offset 3, -8
 2381              		.cfi_offset 14, -4
1224:Middlewares/ST/STM32_USB_Host_Library/Core/Src/usbh_core.c **** 
 2382              		.loc 1 1224 3 is_stmt 1 view .LVU844
1224:Middlewares/ST/STM32_USB_Host_Library/Core/Src/usbh_core.c **** 
 2383              		.loc 1 1224 29 is_stmt 0 view .LVU845
 2384 0002 0123     		movs	r3, #1
 2385 0004 80F82333 		strb	r3, [r0, #803]
ARM GAS  /tmp/ccKRVJ90.s 			page 80


1227:Middlewares/ST/STM32_USB_Host_Library/Core/Src/usbh_core.c **** #if (osCMSIS < 0x20000U)
 2386              		.loc 1 1227 3 is_stmt 1 view .LVU846
1227:Middlewares/ST/STM32_USB_Host_Library/Core/Src/usbh_core.c **** #if (osCMSIS < 0x20000U)
 2387              		.loc 1 1227 17 is_stmt 0 view .LVU847
 2388 0008 C0F8E033 		str	r3, [r0, #992]
1231:Middlewares/ST/STM32_USB_Host_Library/Core/Src/usbh_core.c **** #endif
 2389              		.loc 1 1231 3 is_stmt 1 view .LVU848
1231:Middlewares/ST/STM32_USB_Host_Library/Core/Src/usbh_core.c **** #endif
 2390              		.loc 1 1231 9 is_stmt 0 view .LVU849
 2391 000c 0023     		movs	r3, #0
 2392 000e 1A46     		mov	r2, r3
 2393 0010 00F57871 		add	r1, r0, #992
 2394 0014 D0F8D803 		ldr	r0, [r0, #984]
 2395              	.LVL195:
1231:Middlewares/ST/STM32_USB_Host_Library/Core/Src/usbh_core.c **** #endif
 2396              		.loc 1 1231 9 view .LVU850
 2397 0018 FFF7FEFF 		bl	osMessageQueuePut
 2398              	.LVL196:
1235:Middlewares/ST/STM32_USB_Host_Library/Core/Src/usbh_core.c **** }
 2399              		.loc 1 1235 3 is_stmt 1 view .LVU851
1236:Middlewares/ST/STM32_USB_Host_Library/Core/Src/usbh_core.c **** 
 2400              		.loc 1 1236 1 is_stmt 0 view .LVU852
 2401 001c 08BD     		pop	{r3, pc}
 2402              		.cfi_endproc
 2403              	.LFE258:
 2405              		.section	.text.USBH_LL_PortDisabled,"ax",%progbits
 2406              		.align	1
 2407              		.global	USBH_LL_PortDisabled
 2408              		.syntax unified
 2409              		.thumb
 2410              		.thumb_func
 2411              		.fpu fpv4-sp-d16
 2413              	USBH_LL_PortDisabled:
 2414              	.LVL197:
 2415              	.LFB259:
1246:Middlewares/ST/STM32_USB_Host_Library/Core/Src/usbh_core.c ****   phost->device.PortEnabled = 0U;
 2416              		.loc 1 1246 1 is_stmt 1 view -0
 2417              		.cfi_startproc
 2418              		@ args = 0, pretend = 0, frame = 0
 2419              		@ frame_needed = 0, uses_anonymous_args = 0
 2420              		@ link register save eliminated.
1247:Middlewares/ST/STM32_USB_Host_Library/Core/Src/usbh_core.c **** 
 2421              		.loc 1 1247 3 view .LVU854
1247:Middlewares/ST/STM32_USB_Host_Library/Core/Src/usbh_core.c **** 
 2422              		.loc 1 1247 29 is_stmt 0 view .LVU855
 2423 0000 0023     		movs	r3, #0
 2424 0002 80F82333 		strb	r3, [r0, #803]
1249:Middlewares/ST/STM32_USB_Host_Library/Core/Src/usbh_core.c **** }
 2425              		.loc 1 1249 3 is_stmt 1 view .LVU856
1250:Middlewares/ST/STM32_USB_Host_Library/Core/Src/usbh_core.c **** 
 2426              		.loc 1 1250 1 is_stmt 0 view .LVU857
 2427 0006 7047     		bx	lr
 2428              		.cfi_endproc
 2429              	.LFE259:
 2431              		.section	.text.USBH_IsPortEnabled,"ax",%progbits
 2432              		.align	1
 2433              		.global	USBH_IsPortEnabled
ARM GAS  /tmp/ccKRVJ90.s 			page 81


 2434              		.syntax unified
 2435              		.thumb
 2436              		.thumb_func
 2437              		.fpu fpv4-sp-d16
 2439              	USBH_IsPortEnabled:
 2440              	.LVL198:
 2441              	.LFB260:
1260:Middlewares/ST/STM32_USB_Host_Library/Core/Src/usbh_core.c ****   return (phost->device.PortEnabled);
 2442              		.loc 1 1260 1 is_stmt 1 view -0
 2443              		.cfi_startproc
 2444              		@ args = 0, pretend = 0, frame = 0
 2445              		@ frame_needed = 0, uses_anonymous_args = 0
 2446              		@ link register save eliminated.
1261:Middlewares/ST/STM32_USB_Host_Library/Core/Src/usbh_core.c **** }
 2447              		.loc 1 1261 3 view .LVU859
1262:Middlewares/ST/STM32_USB_Host_Library/Core/Src/usbh_core.c **** 
 2448              		.loc 1 1262 1 is_stmt 0 view .LVU860
 2449 0000 90F82303 		ldrb	r0, [r0, #803]	@ zero_extendqisi2
 2450              	.LVL199:
1262:Middlewares/ST/STM32_USB_Host_Library/Core/Src/usbh_core.c **** 
 2451              		.loc 1 1262 1 view .LVU861
 2452 0004 7047     		bx	lr
 2453              		.cfi_endproc
 2454              	.LFE260:
 2456              		.section	.text.USBH_ReEnumerate,"ax",%progbits
 2457              		.align	1
 2458              		.global	USBH_ReEnumerate
 2459              		.syntax unified
 2460              		.thumb
 2461              		.thumb_func
 2462              		.fpu fpv4-sp-d16
 2464              	USBH_ReEnumerate:
 2465              	.LVL200:
 2466              	.LFB252:
 443:Middlewares/ST/STM32_USB_Host_Library/Core/Src/usbh_core.c ****   if (USBH_IsPortEnabled(phost) != 0U)
 2467              		.loc 1 443 1 is_stmt 1 view -0
 2468              		.cfi_startproc
 2469              		@ args = 0, pretend = 0, frame = 0
 2470              		@ frame_needed = 0, uses_anonymous_args = 0
 443:Middlewares/ST/STM32_USB_Host_Library/Core/Src/usbh_core.c ****   if (USBH_IsPortEnabled(phost) != 0U)
 2471              		.loc 1 443 1 is_stmt 0 view .LVU863
 2472 0000 38B5     		push	{r3, r4, r5, lr}
 2473              	.LCFI23:
 2474              		.cfi_def_cfa_offset 16
 2475              		.cfi_offset 3, -16
 2476              		.cfi_offset 4, -12
 2477              		.cfi_offset 5, -8
 2478              		.cfi_offset 14, -4
 2479 0002 0446     		mov	r4, r0
 444:Middlewares/ST/STM32_USB_Host_Library/Core/Src/usbh_core.c ****   {
 2480              		.loc 1 444 3 is_stmt 1 view .LVU864
 444:Middlewares/ST/STM32_USB_Host_Library/Core/Src/usbh_core.c ****   {
 2481              		.loc 1 444 7 is_stmt 0 view .LVU865
 2482 0004 FFF7FEFF 		bl	USBH_IsPortEnabled
 2483              	.LVL201:
 444:Middlewares/ST/STM32_USB_Host_Library/Core/Src/usbh_core.c ****   {
 2484              		.loc 1 444 6 view .LVU866
ARM GAS  /tmp/ccKRVJ90.s 			page 82


 2485 0008 60B9     		cbnz	r0, .L159
 2486              	.L157:
 455:Middlewares/ST/STM32_USB_Host_Library/Core/Src/usbh_core.c **** #if (osCMSIS < 0x20000U)
 2487              		.loc 1 455 3 is_stmt 1 view .LVU867
 455:Middlewares/ST/STM32_USB_Host_Library/Core/Src/usbh_core.c **** #if (osCMSIS < 0x20000U)
 2488              		.loc 1 455 17 is_stmt 0 view .LVU868
 2489 000a 0123     		movs	r3, #1
 2490 000c C4F8E033 		str	r3, [r4, #992]
 459:Middlewares/ST/STM32_USB_Host_Library/Core/Src/usbh_core.c **** #endif
 2491              		.loc 1 459 3 is_stmt 1 view .LVU869
 459:Middlewares/ST/STM32_USB_Host_Library/Core/Src/usbh_core.c **** #endif
 2492              		.loc 1 459 9 is_stmt 0 view .LVU870
 2493 0010 0023     		movs	r3, #0
 2494 0012 1A46     		mov	r2, r3
 2495 0014 04F57871 		add	r1, r4, #992
 2496 0018 D4F8D803 		ldr	r0, [r4, #984]
 2497 001c FFF7FEFF 		bl	osMessageQueuePut
 2498              	.LVL202:
 463:Middlewares/ST/STM32_USB_Host_Library/Core/Src/usbh_core.c **** }
 2499              		.loc 1 463 3 is_stmt 1 view .LVU871
 464:Middlewares/ST/STM32_USB_Host_Library/Core/Src/usbh_core.c **** 
 2500              		.loc 1 464 1 is_stmt 0 view .LVU872
 2501 0020 0020     		movs	r0, #0
 2502 0022 38BD     		pop	{r3, r4, r5, pc}
 2503              	.LVL203:
 2504              	.L159:
 446:Middlewares/ST/STM32_USB_Host_Library/Core/Src/usbh_core.c **** 
 2505              		.loc 1 446 5 is_stmt 1 view .LVU873
 446:Middlewares/ST/STM32_USB_Host_Library/Core/Src/usbh_core.c **** 
 2506              		.loc 1 446 35 is_stmt 0 view .LVU874
 2507 0024 0125     		movs	r5, #1
 2508 0026 84F82253 		strb	r5, [r4, #802]
 449:Middlewares/ST/STM32_USB_Host_Library/Core/Src/usbh_core.c **** 
 2509              		.loc 1 449 5 is_stmt 1 view .LVU875
 449:Middlewares/ST/STM32_USB_Host_Library/Core/Src/usbh_core.c **** 
 2510              		.loc 1 449 11 is_stmt 0 view .LVU876
 2511 002a 2046     		mov	r0, r4
 2512 002c FFF7FEFF 		bl	USBH_Stop
 2513              	.LVL204:
 451:Middlewares/ST/STM32_USB_Host_Library/Core/Src/usbh_core.c ****   }
 2514              		.loc 1 451 5 is_stmt 1 view .LVU877
 451:Middlewares/ST/STM32_USB_Host_Library/Core/Src/usbh_core.c ****   }
 2515              		.loc 1 451 35 is_stmt 0 view .LVU878
 2516 0030 84F82153 		strb	r5, [r4, #801]
 2517 0034 E9E7     		b	.L157
 2518              		.cfi_endproc
 2519              	.LFE252:
 2521              		.section	.text.USBH_LL_Connect,"ax",%progbits
 2522              		.align	1
 2523              		.global	USBH_LL_Connect
 2524              		.syntax unified
 2525              		.thumb
 2526              		.thumb_func
 2527              		.fpu fpv4-sp-d16
 2529              	USBH_LL_Connect:
 2530              	.LVL205:
 2531              	.LFB261:
ARM GAS  /tmp/ccKRVJ90.s 			page 83


1272:Middlewares/ST/STM32_USB_Host_Library/Core/Src/usbh_core.c ****   phost->device.is_connected = 1U;
 2532              		.loc 1 1272 1 is_stmt 1 view -0
 2533              		.cfi_startproc
 2534              		@ args = 0, pretend = 0, frame = 0
 2535              		@ frame_needed = 0, uses_anonymous_args = 0
1272:Middlewares/ST/STM32_USB_Host_Library/Core/Src/usbh_core.c ****   phost->device.is_connected = 1U;
 2536              		.loc 1 1272 1 is_stmt 0 view .LVU880
 2537 0000 10B5     		push	{r4, lr}
 2538              	.LCFI24:
 2539              		.cfi_def_cfa_offset 8
 2540              		.cfi_offset 4, -8
 2541              		.cfi_offset 14, -4
1273:Middlewares/ST/STM32_USB_Host_Library/Core/Src/usbh_core.c ****   phost->device.is_disconnected = 0U;
 2542              		.loc 1 1273 3 is_stmt 1 view .LVU881
1273:Middlewares/ST/STM32_USB_Host_Library/Core/Src/usbh_core.c ****   phost->device.is_disconnected = 0U;
 2543              		.loc 1 1273 30 is_stmt 0 view .LVU882
 2544 0002 0123     		movs	r3, #1
 2545 0004 80F82033 		strb	r3, [r0, #800]
1274:Middlewares/ST/STM32_USB_Host_Library/Core/Src/usbh_core.c ****   phost->device.is_ReEnumerated = 0U;
 2546              		.loc 1 1274 3 is_stmt 1 view .LVU883
1274:Middlewares/ST/STM32_USB_Host_Library/Core/Src/usbh_core.c ****   phost->device.is_ReEnumerated = 0U;
 2547              		.loc 1 1274 33 is_stmt 0 view .LVU884
 2548 0008 0024     		movs	r4, #0
 2549 000a 80F82143 		strb	r4, [r0, #801]
1275:Middlewares/ST/STM32_USB_Host_Library/Core/Src/usbh_core.c **** 
 2550              		.loc 1 1275 3 is_stmt 1 view .LVU885
1275:Middlewares/ST/STM32_USB_Host_Library/Core/Src/usbh_core.c **** 
 2551              		.loc 1 1275 33 is_stmt 0 view .LVU886
 2552 000e 80F82243 		strb	r4, [r0, #802]
1279:Middlewares/ST/STM32_USB_Host_Library/Core/Src/usbh_core.c **** #if (osCMSIS < 0x20000U)
 2553              		.loc 1 1279 3 is_stmt 1 view .LVU887
1279:Middlewares/ST/STM32_USB_Host_Library/Core/Src/usbh_core.c **** #if (osCMSIS < 0x20000U)
 2554              		.loc 1 1279 17 is_stmt 0 view .LVU888
 2555 0012 C0F8E033 		str	r3, [r0, #992]
1283:Middlewares/ST/STM32_USB_Host_Library/Core/Src/usbh_core.c **** #endif
 2556              		.loc 1 1283 3 is_stmt 1 view .LVU889
1283:Middlewares/ST/STM32_USB_Host_Library/Core/Src/usbh_core.c **** #endif
 2557              		.loc 1 1283 9 is_stmt 0 view .LVU890
 2558 0016 2346     		mov	r3, r4
 2559 0018 2246     		mov	r2, r4
 2560 001a 00F57871 		add	r1, r0, #992
 2561 001e D0F8D803 		ldr	r0, [r0, #984]
 2562              	.LVL206:
1283:Middlewares/ST/STM32_USB_Host_Library/Core/Src/usbh_core.c **** #endif
 2563              		.loc 1 1283 9 view .LVU891
 2564 0022 FFF7FEFF 		bl	osMessageQueuePut
 2565              	.LVL207:
1287:Middlewares/ST/STM32_USB_Host_Library/Core/Src/usbh_core.c **** }
 2566              		.loc 1 1287 3 is_stmt 1 view .LVU892
1288:Middlewares/ST/STM32_USB_Host_Library/Core/Src/usbh_core.c **** 
 2567              		.loc 1 1288 1 is_stmt 0 view .LVU893
 2568 0026 2046     		mov	r0, r4
 2569 0028 10BD     		pop	{r4, pc}
 2570              		.cfi_endproc
 2571              	.LFE261:
 2573              		.section	.text.USBH_LL_Disconnect,"ax",%progbits
 2574              		.align	1
ARM GAS  /tmp/ccKRVJ90.s 			page 84


 2575              		.global	USBH_LL_Disconnect
 2576              		.syntax unified
 2577              		.thumb
 2578              		.thumb_func
 2579              		.fpu fpv4-sp-d16
 2581              	USBH_LL_Disconnect:
 2582              	.LVL208:
 2583              	.LFB262:
1298:Middlewares/ST/STM32_USB_Host_Library/Core/Src/usbh_core.c ****   /* update device connection states */
 2584              		.loc 1 1298 1 is_stmt 1 view -0
 2585              		.cfi_startproc
 2586              		@ args = 0, pretend = 0, frame = 0
 2587              		@ frame_needed = 0, uses_anonymous_args = 0
1298:Middlewares/ST/STM32_USB_Host_Library/Core/Src/usbh_core.c ****   /* update device connection states */
 2588              		.loc 1 1298 1 is_stmt 0 view .LVU895
 2589 0000 70B5     		push	{r4, r5, r6, lr}
 2590              	.LCFI25:
 2591              		.cfi_def_cfa_offset 16
 2592              		.cfi_offset 4, -16
 2593              		.cfi_offset 5, -12
 2594              		.cfi_offset 6, -8
 2595              		.cfi_offset 14, -4
 2596 0002 0446     		mov	r4, r0
1300:Middlewares/ST/STM32_USB_Host_Library/Core/Src/usbh_core.c ****   phost->device.is_connected = 0U;
 2597              		.loc 1 1300 3 is_stmt 1 view .LVU896
1300:Middlewares/ST/STM32_USB_Host_Library/Core/Src/usbh_core.c ****   phost->device.is_connected = 0U;
 2598              		.loc 1 1300 33 is_stmt 0 view .LVU897
 2599 0004 0126     		movs	r6, #1
 2600 0006 80F82163 		strb	r6, [r0, #801]
1301:Middlewares/ST/STM32_USB_Host_Library/Core/Src/usbh_core.c ****   phost->device.PortEnabled = 0U;
 2601              		.loc 1 1301 3 is_stmt 1 view .LVU898
1301:Middlewares/ST/STM32_USB_Host_Library/Core/Src/usbh_core.c ****   phost->device.PortEnabled = 0U;
 2602              		.loc 1 1301 30 is_stmt 0 view .LVU899
 2603 000a 0025     		movs	r5, #0
 2604 000c 80F82053 		strb	r5, [r0, #800]
1302:Middlewares/ST/STM32_USB_Host_Library/Core/Src/usbh_core.c **** 
 2605              		.loc 1 1302 3 is_stmt 1 view .LVU900
1302:Middlewares/ST/STM32_USB_Host_Library/Core/Src/usbh_core.c **** 
 2606              		.loc 1 1302 29 is_stmt 0 view .LVU901
 2607 0010 80F82353 		strb	r5, [r0, #803]
1305:Middlewares/ST/STM32_USB_Host_Library/Core/Src/usbh_core.c **** 
 2608              		.loc 1 1305 3 is_stmt 1 view .LVU902
1305:Middlewares/ST/STM32_USB_Host_Library/Core/Src/usbh_core.c **** 
 2609              		.loc 1 1305 9 is_stmt 0 view .LVU903
 2610 0014 FFF7FEFF 		bl	USBH_LL_Stop
 2611              	.LVL209:
1308:Middlewares/ST/STM32_USB_Host_Library/Core/Src/usbh_core.c ****   (void)USBH_FreePipe(phost, phost->Control.pipe_out);
 2612              		.loc 1 1308 3 is_stmt 1 view .LVU904
1308:Middlewares/ST/STM32_USB_Host_Library/Core/Src/usbh_core.c ****   (void)USBH_FreePipe(phost, phost->Control.pipe_out);
 2613              		.loc 1 1308 9 is_stmt 0 view .LVU905
 2614 0018 2179     		ldrb	r1, [r4, #4]	@ zero_extendqisi2
 2615 001a 2046     		mov	r0, r4
 2616 001c FFF7FEFF 		bl	USBH_FreePipe
 2617              	.LVL210:
1309:Middlewares/ST/STM32_USB_Host_Library/Core/Src/usbh_core.c **** #if (USBH_USE_OS == 1U)
 2618              		.loc 1 1309 3 is_stmt 1 view .LVU906
1309:Middlewares/ST/STM32_USB_Host_Library/Core/Src/usbh_core.c **** #if (USBH_USE_OS == 1U)
ARM GAS  /tmp/ccKRVJ90.s 			page 85


 2619              		.loc 1 1309 9 is_stmt 0 view .LVU907
 2620 0020 6179     		ldrb	r1, [r4, #5]	@ zero_extendqisi2
 2621 0022 2046     		mov	r0, r4
 2622 0024 FFF7FEFF 		bl	USBH_FreePipe
 2623              	.LVL211:
1311:Middlewares/ST/STM32_USB_Host_Library/Core/Src/usbh_core.c **** #if (osCMSIS < 0x20000U)
 2624              		.loc 1 1311 3 is_stmt 1 view .LVU908
1311:Middlewares/ST/STM32_USB_Host_Library/Core/Src/usbh_core.c **** #if (osCMSIS < 0x20000U)
 2625              		.loc 1 1311 17 is_stmt 0 view .LVU909
 2626 0028 C4F8E063 		str	r6, [r4, #992]
1315:Middlewares/ST/STM32_USB_Host_Library/Core/Src/usbh_core.c **** #endif
 2627              		.loc 1 1315 3 is_stmt 1 view .LVU910
1315:Middlewares/ST/STM32_USB_Host_Library/Core/Src/usbh_core.c **** #endif
 2628              		.loc 1 1315 9 is_stmt 0 view .LVU911
 2629 002c 2B46     		mov	r3, r5
 2630 002e 2A46     		mov	r2, r5
 2631 0030 04F57871 		add	r1, r4, #992
 2632 0034 D4F8D803 		ldr	r0, [r4, #984]
 2633 0038 FFF7FEFF 		bl	osMessageQueuePut
 2634              	.LVL212:
1319:Middlewares/ST/STM32_USB_Host_Library/Core/Src/usbh_core.c **** }
 2635              		.loc 1 1319 3 is_stmt 1 view .LVU912
1320:Middlewares/ST/STM32_USB_Host_Library/Core/Src/usbh_core.c **** 
 2636              		.loc 1 1320 1 is_stmt 0 view .LVU913
 2637 003c 2846     		mov	r0, r5
 2638 003e 70BD     		pop	{r4, r5, r6, pc}
1320:Middlewares/ST/STM32_USB_Host_Library/Core/Src/usbh_core.c **** 
 2639              		.loc 1 1320 1 view .LVU914
 2640              		.cfi_endproc
 2641              	.LFE262:
 2643              		.section	.text.USBH_LL_NotifyURBChange,"ax",%progbits
 2644              		.align	1
 2645              		.global	USBH_LL_NotifyURBChange
 2646              		.syntax unified
 2647              		.thumb
 2648              		.thumb_func
 2649              		.fpu fpv4-sp-d16
 2651              	USBH_LL_NotifyURBChange:
 2652              	.LVL213:
 2653              	.LFB264:
1356:Middlewares/ST/STM32_USB_Host_Library/Core/Src/usbh_core.c ****     }
1357:Middlewares/ST/STM32_USB_Host_Library/Core/Src/usbh_core.c ****   }
1358:Middlewares/ST/STM32_USB_Host_Library/Core/Src/usbh_core.c **** }
1359:Middlewares/ST/STM32_USB_Host_Library/Core/Src/usbh_core.c **** #endif /* (osCMSIS < 0x20000U) */
1360:Middlewares/ST/STM32_USB_Host_Library/Core/Src/usbh_core.c **** 
1361:Middlewares/ST/STM32_USB_Host_Library/Core/Src/usbh_core.c **** 
1362:Middlewares/ST/STM32_USB_Host_Library/Core/Src/usbh_core.c **** /**
1363:Middlewares/ST/STM32_USB_Host_Library/Core/Src/usbh_core.c ****   * @brief  USBH_LL_NotifyURBChange
1364:Middlewares/ST/STM32_USB_Host_Library/Core/Src/usbh_core.c ****   *         Notify URB state Change
1365:Middlewares/ST/STM32_USB_Host_Library/Core/Src/usbh_core.c ****   * @param  phost: Host handle
1366:Middlewares/ST/STM32_USB_Host_Library/Core/Src/usbh_core.c ****   * @retval USBH Status
1367:Middlewares/ST/STM32_USB_Host_Library/Core/Src/usbh_core.c ****   */
1368:Middlewares/ST/STM32_USB_Host_Library/Core/Src/usbh_core.c **** USBH_StatusTypeDef  USBH_LL_NotifyURBChange(USBH_HandleTypeDef *phost)
1369:Middlewares/ST/STM32_USB_Host_Library/Core/Src/usbh_core.c **** {
 2654              		.loc 1 1369 1 is_stmt 1 view -0
 2655              		.cfi_startproc
 2656              		@ args = 0, pretend = 0, frame = 0
ARM GAS  /tmp/ccKRVJ90.s 			page 86


 2657              		@ frame_needed = 0, uses_anonymous_args = 0
 2658              		.loc 1 1369 1 is_stmt 0 view .LVU916
 2659 0000 08B5     		push	{r3, lr}
 2660              	.LCFI26:
 2661              		.cfi_def_cfa_offset 8
 2662              		.cfi_offset 3, -8
 2663              		.cfi_offset 14, -4
1370:Middlewares/ST/STM32_USB_Host_Library/Core/Src/usbh_core.c ****   phost->os_msg = (uint32_t)USBH_PORT_EVENT;
 2664              		.loc 1 1370 3 is_stmt 1 view .LVU917
 2665              		.loc 1 1370 17 is_stmt 0 view .LVU918
 2666 0002 0123     		movs	r3, #1
 2667 0004 C0F8E033 		str	r3, [r0, #992]
1371:Middlewares/ST/STM32_USB_Host_Library/Core/Src/usbh_core.c **** 
1372:Middlewares/ST/STM32_USB_Host_Library/Core/Src/usbh_core.c **** #if (osCMSIS < 0x20000U)
1373:Middlewares/ST/STM32_USB_Host_Library/Core/Src/usbh_core.c ****   (void)osMessagePut(phost->os_event, phost->os_msg, 0U);
1374:Middlewares/ST/STM32_USB_Host_Library/Core/Src/usbh_core.c **** #else
1375:Middlewares/ST/STM32_USB_Host_Library/Core/Src/usbh_core.c ****   (void)osMessageQueuePut(phost->os_event, &phost->os_msg, 0U, 0U);
 2668              		.loc 1 1375 3 is_stmt 1 view .LVU919
 2669              		.loc 1 1375 9 is_stmt 0 view .LVU920
 2670 0008 0023     		movs	r3, #0
 2671 000a 1A46     		mov	r2, r3
 2672 000c 00F57871 		add	r1, r0, #992
 2673 0010 D0F8D803 		ldr	r0, [r0, #984]
 2674              	.LVL214:
 2675              		.loc 1 1375 9 view .LVU921
 2676 0014 FFF7FEFF 		bl	osMessageQueuePut
 2677              	.LVL215:
1376:Middlewares/ST/STM32_USB_Host_Library/Core/Src/usbh_core.c **** #endif
1377:Middlewares/ST/STM32_USB_Host_Library/Core/Src/usbh_core.c **** 
1378:Middlewares/ST/STM32_USB_Host_Library/Core/Src/usbh_core.c ****   return USBH_OK;
 2678              		.loc 1 1378 3 is_stmt 1 view .LVU922
1379:Middlewares/ST/STM32_USB_Host_Library/Core/Src/usbh_core.c **** }
 2679              		.loc 1 1379 1 is_stmt 0 view .LVU923
 2680 0018 0020     		movs	r0, #0
 2681 001a 08BD     		pop	{r3, pc}
 2682              		.cfi_endproc
 2683              	.LFE264:
 2685              		.comm	USBH_Thread_Atrr,36,4
 2686              		.text
 2687              	.Letext0:
 2688              		.file 2 "/usr/include/newlib/machine/_default_types.h"
 2689              		.file 3 "/usr/lib/gcc/arm-none-eabi/9.2.1/include/stddef.h"
 2690              		.file 4 "/usr/include/newlib/sys/_types.h"
 2691              		.file 5 "/usr/include/newlib/sys/reent.h"
 2692              		.file 6 "/usr/include/newlib/sys/lock.h"
 2693              		.file 7 "/usr/include/newlib/sys/_stdint.h"
 2694              		.file 8 "/usr/include/newlib/stdlib.h"
 2695              		.file 9 "Drivers/CMSIS/Include/core_cm4.h"
 2696              		.file 10 "Drivers/CMSIS/Device/ST/STM32F4xx/Include/system_stm32f4xx.h"
 2697              		.file 11 "Drivers/STM32F4xx_HAL_Driver/Inc/stm32f4xx_hal.h"
 2698              		.file 12 "Middlewares/Third_Party/FreeRTOS/Source/CMSIS_RTOS_V2/cmsis_os2.h"
 2699              		.file 13 "Middlewares/ST/STM32_USB_Host_Library/Core/Inc/usbh_def.h"
 2700              		.file 14 "Middlewares/ST/STM32_USB_Host_Library/Core/Inc/usbh_ctlreq.h"
 2701              		.file 15 "Middlewares/ST/STM32_USB_Host_Library/Core/Inc/usbh_core.h"
 2702              		.file 16 "Middlewares/ST/STM32_USB_Host_Library/Core/Inc/usbh_pipes.h"
ARM GAS  /tmp/ccKRVJ90.s 			page 87


DEFINED SYMBOLS
                            *ABS*:0000000000000000 usbh_core.c
     /tmp/ccKRVJ90.s:18     .text.DeInitStateMachine:0000000000000000 $t
     /tmp/ccKRVJ90.s:25     .text.DeInitStateMachine:0000000000000000 DeInitStateMachine
     /tmp/ccKRVJ90.s:137    .text.USBH_HandleSof:0000000000000000 $t
     /tmp/ccKRVJ90.s:143    .text.USBH_HandleSof:0000000000000000 USBH_HandleSof
     /tmp/ccKRVJ90.s:186    .text.USBH_HandleEnum:0000000000000000 $t
     /tmp/ccKRVJ90.s:192    .text.USBH_HandleEnum:0000000000000000 USBH_HandleEnum
     /tmp/ccKRVJ90.s:221    .text.USBH_HandleEnum:0000000000000012 $d
     /tmp/ccKRVJ90.s:229    .text.USBH_HandleEnum:0000000000000022 $t
     /tmp/ccKRVJ90.s:876    .rodata.USBH_Init.str1.4:0000000000000000 $d
     /tmp/ccKRVJ90.s:880    .text.USBH_Init:0000000000000000 $t
     /tmp/ccKRVJ90.s:887    .text.USBH_Init:0000000000000000 USBH_Init
     /tmp/ccKRVJ90.s:996    .text.USBH_Init:0000000000000068 $d
                            *COM*:0000000000000024 USBH_Thread_Atrr
     /tmp/ccKRVJ90.s:2260   .text.USBH_Process_OS:0000000000000000 USBH_Process_OS
     /tmp/ccKRVJ90.s:1003   .text.USBH_DeInit:0000000000000000 $t
     /tmp/ccKRVJ90.s:1010   .text.USBH_DeInit:0000000000000000 USBH_DeInit
     /tmp/ccKRVJ90.s:1077   .text.USBH_RegisterClass:0000000000000000 $t
     /tmp/ccKRVJ90.s:1084   .text.USBH_RegisterClass:0000000000000000 USBH_RegisterClass
     /tmp/ccKRVJ90.s:1136   .text.USBH_SelectInterface:0000000000000000 $t
     /tmp/ccKRVJ90.s:1143   .text.USBH_SelectInterface:0000000000000000 USBH_SelectInterface
     /tmp/ccKRVJ90.s:1190   .text.USBH_GetActiveClass:0000000000000000 $t
     /tmp/ccKRVJ90.s:1197   .text.USBH_GetActiveClass:0000000000000000 USBH_GetActiveClass
     /tmp/ccKRVJ90.s:1215   .text.USBH_FindInterface:0000000000000000 $t
     /tmp/ccKRVJ90.s:1222   .text.USBH_FindInterface:0000000000000000 USBH_FindInterface
     /tmp/ccKRVJ90.s:1321   .text.USBH_FindInterfaceIndex:0000000000000000 $t
     /tmp/ccKRVJ90.s:1328   .text.USBH_FindInterfaceIndex:0000000000000000 USBH_FindInterfaceIndex
     /tmp/ccKRVJ90.s:1403   .text.USBH_Start:0000000000000000 $t
     /tmp/ccKRVJ90.s:1410   .text.USBH_Start:0000000000000000 USBH_Start
     /tmp/ccKRVJ90.s:1443   .text.USBH_Stop:0000000000000000 $t
     /tmp/ccKRVJ90.s:1450   .text.USBH_Stop:0000000000000000 USBH_Stop
     /tmp/ccKRVJ90.s:1495   .text.USBH_Process:0000000000000000 $t
     /tmp/ccKRVJ90.s:1502   .text.USBH_Process:0000000000000000 USBH_Process
     /tmp/ccKRVJ90.s:1542   .text.USBH_Process:0000000000000022 $d
     /tmp/ccKRVJ90.s:1554   .text.USBH_Process:000000000000003a $t
     /tmp/ccKRVJ90.s:2254   .text.USBH_Process_OS:0000000000000000 $t
     /tmp/ccKRVJ90.s:2303   .text.USBH_LL_SetTimer:0000000000000000 $t
     /tmp/ccKRVJ90.s:2310   .text.USBH_LL_SetTimer:0000000000000000 USBH_LL_SetTimer
     /tmp/ccKRVJ90.s:2327   .text.USBH_LL_IncTimer:0000000000000000 $t
     /tmp/ccKRVJ90.s:2334   .text.USBH_LL_IncTimer:0000000000000000 USBH_LL_IncTimer
     /tmp/ccKRVJ90.s:2362   .text.USBH_LL_PortEnabled:0000000000000000 $t
     /tmp/ccKRVJ90.s:2369   .text.USBH_LL_PortEnabled:0000000000000000 USBH_LL_PortEnabled
     /tmp/ccKRVJ90.s:2406   .text.USBH_LL_PortDisabled:0000000000000000 $t
     /tmp/ccKRVJ90.s:2413   .text.USBH_LL_PortDisabled:0000000000000000 USBH_LL_PortDisabled
     /tmp/ccKRVJ90.s:2432   .text.USBH_IsPortEnabled:0000000000000000 $t
     /tmp/ccKRVJ90.s:2439   .text.USBH_IsPortEnabled:0000000000000000 USBH_IsPortEnabled
     /tmp/ccKRVJ90.s:2457   .text.USBH_ReEnumerate:0000000000000000 $t
     /tmp/ccKRVJ90.s:2464   .text.USBH_ReEnumerate:0000000000000000 USBH_ReEnumerate
     /tmp/ccKRVJ90.s:2522   .text.USBH_LL_Connect:0000000000000000 $t
     /tmp/ccKRVJ90.s:2529   .text.USBH_LL_Connect:0000000000000000 USBH_LL_Connect
     /tmp/ccKRVJ90.s:2574   .text.USBH_LL_Disconnect:0000000000000000 $t
     /tmp/ccKRVJ90.s:2581   .text.USBH_LL_Disconnect:0000000000000000 USBH_LL_Disconnect
     /tmp/ccKRVJ90.s:2644   .text.USBH_LL_NotifyURBChange:0000000000000000 $t
     /tmp/ccKRVJ90.s:2651   .text.USBH_LL_NotifyURBChange:0000000000000000 USBH_LL_NotifyURBChange

UNDEFINED SYMBOLS
ARM GAS  /tmp/ccKRVJ90.s 			page 88


USBH_Get_DevDesc
USBH_OpenPipe
USBH_FreePipe
USBH_SetAddress
USBH_Delay
USBH_Get_CfgDesc
USBH_Get_StringDesc
osMessageQueuePut
osMessageQueueNew
osThreadNew
USBH_LL_Init
USBH_LL_Stop
osThreadTerminate
osMessageQueueDelete
USBH_LL_Start
USBH_LL_DriverVBUS
USBH_LL_ResetPort
USBH_LL_GetSpeed
USBH_AllocPipe
USBH_SetCfg
USBH_SetFeature
osMessageQueueGet
