ARM GAS  /tmp/ccapfRJn.s 			page 1


   1              		.cpu cortex-m4
   2              		.eabi_attribute 27, 1
   3              		.eabi_attribute 28, 1
   4              		.eabi_attribute 20, 1
   5              		.eabi_attribute 21, 1
   6              		.eabi_attribute 23, 3
   7              		.eabi_attribute 24, 1
   8              		.eabi_attribute 25, 1
   9              		.eabi_attribute 26, 1
  10              		.eabi_attribute 30, 1
  11              		.eabi_attribute 34, 1
  12              		.eabi_attribute 18, 4
  13              		.file	"usbh_ctlreq.c"
  14              		.text
  15              	.Ltext0:
  16              		.cfi_sections	.debug_frame
  17              		.section	.text.USBH_ParseDevDesc,"ax",%progbits
  18              		.align	1
  19              		.arch armv7e-m
  20              		.syntax unified
  21              		.thumb
  22              		.thumb_func
  23              		.fpu fpv4-sp-d16
  25              	USBH_ParseDevDesc:
  26              	.LVL0:
  27              	.LFB251:
  28              		.file 1 "Middlewares/ST/STM32_USB_Host_Library/Core/Src/usbh_ctlreq.c"
   1:Middlewares/ST/STM32_USB_Host_Library/Core/Src/usbh_ctlreq.c **** /**
   2:Middlewares/ST/STM32_USB_Host_Library/Core/Src/usbh_ctlreq.c ****   ******************************************************************************
   3:Middlewares/ST/STM32_USB_Host_Library/Core/Src/usbh_ctlreq.c ****   * @file    usbh_ctlreq.c
   4:Middlewares/ST/STM32_USB_Host_Library/Core/Src/usbh_ctlreq.c ****   * @author  MCD Application Team
   5:Middlewares/ST/STM32_USB_Host_Library/Core/Src/usbh_ctlreq.c ****   * @brief   This file implements the control requests for device enumeration
   6:Middlewares/ST/STM32_USB_Host_Library/Core/Src/usbh_ctlreq.c ****   ******************************************************************************
   7:Middlewares/ST/STM32_USB_Host_Library/Core/Src/usbh_ctlreq.c ****   * @attention
   8:Middlewares/ST/STM32_USB_Host_Library/Core/Src/usbh_ctlreq.c ****   *
   9:Middlewares/ST/STM32_USB_Host_Library/Core/Src/usbh_ctlreq.c ****   * <h2><center>&copy; Copyright (c) 2015 STMicroelectronics.
  10:Middlewares/ST/STM32_USB_Host_Library/Core/Src/usbh_ctlreq.c ****   * All rights reserved.</center></h2>
  11:Middlewares/ST/STM32_USB_Host_Library/Core/Src/usbh_ctlreq.c ****   *
  12:Middlewares/ST/STM32_USB_Host_Library/Core/Src/usbh_ctlreq.c ****   * This software component is licensed by ST under Ultimate Liberty license
  13:Middlewares/ST/STM32_USB_Host_Library/Core/Src/usbh_ctlreq.c ****   * SLA0044, the "License"; You may not use this file except in compliance with
  14:Middlewares/ST/STM32_USB_Host_Library/Core/Src/usbh_ctlreq.c ****   * the License. You may obtain a copy of the License at:
  15:Middlewares/ST/STM32_USB_Host_Library/Core/Src/usbh_ctlreq.c ****   *                      www.st.com/SLA0044
  16:Middlewares/ST/STM32_USB_Host_Library/Core/Src/usbh_ctlreq.c ****   *
  17:Middlewares/ST/STM32_USB_Host_Library/Core/Src/usbh_ctlreq.c ****   ******************************************************************************
  18:Middlewares/ST/STM32_USB_Host_Library/Core/Src/usbh_ctlreq.c ****   */
  19:Middlewares/ST/STM32_USB_Host_Library/Core/Src/usbh_ctlreq.c **** 
  20:Middlewares/ST/STM32_USB_Host_Library/Core/Src/usbh_ctlreq.c **** /* Includes ------------------------------------------------------------------*/
  21:Middlewares/ST/STM32_USB_Host_Library/Core/Src/usbh_ctlreq.c **** #include "usbh_ctlreq.h"
  22:Middlewares/ST/STM32_USB_Host_Library/Core/Src/usbh_ctlreq.c **** 
  23:Middlewares/ST/STM32_USB_Host_Library/Core/Src/usbh_ctlreq.c **** /** @addtogroup USBH_LIB
  24:Middlewares/ST/STM32_USB_Host_Library/Core/Src/usbh_ctlreq.c ****   * @{
  25:Middlewares/ST/STM32_USB_Host_Library/Core/Src/usbh_ctlreq.c ****   */
  26:Middlewares/ST/STM32_USB_Host_Library/Core/Src/usbh_ctlreq.c **** 
  27:Middlewares/ST/STM32_USB_Host_Library/Core/Src/usbh_ctlreq.c **** /** @addtogroup USBH_LIB_CORE
  28:Middlewares/ST/STM32_USB_Host_Library/Core/Src/usbh_ctlreq.c ****   * @{
  29:Middlewares/ST/STM32_USB_Host_Library/Core/Src/usbh_ctlreq.c ****   */
  30:Middlewares/ST/STM32_USB_Host_Library/Core/Src/usbh_ctlreq.c **** 
ARM GAS  /tmp/ccapfRJn.s 			page 2


  31:Middlewares/ST/STM32_USB_Host_Library/Core/Src/usbh_ctlreq.c **** /** @defgroup USBH_CTLREQ
  32:Middlewares/ST/STM32_USB_Host_Library/Core/Src/usbh_ctlreq.c ****   * @brief This file implements the standard requests for device enumeration
  33:Middlewares/ST/STM32_USB_Host_Library/Core/Src/usbh_ctlreq.c ****   * @{
  34:Middlewares/ST/STM32_USB_Host_Library/Core/Src/usbh_ctlreq.c ****   */
  35:Middlewares/ST/STM32_USB_Host_Library/Core/Src/usbh_ctlreq.c **** 
  36:Middlewares/ST/STM32_USB_Host_Library/Core/Src/usbh_ctlreq.c **** 
  37:Middlewares/ST/STM32_USB_Host_Library/Core/Src/usbh_ctlreq.c **** /** @defgroup USBH_CTLREQ_Private_Defines
  38:Middlewares/ST/STM32_USB_Host_Library/Core/Src/usbh_ctlreq.c ****   * @{
  39:Middlewares/ST/STM32_USB_Host_Library/Core/Src/usbh_ctlreq.c ****   */
  40:Middlewares/ST/STM32_USB_Host_Library/Core/Src/usbh_ctlreq.c **** /**
  41:Middlewares/ST/STM32_USB_Host_Library/Core/Src/usbh_ctlreq.c ****   * @}
  42:Middlewares/ST/STM32_USB_Host_Library/Core/Src/usbh_ctlreq.c ****   */
  43:Middlewares/ST/STM32_USB_Host_Library/Core/Src/usbh_ctlreq.c **** 
  44:Middlewares/ST/STM32_USB_Host_Library/Core/Src/usbh_ctlreq.c **** 
  45:Middlewares/ST/STM32_USB_Host_Library/Core/Src/usbh_ctlreq.c **** /** @defgroup USBH_CTLREQ_Private_TypesDefinitions
  46:Middlewares/ST/STM32_USB_Host_Library/Core/Src/usbh_ctlreq.c ****   * @{
  47:Middlewares/ST/STM32_USB_Host_Library/Core/Src/usbh_ctlreq.c ****   */
  48:Middlewares/ST/STM32_USB_Host_Library/Core/Src/usbh_ctlreq.c **** /**
  49:Middlewares/ST/STM32_USB_Host_Library/Core/Src/usbh_ctlreq.c ****   * @}
  50:Middlewares/ST/STM32_USB_Host_Library/Core/Src/usbh_ctlreq.c ****   */
  51:Middlewares/ST/STM32_USB_Host_Library/Core/Src/usbh_ctlreq.c **** 
  52:Middlewares/ST/STM32_USB_Host_Library/Core/Src/usbh_ctlreq.c **** 
  53:Middlewares/ST/STM32_USB_Host_Library/Core/Src/usbh_ctlreq.c **** 
  54:Middlewares/ST/STM32_USB_Host_Library/Core/Src/usbh_ctlreq.c **** /** @defgroup USBH_CTLREQ_Private_Macros
  55:Middlewares/ST/STM32_USB_Host_Library/Core/Src/usbh_ctlreq.c ****   * @{
  56:Middlewares/ST/STM32_USB_Host_Library/Core/Src/usbh_ctlreq.c ****   */
  57:Middlewares/ST/STM32_USB_Host_Library/Core/Src/usbh_ctlreq.c **** /**
  58:Middlewares/ST/STM32_USB_Host_Library/Core/Src/usbh_ctlreq.c ****   * @}
  59:Middlewares/ST/STM32_USB_Host_Library/Core/Src/usbh_ctlreq.c ****   */
  60:Middlewares/ST/STM32_USB_Host_Library/Core/Src/usbh_ctlreq.c **** 
  61:Middlewares/ST/STM32_USB_Host_Library/Core/Src/usbh_ctlreq.c **** 
  62:Middlewares/ST/STM32_USB_Host_Library/Core/Src/usbh_ctlreq.c **** /** @defgroup USBH_CTLREQ_Private_Variables
  63:Middlewares/ST/STM32_USB_Host_Library/Core/Src/usbh_ctlreq.c ****   * @{
  64:Middlewares/ST/STM32_USB_Host_Library/Core/Src/usbh_ctlreq.c ****   */
  65:Middlewares/ST/STM32_USB_Host_Library/Core/Src/usbh_ctlreq.c **** /**
  66:Middlewares/ST/STM32_USB_Host_Library/Core/Src/usbh_ctlreq.c ****   * @}
  67:Middlewares/ST/STM32_USB_Host_Library/Core/Src/usbh_ctlreq.c ****   */
  68:Middlewares/ST/STM32_USB_Host_Library/Core/Src/usbh_ctlreq.c **** 
  69:Middlewares/ST/STM32_USB_Host_Library/Core/Src/usbh_ctlreq.c **** /** @defgroup USBH_CTLREQ_Private_FunctionPrototypes
  70:Middlewares/ST/STM32_USB_Host_Library/Core/Src/usbh_ctlreq.c ****   * @{
  71:Middlewares/ST/STM32_USB_Host_Library/Core/Src/usbh_ctlreq.c ****   */
  72:Middlewares/ST/STM32_USB_Host_Library/Core/Src/usbh_ctlreq.c **** static USBH_StatusTypeDef USBH_HandleControl(USBH_HandleTypeDef *phost);
  73:Middlewares/ST/STM32_USB_Host_Library/Core/Src/usbh_ctlreq.c **** 
  74:Middlewares/ST/STM32_USB_Host_Library/Core/Src/usbh_ctlreq.c **** static void USBH_ParseDevDesc(USBH_DevDescTypeDef *dev_desc,
  75:Middlewares/ST/STM32_USB_Host_Library/Core/Src/usbh_ctlreq.c ****                               uint8_t *buf, uint16_t length);
  76:Middlewares/ST/STM32_USB_Host_Library/Core/Src/usbh_ctlreq.c **** 
  77:Middlewares/ST/STM32_USB_Host_Library/Core/Src/usbh_ctlreq.c **** static USBH_StatusTypeDef USBH_ParseCfgDesc(USBH_HandleTypeDef *phost,
  78:Middlewares/ST/STM32_USB_Host_Library/Core/Src/usbh_ctlreq.c ****                                             uint8_t *buf, uint16_t length);
  79:Middlewares/ST/STM32_USB_Host_Library/Core/Src/usbh_ctlreq.c **** 
  80:Middlewares/ST/STM32_USB_Host_Library/Core/Src/usbh_ctlreq.c **** static USBH_StatusTypeDef USBH_ParseEPDesc(USBH_HandleTypeDef *phost, USBH_EpDescTypeDef  *ep_descr
  81:Middlewares/ST/STM32_USB_Host_Library/Core/Src/usbh_ctlreq.c **** static void USBH_ParseStringDesc(uint8_t *psrc, uint8_t *pdest, uint16_t length);
  82:Middlewares/ST/STM32_USB_Host_Library/Core/Src/usbh_ctlreq.c **** static void USBH_ParseInterfaceDesc(USBH_InterfaceDescTypeDef  *if_descriptor, uint8_t *buf);
  83:Middlewares/ST/STM32_USB_Host_Library/Core/Src/usbh_ctlreq.c **** 
  84:Middlewares/ST/STM32_USB_Host_Library/Core/Src/usbh_ctlreq.c **** 
  85:Middlewares/ST/STM32_USB_Host_Library/Core/Src/usbh_ctlreq.c **** /**
  86:Middlewares/ST/STM32_USB_Host_Library/Core/Src/usbh_ctlreq.c ****   * @}
  87:Middlewares/ST/STM32_USB_Host_Library/Core/Src/usbh_ctlreq.c ****   */
ARM GAS  /tmp/ccapfRJn.s 			page 3


  88:Middlewares/ST/STM32_USB_Host_Library/Core/Src/usbh_ctlreq.c **** 
  89:Middlewares/ST/STM32_USB_Host_Library/Core/Src/usbh_ctlreq.c **** 
  90:Middlewares/ST/STM32_USB_Host_Library/Core/Src/usbh_ctlreq.c **** /** @defgroup USBH_CTLREQ_Private_Functions
  91:Middlewares/ST/STM32_USB_Host_Library/Core/Src/usbh_ctlreq.c ****   * @{
  92:Middlewares/ST/STM32_USB_Host_Library/Core/Src/usbh_ctlreq.c ****   */
  93:Middlewares/ST/STM32_USB_Host_Library/Core/Src/usbh_ctlreq.c **** 
  94:Middlewares/ST/STM32_USB_Host_Library/Core/Src/usbh_ctlreq.c **** 
  95:Middlewares/ST/STM32_USB_Host_Library/Core/Src/usbh_ctlreq.c **** /**
  96:Middlewares/ST/STM32_USB_Host_Library/Core/Src/usbh_ctlreq.c ****   * @brief  USBH_Get_DevDesc
  97:Middlewares/ST/STM32_USB_Host_Library/Core/Src/usbh_ctlreq.c ****   *         Issue Get Device Descriptor command to the device. Once the response
  98:Middlewares/ST/STM32_USB_Host_Library/Core/Src/usbh_ctlreq.c ****   *         received, it parses the device descriptor and updates the status.
  99:Middlewares/ST/STM32_USB_Host_Library/Core/Src/usbh_ctlreq.c ****   * @param  phost: Host Handle
 100:Middlewares/ST/STM32_USB_Host_Library/Core/Src/usbh_ctlreq.c ****   * @param  length: Length of the descriptor
 101:Middlewares/ST/STM32_USB_Host_Library/Core/Src/usbh_ctlreq.c ****   * @retval USBH Status
 102:Middlewares/ST/STM32_USB_Host_Library/Core/Src/usbh_ctlreq.c ****   */
 103:Middlewares/ST/STM32_USB_Host_Library/Core/Src/usbh_ctlreq.c **** USBH_StatusTypeDef USBH_Get_DevDesc(USBH_HandleTypeDef *phost, uint8_t length)
 104:Middlewares/ST/STM32_USB_Host_Library/Core/Src/usbh_ctlreq.c **** {
 105:Middlewares/ST/STM32_USB_Host_Library/Core/Src/usbh_ctlreq.c ****   USBH_StatusTypeDef status;
 106:Middlewares/ST/STM32_USB_Host_Library/Core/Src/usbh_ctlreq.c **** 
 107:Middlewares/ST/STM32_USB_Host_Library/Core/Src/usbh_ctlreq.c ****   status = USBH_GetDescriptor(phost,
 108:Middlewares/ST/STM32_USB_Host_Library/Core/Src/usbh_ctlreq.c ****                               USB_REQ_RECIPIENT_DEVICE | USB_REQ_TYPE_STANDARD,
 109:Middlewares/ST/STM32_USB_Host_Library/Core/Src/usbh_ctlreq.c ****                               USB_DESC_DEVICE, phost->device.Data,
 110:Middlewares/ST/STM32_USB_Host_Library/Core/Src/usbh_ctlreq.c ****                               (uint16_t)length);
 111:Middlewares/ST/STM32_USB_Host_Library/Core/Src/usbh_ctlreq.c **** 
 112:Middlewares/ST/STM32_USB_Host_Library/Core/Src/usbh_ctlreq.c ****   if (status == USBH_OK)
 113:Middlewares/ST/STM32_USB_Host_Library/Core/Src/usbh_ctlreq.c ****   {
 114:Middlewares/ST/STM32_USB_Host_Library/Core/Src/usbh_ctlreq.c ****     /* Commands successfully sent and Response Received */
 115:Middlewares/ST/STM32_USB_Host_Library/Core/Src/usbh_ctlreq.c ****     USBH_ParseDevDesc(&phost->device.DevDesc, phost->device.Data,
 116:Middlewares/ST/STM32_USB_Host_Library/Core/Src/usbh_ctlreq.c ****                       (uint16_t)length);
 117:Middlewares/ST/STM32_USB_Host_Library/Core/Src/usbh_ctlreq.c ****   }
 118:Middlewares/ST/STM32_USB_Host_Library/Core/Src/usbh_ctlreq.c **** 
 119:Middlewares/ST/STM32_USB_Host_Library/Core/Src/usbh_ctlreq.c ****   return status;
 120:Middlewares/ST/STM32_USB_Host_Library/Core/Src/usbh_ctlreq.c **** }
 121:Middlewares/ST/STM32_USB_Host_Library/Core/Src/usbh_ctlreq.c **** 
 122:Middlewares/ST/STM32_USB_Host_Library/Core/Src/usbh_ctlreq.c **** 
 123:Middlewares/ST/STM32_USB_Host_Library/Core/Src/usbh_ctlreq.c **** /**
 124:Middlewares/ST/STM32_USB_Host_Library/Core/Src/usbh_ctlreq.c ****   * @brief  USBH_Get_CfgDesc
 125:Middlewares/ST/STM32_USB_Host_Library/Core/Src/usbh_ctlreq.c ****   *         Issues Configuration Descriptor to the device. Once the response
 126:Middlewares/ST/STM32_USB_Host_Library/Core/Src/usbh_ctlreq.c ****   *         received, it parses the configuration descriptor and updates the
 127:Middlewares/ST/STM32_USB_Host_Library/Core/Src/usbh_ctlreq.c ****   *         status.
 128:Middlewares/ST/STM32_USB_Host_Library/Core/Src/usbh_ctlreq.c ****   * @param  phost: Host Handle
 129:Middlewares/ST/STM32_USB_Host_Library/Core/Src/usbh_ctlreq.c ****   * @param  length: Length of the descriptor
 130:Middlewares/ST/STM32_USB_Host_Library/Core/Src/usbh_ctlreq.c ****   * @retval USBH Status
 131:Middlewares/ST/STM32_USB_Host_Library/Core/Src/usbh_ctlreq.c ****   */
 132:Middlewares/ST/STM32_USB_Host_Library/Core/Src/usbh_ctlreq.c **** USBH_StatusTypeDef USBH_Get_CfgDesc(USBH_HandleTypeDef *phost,
 133:Middlewares/ST/STM32_USB_Host_Library/Core/Src/usbh_ctlreq.c ****                                     uint16_t length)
 134:Middlewares/ST/STM32_USB_Host_Library/Core/Src/usbh_ctlreq.c **** 
 135:Middlewares/ST/STM32_USB_Host_Library/Core/Src/usbh_ctlreq.c **** {
 136:Middlewares/ST/STM32_USB_Host_Library/Core/Src/usbh_ctlreq.c ****   USBH_StatusTypeDef status;
 137:Middlewares/ST/STM32_USB_Host_Library/Core/Src/usbh_ctlreq.c ****   uint8_t *pData = phost->device.CfgDesc_Raw;
 138:Middlewares/ST/STM32_USB_Host_Library/Core/Src/usbh_ctlreq.c **** 
 139:Middlewares/ST/STM32_USB_Host_Library/Core/Src/usbh_ctlreq.c ****   status = USBH_GetDescriptor(phost, (USB_REQ_RECIPIENT_DEVICE | USB_REQ_TYPE_STANDARD),
 140:Middlewares/ST/STM32_USB_Host_Library/Core/Src/usbh_ctlreq.c ****                               USB_DESC_CONFIGURATION, pData, length);
 141:Middlewares/ST/STM32_USB_Host_Library/Core/Src/usbh_ctlreq.c **** 
 142:Middlewares/ST/STM32_USB_Host_Library/Core/Src/usbh_ctlreq.c ****   if (status == USBH_OK)
 143:Middlewares/ST/STM32_USB_Host_Library/Core/Src/usbh_ctlreq.c ****   {
 144:Middlewares/ST/STM32_USB_Host_Library/Core/Src/usbh_ctlreq.c ****     /* Commands successfully sent and Response Received  */
ARM GAS  /tmp/ccapfRJn.s 			page 4


 145:Middlewares/ST/STM32_USB_Host_Library/Core/Src/usbh_ctlreq.c ****     status = USBH_ParseCfgDesc(phost, pData, length);
 146:Middlewares/ST/STM32_USB_Host_Library/Core/Src/usbh_ctlreq.c ****   }
 147:Middlewares/ST/STM32_USB_Host_Library/Core/Src/usbh_ctlreq.c **** 
 148:Middlewares/ST/STM32_USB_Host_Library/Core/Src/usbh_ctlreq.c ****   return status;
 149:Middlewares/ST/STM32_USB_Host_Library/Core/Src/usbh_ctlreq.c **** }
 150:Middlewares/ST/STM32_USB_Host_Library/Core/Src/usbh_ctlreq.c **** 
 151:Middlewares/ST/STM32_USB_Host_Library/Core/Src/usbh_ctlreq.c **** 
 152:Middlewares/ST/STM32_USB_Host_Library/Core/Src/usbh_ctlreq.c **** /**
 153:Middlewares/ST/STM32_USB_Host_Library/Core/Src/usbh_ctlreq.c ****   * @brief  USBH_Get_StringDesc
 154:Middlewares/ST/STM32_USB_Host_Library/Core/Src/usbh_ctlreq.c ****   *         Issues string Descriptor command to the device. Once the response
 155:Middlewares/ST/STM32_USB_Host_Library/Core/Src/usbh_ctlreq.c ****   *         received, it parses the string descriptor and updates the status.
 156:Middlewares/ST/STM32_USB_Host_Library/Core/Src/usbh_ctlreq.c ****   * @param  phost: Host Handle
 157:Middlewares/ST/STM32_USB_Host_Library/Core/Src/usbh_ctlreq.c ****   * @param  string_index: String index for the descriptor
 158:Middlewares/ST/STM32_USB_Host_Library/Core/Src/usbh_ctlreq.c ****   * @param  buff: Buffer address for the descriptor
 159:Middlewares/ST/STM32_USB_Host_Library/Core/Src/usbh_ctlreq.c ****   * @param  length: Length of the descriptor
 160:Middlewares/ST/STM32_USB_Host_Library/Core/Src/usbh_ctlreq.c ****   * @retval USBH Status
 161:Middlewares/ST/STM32_USB_Host_Library/Core/Src/usbh_ctlreq.c ****   */
 162:Middlewares/ST/STM32_USB_Host_Library/Core/Src/usbh_ctlreq.c **** USBH_StatusTypeDef USBH_Get_StringDesc(USBH_HandleTypeDef *phost,
 163:Middlewares/ST/STM32_USB_Host_Library/Core/Src/usbh_ctlreq.c ****                                        uint8_t string_index, uint8_t *buff,
 164:Middlewares/ST/STM32_USB_Host_Library/Core/Src/usbh_ctlreq.c ****                                        uint16_t length)
 165:Middlewares/ST/STM32_USB_Host_Library/Core/Src/usbh_ctlreq.c **** {
 166:Middlewares/ST/STM32_USB_Host_Library/Core/Src/usbh_ctlreq.c ****   USBH_StatusTypeDef status;
 167:Middlewares/ST/STM32_USB_Host_Library/Core/Src/usbh_ctlreq.c **** 
 168:Middlewares/ST/STM32_USB_Host_Library/Core/Src/usbh_ctlreq.c ****   status = USBH_GetDescriptor(phost,
 169:Middlewares/ST/STM32_USB_Host_Library/Core/Src/usbh_ctlreq.c ****                               USB_REQ_RECIPIENT_DEVICE | USB_REQ_TYPE_STANDARD,
 170:Middlewares/ST/STM32_USB_Host_Library/Core/Src/usbh_ctlreq.c ****                               USB_DESC_STRING | string_index,
 171:Middlewares/ST/STM32_USB_Host_Library/Core/Src/usbh_ctlreq.c ****                               phost->device.Data, length);
 172:Middlewares/ST/STM32_USB_Host_Library/Core/Src/usbh_ctlreq.c **** 
 173:Middlewares/ST/STM32_USB_Host_Library/Core/Src/usbh_ctlreq.c ****   if (status == USBH_OK)
 174:Middlewares/ST/STM32_USB_Host_Library/Core/Src/usbh_ctlreq.c ****   {
 175:Middlewares/ST/STM32_USB_Host_Library/Core/Src/usbh_ctlreq.c ****     /* Commands successfully sent and Response Received  */
 176:Middlewares/ST/STM32_USB_Host_Library/Core/Src/usbh_ctlreq.c ****     USBH_ParseStringDesc(phost->device.Data, buff, length);
 177:Middlewares/ST/STM32_USB_Host_Library/Core/Src/usbh_ctlreq.c ****   }
 178:Middlewares/ST/STM32_USB_Host_Library/Core/Src/usbh_ctlreq.c **** 
 179:Middlewares/ST/STM32_USB_Host_Library/Core/Src/usbh_ctlreq.c ****   return status;
 180:Middlewares/ST/STM32_USB_Host_Library/Core/Src/usbh_ctlreq.c **** }
 181:Middlewares/ST/STM32_USB_Host_Library/Core/Src/usbh_ctlreq.c **** 
 182:Middlewares/ST/STM32_USB_Host_Library/Core/Src/usbh_ctlreq.c **** 
 183:Middlewares/ST/STM32_USB_Host_Library/Core/Src/usbh_ctlreq.c **** /**
 184:Middlewares/ST/STM32_USB_Host_Library/Core/Src/usbh_ctlreq.c ****   * @brief  USBH_GetDescriptor
 185:Middlewares/ST/STM32_USB_Host_Library/Core/Src/usbh_ctlreq.c ****   *         Issues Descriptor command to the device. Once the response received,
 186:Middlewares/ST/STM32_USB_Host_Library/Core/Src/usbh_ctlreq.c ****   *         it parses the descriptor and updates the status.
 187:Middlewares/ST/STM32_USB_Host_Library/Core/Src/usbh_ctlreq.c ****   * @param  phost: Host Handle
 188:Middlewares/ST/STM32_USB_Host_Library/Core/Src/usbh_ctlreq.c ****   * @param  req_type: Descriptor type
 189:Middlewares/ST/STM32_USB_Host_Library/Core/Src/usbh_ctlreq.c ****   * @param  value_idx: Value for the GetDescriptr request
 190:Middlewares/ST/STM32_USB_Host_Library/Core/Src/usbh_ctlreq.c ****   * @param  buff: Buffer to store the descriptor
 191:Middlewares/ST/STM32_USB_Host_Library/Core/Src/usbh_ctlreq.c ****   * @param  length: Length of the descriptor
 192:Middlewares/ST/STM32_USB_Host_Library/Core/Src/usbh_ctlreq.c ****   * @retval USBH Status
 193:Middlewares/ST/STM32_USB_Host_Library/Core/Src/usbh_ctlreq.c ****   */
 194:Middlewares/ST/STM32_USB_Host_Library/Core/Src/usbh_ctlreq.c **** USBH_StatusTypeDef USBH_GetDescriptor(USBH_HandleTypeDef *phost,
 195:Middlewares/ST/STM32_USB_Host_Library/Core/Src/usbh_ctlreq.c ****                                       uint8_t  req_type,
 196:Middlewares/ST/STM32_USB_Host_Library/Core/Src/usbh_ctlreq.c ****                                       uint16_t value_idx,
 197:Middlewares/ST/STM32_USB_Host_Library/Core/Src/usbh_ctlreq.c ****                                       uint8_t *buff,
 198:Middlewares/ST/STM32_USB_Host_Library/Core/Src/usbh_ctlreq.c ****                                       uint16_t length)
 199:Middlewares/ST/STM32_USB_Host_Library/Core/Src/usbh_ctlreq.c **** {
 200:Middlewares/ST/STM32_USB_Host_Library/Core/Src/usbh_ctlreq.c ****   if (phost->RequestState == CMD_SEND)
 201:Middlewares/ST/STM32_USB_Host_Library/Core/Src/usbh_ctlreq.c ****   {
ARM GAS  /tmp/ccapfRJn.s 			page 5


 202:Middlewares/ST/STM32_USB_Host_Library/Core/Src/usbh_ctlreq.c ****     phost->Control.setup.b.bmRequestType = USB_D2H | req_type;
 203:Middlewares/ST/STM32_USB_Host_Library/Core/Src/usbh_ctlreq.c ****     phost->Control.setup.b.bRequest = USB_REQ_GET_DESCRIPTOR;
 204:Middlewares/ST/STM32_USB_Host_Library/Core/Src/usbh_ctlreq.c ****     phost->Control.setup.b.wValue.w = value_idx;
 205:Middlewares/ST/STM32_USB_Host_Library/Core/Src/usbh_ctlreq.c **** 
 206:Middlewares/ST/STM32_USB_Host_Library/Core/Src/usbh_ctlreq.c ****     if ((value_idx & 0xff00U) == USB_DESC_STRING)
 207:Middlewares/ST/STM32_USB_Host_Library/Core/Src/usbh_ctlreq.c ****     {
 208:Middlewares/ST/STM32_USB_Host_Library/Core/Src/usbh_ctlreq.c ****       phost->Control.setup.b.wIndex.w = 0x0409U;
 209:Middlewares/ST/STM32_USB_Host_Library/Core/Src/usbh_ctlreq.c ****     }
 210:Middlewares/ST/STM32_USB_Host_Library/Core/Src/usbh_ctlreq.c ****     else
 211:Middlewares/ST/STM32_USB_Host_Library/Core/Src/usbh_ctlreq.c ****     {
 212:Middlewares/ST/STM32_USB_Host_Library/Core/Src/usbh_ctlreq.c ****       phost->Control.setup.b.wIndex.w = 0U;
 213:Middlewares/ST/STM32_USB_Host_Library/Core/Src/usbh_ctlreq.c ****     }
 214:Middlewares/ST/STM32_USB_Host_Library/Core/Src/usbh_ctlreq.c ****     phost->Control.setup.b.wLength.w = length;
 215:Middlewares/ST/STM32_USB_Host_Library/Core/Src/usbh_ctlreq.c ****   }
 216:Middlewares/ST/STM32_USB_Host_Library/Core/Src/usbh_ctlreq.c **** 
 217:Middlewares/ST/STM32_USB_Host_Library/Core/Src/usbh_ctlreq.c ****   return USBH_CtlReq(phost, buff, length);
 218:Middlewares/ST/STM32_USB_Host_Library/Core/Src/usbh_ctlreq.c **** }
 219:Middlewares/ST/STM32_USB_Host_Library/Core/Src/usbh_ctlreq.c **** 
 220:Middlewares/ST/STM32_USB_Host_Library/Core/Src/usbh_ctlreq.c **** 
 221:Middlewares/ST/STM32_USB_Host_Library/Core/Src/usbh_ctlreq.c **** /**
 222:Middlewares/ST/STM32_USB_Host_Library/Core/Src/usbh_ctlreq.c ****   * @brief  USBH_SetAddress
 223:Middlewares/ST/STM32_USB_Host_Library/Core/Src/usbh_ctlreq.c ****   *         This command sets the address to the connected device
 224:Middlewares/ST/STM32_USB_Host_Library/Core/Src/usbh_ctlreq.c ****   * @param  phost: Host Handle
 225:Middlewares/ST/STM32_USB_Host_Library/Core/Src/usbh_ctlreq.c ****   * @param  DeviceAddress: Device address to assign
 226:Middlewares/ST/STM32_USB_Host_Library/Core/Src/usbh_ctlreq.c ****   * @retval USBH Status
 227:Middlewares/ST/STM32_USB_Host_Library/Core/Src/usbh_ctlreq.c ****   */
 228:Middlewares/ST/STM32_USB_Host_Library/Core/Src/usbh_ctlreq.c **** USBH_StatusTypeDef USBH_SetAddress(USBH_HandleTypeDef *phost,
 229:Middlewares/ST/STM32_USB_Host_Library/Core/Src/usbh_ctlreq.c ****                                    uint8_t DeviceAddress)
 230:Middlewares/ST/STM32_USB_Host_Library/Core/Src/usbh_ctlreq.c **** {
 231:Middlewares/ST/STM32_USB_Host_Library/Core/Src/usbh_ctlreq.c ****   if (phost->RequestState == CMD_SEND)
 232:Middlewares/ST/STM32_USB_Host_Library/Core/Src/usbh_ctlreq.c ****   {
 233:Middlewares/ST/STM32_USB_Host_Library/Core/Src/usbh_ctlreq.c ****     phost->Control.setup.b.bmRequestType = USB_H2D | USB_REQ_RECIPIENT_DEVICE | \
 234:Middlewares/ST/STM32_USB_Host_Library/Core/Src/usbh_ctlreq.c ****                                            USB_REQ_TYPE_STANDARD;
 235:Middlewares/ST/STM32_USB_Host_Library/Core/Src/usbh_ctlreq.c **** 
 236:Middlewares/ST/STM32_USB_Host_Library/Core/Src/usbh_ctlreq.c ****     phost->Control.setup.b.bRequest = USB_REQ_SET_ADDRESS;
 237:Middlewares/ST/STM32_USB_Host_Library/Core/Src/usbh_ctlreq.c **** 
 238:Middlewares/ST/STM32_USB_Host_Library/Core/Src/usbh_ctlreq.c ****     phost->Control.setup.b.wValue.w = (uint16_t)DeviceAddress;
 239:Middlewares/ST/STM32_USB_Host_Library/Core/Src/usbh_ctlreq.c ****     phost->Control.setup.b.wIndex.w = 0U;
 240:Middlewares/ST/STM32_USB_Host_Library/Core/Src/usbh_ctlreq.c ****     phost->Control.setup.b.wLength.w = 0U;
 241:Middlewares/ST/STM32_USB_Host_Library/Core/Src/usbh_ctlreq.c ****   }
 242:Middlewares/ST/STM32_USB_Host_Library/Core/Src/usbh_ctlreq.c **** 
 243:Middlewares/ST/STM32_USB_Host_Library/Core/Src/usbh_ctlreq.c ****   return USBH_CtlReq(phost, NULL, 0U);
 244:Middlewares/ST/STM32_USB_Host_Library/Core/Src/usbh_ctlreq.c **** }
 245:Middlewares/ST/STM32_USB_Host_Library/Core/Src/usbh_ctlreq.c **** 
 246:Middlewares/ST/STM32_USB_Host_Library/Core/Src/usbh_ctlreq.c **** 
 247:Middlewares/ST/STM32_USB_Host_Library/Core/Src/usbh_ctlreq.c **** /**
 248:Middlewares/ST/STM32_USB_Host_Library/Core/Src/usbh_ctlreq.c ****   * @brief  USBH_SetCfg
 249:Middlewares/ST/STM32_USB_Host_Library/Core/Src/usbh_ctlreq.c ****   *         The command sets the configuration value to the connected device
 250:Middlewares/ST/STM32_USB_Host_Library/Core/Src/usbh_ctlreq.c ****   * @param  phost: Host Handle
 251:Middlewares/ST/STM32_USB_Host_Library/Core/Src/usbh_ctlreq.c ****   * @param  cfg_idx: Configuration value
 252:Middlewares/ST/STM32_USB_Host_Library/Core/Src/usbh_ctlreq.c ****   * @retval USBH Status
 253:Middlewares/ST/STM32_USB_Host_Library/Core/Src/usbh_ctlreq.c ****   */
 254:Middlewares/ST/STM32_USB_Host_Library/Core/Src/usbh_ctlreq.c **** USBH_StatusTypeDef USBH_SetCfg(USBH_HandleTypeDef *phost, uint16_t cfg_idx)
 255:Middlewares/ST/STM32_USB_Host_Library/Core/Src/usbh_ctlreq.c **** {
 256:Middlewares/ST/STM32_USB_Host_Library/Core/Src/usbh_ctlreq.c ****   if (phost->RequestState == CMD_SEND)
 257:Middlewares/ST/STM32_USB_Host_Library/Core/Src/usbh_ctlreq.c ****   {
 258:Middlewares/ST/STM32_USB_Host_Library/Core/Src/usbh_ctlreq.c ****     phost->Control.setup.b.bmRequestType = USB_H2D | USB_REQ_RECIPIENT_DEVICE
ARM GAS  /tmp/ccapfRJn.s 			page 6


 259:Middlewares/ST/STM32_USB_Host_Library/Core/Src/usbh_ctlreq.c ****                                            | USB_REQ_TYPE_STANDARD;
 260:Middlewares/ST/STM32_USB_Host_Library/Core/Src/usbh_ctlreq.c **** 
 261:Middlewares/ST/STM32_USB_Host_Library/Core/Src/usbh_ctlreq.c ****     phost->Control.setup.b.bRequest = USB_REQ_SET_CONFIGURATION;
 262:Middlewares/ST/STM32_USB_Host_Library/Core/Src/usbh_ctlreq.c ****     phost->Control.setup.b.wValue.w = cfg_idx;
 263:Middlewares/ST/STM32_USB_Host_Library/Core/Src/usbh_ctlreq.c ****     phost->Control.setup.b.wIndex.w = 0U;
 264:Middlewares/ST/STM32_USB_Host_Library/Core/Src/usbh_ctlreq.c ****     phost->Control.setup.b.wLength.w = 0U;
 265:Middlewares/ST/STM32_USB_Host_Library/Core/Src/usbh_ctlreq.c ****   }
 266:Middlewares/ST/STM32_USB_Host_Library/Core/Src/usbh_ctlreq.c **** 
 267:Middlewares/ST/STM32_USB_Host_Library/Core/Src/usbh_ctlreq.c ****   return USBH_CtlReq(phost, NULL, 0U);
 268:Middlewares/ST/STM32_USB_Host_Library/Core/Src/usbh_ctlreq.c **** }
 269:Middlewares/ST/STM32_USB_Host_Library/Core/Src/usbh_ctlreq.c **** 
 270:Middlewares/ST/STM32_USB_Host_Library/Core/Src/usbh_ctlreq.c **** 
 271:Middlewares/ST/STM32_USB_Host_Library/Core/Src/usbh_ctlreq.c **** /**
 272:Middlewares/ST/STM32_USB_Host_Library/Core/Src/usbh_ctlreq.c ****   * @brief  USBH_SetInterface
 273:Middlewares/ST/STM32_USB_Host_Library/Core/Src/usbh_ctlreq.c ****   *         The command sets the Interface value to the connected device
 274:Middlewares/ST/STM32_USB_Host_Library/Core/Src/usbh_ctlreq.c ****   * @param  phost: Host Handle
 275:Middlewares/ST/STM32_USB_Host_Library/Core/Src/usbh_ctlreq.c ****   * @param  altSetting: Interface value
 276:Middlewares/ST/STM32_USB_Host_Library/Core/Src/usbh_ctlreq.c ****   * @retval USBH Status
 277:Middlewares/ST/STM32_USB_Host_Library/Core/Src/usbh_ctlreq.c ****   */
 278:Middlewares/ST/STM32_USB_Host_Library/Core/Src/usbh_ctlreq.c **** USBH_StatusTypeDef USBH_SetInterface(USBH_HandleTypeDef *phost, uint8_t ep_num,
 279:Middlewares/ST/STM32_USB_Host_Library/Core/Src/usbh_ctlreq.c ****                                      uint8_t altSetting)
 280:Middlewares/ST/STM32_USB_Host_Library/Core/Src/usbh_ctlreq.c **** {
 281:Middlewares/ST/STM32_USB_Host_Library/Core/Src/usbh_ctlreq.c ****   if (phost->RequestState == CMD_SEND)
 282:Middlewares/ST/STM32_USB_Host_Library/Core/Src/usbh_ctlreq.c ****   {
 283:Middlewares/ST/STM32_USB_Host_Library/Core/Src/usbh_ctlreq.c ****     phost->Control.setup.b.bmRequestType = USB_H2D | USB_REQ_RECIPIENT_INTERFACE
 284:Middlewares/ST/STM32_USB_Host_Library/Core/Src/usbh_ctlreq.c ****                                            | USB_REQ_TYPE_STANDARD;
 285:Middlewares/ST/STM32_USB_Host_Library/Core/Src/usbh_ctlreq.c **** 
 286:Middlewares/ST/STM32_USB_Host_Library/Core/Src/usbh_ctlreq.c ****     phost->Control.setup.b.bRequest = USB_REQ_SET_INTERFACE;
 287:Middlewares/ST/STM32_USB_Host_Library/Core/Src/usbh_ctlreq.c ****     phost->Control.setup.b.wValue.w = altSetting;
 288:Middlewares/ST/STM32_USB_Host_Library/Core/Src/usbh_ctlreq.c ****     phost->Control.setup.b.wIndex.w = ep_num;
 289:Middlewares/ST/STM32_USB_Host_Library/Core/Src/usbh_ctlreq.c ****     phost->Control.setup.b.wLength.w = 0U;
 290:Middlewares/ST/STM32_USB_Host_Library/Core/Src/usbh_ctlreq.c ****   }
 291:Middlewares/ST/STM32_USB_Host_Library/Core/Src/usbh_ctlreq.c **** 
 292:Middlewares/ST/STM32_USB_Host_Library/Core/Src/usbh_ctlreq.c ****   return USBH_CtlReq(phost, NULL, 0U);
 293:Middlewares/ST/STM32_USB_Host_Library/Core/Src/usbh_ctlreq.c **** }
 294:Middlewares/ST/STM32_USB_Host_Library/Core/Src/usbh_ctlreq.c **** 
 295:Middlewares/ST/STM32_USB_Host_Library/Core/Src/usbh_ctlreq.c **** 
 296:Middlewares/ST/STM32_USB_Host_Library/Core/Src/usbh_ctlreq.c **** /**
 297:Middlewares/ST/STM32_USB_Host_Library/Core/Src/usbh_ctlreq.c ****   * @brief  USBH_SetFeature
 298:Middlewares/ST/STM32_USB_Host_Library/Core/Src/usbh_ctlreq.c ****   *         The command sets the device features (remote wakeup feature,..)
 299:Middlewares/ST/STM32_USB_Host_Library/Core/Src/usbh_ctlreq.c ****   * @param  pdev: Selected device
 300:Middlewares/ST/STM32_USB_Host_Library/Core/Src/usbh_ctlreq.c ****   * @param  itf_idx
 301:Middlewares/ST/STM32_USB_Host_Library/Core/Src/usbh_ctlreq.c ****   * @retval Status
 302:Middlewares/ST/STM32_USB_Host_Library/Core/Src/usbh_ctlreq.c ****   */
 303:Middlewares/ST/STM32_USB_Host_Library/Core/Src/usbh_ctlreq.c **** USBH_StatusTypeDef USBH_SetFeature(USBH_HandleTypeDef *phost, uint8_t wValue)
 304:Middlewares/ST/STM32_USB_Host_Library/Core/Src/usbh_ctlreq.c **** {
 305:Middlewares/ST/STM32_USB_Host_Library/Core/Src/usbh_ctlreq.c ****   if (phost->RequestState == CMD_SEND)
 306:Middlewares/ST/STM32_USB_Host_Library/Core/Src/usbh_ctlreq.c ****   {
 307:Middlewares/ST/STM32_USB_Host_Library/Core/Src/usbh_ctlreq.c ****     phost->Control.setup.b.bmRequestType = USB_H2D | USB_REQ_RECIPIENT_DEVICE
 308:Middlewares/ST/STM32_USB_Host_Library/Core/Src/usbh_ctlreq.c ****                                            | USB_REQ_TYPE_STANDARD;
 309:Middlewares/ST/STM32_USB_Host_Library/Core/Src/usbh_ctlreq.c **** 
 310:Middlewares/ST/STM32_USB_Host_Library/Core/Src/usbh_ctlreq.c ****     phost->Control.setup.b.bRequest = USB_REQ_SET_FEATURE;
 311:Middlewares/ST/STM32_USB_Host_Library/Core/Src/usbh_ctlreq.c ****     phost->Control.setup.b.wValue.w = wValue;
 312:Middlewares/ST/STM32_USB_Host_Library/Core/Src/usbh_ctlreq.c ****     phost->Control.setup.b.wIndex.w = 0U;
 313:Middlewares/ST/STM32_USB_Host_Library/Core/Src/usbh_ctlreq.c ****     phost->Control.setup.b.wLength.w = 0U;
 314:Middlewares/ST/STM32_USB_Host_Library/Core/Src/usbh_ctlreq.c ****   }
 315:Middlewares/ST/STM32_USB_Host_Library/Core/Src/usbh_ctlreq.c **** 
ARM GAS  /tmp/ccapfRJn.s 			page 7


 316:Middlewares/ST/STM32_USB_Host_Library/Core/Src/usbh_ctlreq.c ****   return USBH_CtlReq(phost, NULL, 0U);
 317:Middlewares/ST/STM32_USB_Host_Library/Core/Src/usbh_ctlreq.c **** }
 318:Middlewares/ST/STM32_USB_Host_Library/Core/Src/usbh_ctlreq.c **** 
 319:Middlewares/ST/STM32_USB_Host_Library/Core/Src/usbh_ctlreq.c **** 
 320:Middlewares/ST/STM32_USB_Host_Library/Core/Src/usbh_ctlreq.c **** /**
 321:Middlewares/ST/STM32_USB_Host_Library/Core/Src/usbh_ctlreq.c ****   * @brief  USBH_ClrFeature
 322:Middlewares/ST/STM32_USB_Host_Library/Core/Src/usbh_ctlreq.c ****   *         This request is used to clear or disable a specific feature.
 323:Middlewares/ST/STM32_USB_Host_Library/Core/Src/usbh_ctlreq.c ****   * @param  phost: Host Handle
 324:Middlewares/ST/STM32_USB_Host_Library/Core/Src/usbh_ctlreq.c ****   * @param  ep_num: endpoint number
 325:Middlewares/ST/STM32_USB_Host_Library/Core/Src/usbh_ctlreq.c ****   * @param  hc_num: Host channel number
 326:Middlewares/ST/STM32_USB_Host_Library/Core/Src/usbh_ctlreq.c ****   * @retval USBH Status
 327:Middlewares/ST/STM32_USB_Host_Library/Core/Src/usbh_ctlreq.c ****   */
 328:Middlewares/ST/STM32_USB_Host_Library/Core/Src/usbh_ctlreq.c **** USBH_StatusTypeDef USBH_ClrFeature(USBH_HandleTypeDef *phost, uint8_t ep_num)
 329:Middlewares/ST/STM32_USB_Host_Library/Core/Src/usbh_ctlreq.c **** {
 330:Middlewares/ST/STM32_USB_Host_Library/Core/Src/usbh_ctlreq.c ****   if (phost->RequestState == CMD_SEND)
 331:Middlewares/ST/STM32_USB_Host_Library/Core/Src/usbh_ctlreq.c ****   {
 332:Middlewares/ST/STM32_USB_Host_Library/Core/Src/usbh_ctlreq.c ****     phost->Control.setup.b.bmRequestType = USB_H2D | USB_REQ_RECIPIENT_ENDPOINT
 333:Middlewares/ST/STM32_USB_Host_Library/Core/Src/usbh_ctlreq.c ****                                            | USB_REQ_TYPE_STANDARD;
 334:Middlewares/ST/STM32_USB_Host_Library/Core/Src/usbh_ctlreq.c **** 
 335:Middlewares/ST/STM32_USB_Host_Library/Core/Src/usbh_ctlreq.c ****     phost->Control.setup.b.bRequest = USB_REQ_CLEAR_FEATURE;
 336:Middlewares/ST/STM32_USB_Host_Library/Core/Src/usbh_ctlreq.c ****     phost->Control.setup.b.wValue.w = FEATURE_SELECTOR_ENDPOINT;
 337:Middlewares/ST/STM32_USB_Host_Library/Core/Src/usbh_ctlreq.c ****     phost->Control.setup.b.wIndex.w = ep_num;
 338:Middlewares/ST/STM32_USB_Host_Library/Core/Src/usbh_ctlreq.c ****     phost->Control.setup.b.wLength.w = 0U;
 339:Middlewares/ST/STM32_USB_Host_Library/Core/Src/usbh_ctlreq.c ****   }
 340:Middlewares/ST/STM32_USB_Host_Library/Core/Src/usbh_ctlreq.c ****   return USBH_CtlReq(phost, NULL, 0U);
 341:Middlewares/ST/STM32_USB_Host_Library/Core/Src/usbh_ctlreq.c **** }
 342:Middlewares/ST/STM32_USB_Host_Library/Core/Src/usbh_ctlreq.c **** 
 343:Middlewares/ST/STM32_USB_Host_Library/Core/Src/usbh_ctlreq.c **** 
 344:Middlewares/ST/STM32_USB_Host_Library/Core/Src/usbh_ctlreq.c **** /**
 345:Middlewares/ST/STM32_USB_Host_Library/Core/Src/usbh_ctlreq.c ****   * @brief  USBH_ParseDevDesc
 346:Middlewares/ST/STM32_USB_Host_Library/Core/Src/usbh_ctlreq.c ****   *         This function Parses the device descriptor
 347:Middlewares/ST/STM32_USB_Host_Library/Core/Src/usbh_ctlreq.c ****   * @param  dev_desc: device_descriptor destination address
 348:Middlewares/ST/STM32_USB_Host_Library/Core/Src/usbh_ctlreq.c ****   * @param  buf: Buffer where the source descriptor is available
 349:Middlewares/ST/STM32_USB_Host_Library/Core/Src/usbh_ctlreq.c ****   * @param  length: Length of the descriptor
 350:Middlewares/ST/STM32_USB_Host_Library/Core/Src/usbh_ctlreq.c ****   * @retval None
 351:Middlewares/ST/STM32_USB_Host_Library/Core/Src/usbh_ctlreq.c ****   */
 352:Middlewares/ST/STM32_USB_Host_Library/Core/Src/usbh_ctlreq.c **** static void  USBH_ParseDevDesc(USBH_DevDescTypeDef *dev_desc, uint8_t *buf,
 353:Middlewares/ST/STM32_USB_Host_Library/Core/Src/usbh_ctlreq.c ****                                uint16_t length)
 354:Middlewares/ST/STM32_USB_Host_Library/Core/Src/usbh_ctlreq.c **** {
  29              		.loc 1 354 1 view -0
  30              		.cfi_startproc
  31              		@ args = 0, pretend = 0, frame = 0
  32              		@ frame_needed = 0, uses_anonymous_args = 0
  33              		@ link register save eliminated.
  34              		.loc 1 354 1 is_stmt 0 view .LVU1
  35 0000 10B4     		push	{r4}
  36              	.LCFI0:
  37              		.cfi_def_cfa_offset 4
  38              		.cfi_offset 4, -4
 355:Middlewares/ST/STM32_USB_Host_Library/Core/Src/usbh_ctlreq.c ****   dev_desc->bLength            = *(uint8_t *)(buf +  0);
  39              		.loc 1 355 3 is_stmt 1 view .LVU2
  40              		.loc 1 355 34 is_stmt 0 view .LVU3
  41 0002 0B78     		ldrb	r3, [r1]	@ zero_extendqisi2
  42              		.loc 1 355 32 view .LVU4
  43 0004 0370     		strb	r3, [r0]
 356:Middlewares/ST/STM32_USB_Host_Library/Core/Src/usbh_ctlreq.c ****   dev_desc->bDescriptorType    = *(uint8_t *)(buf +  1);
  44              		.loc 1 356 3 is_stmt 1 view .LVU5
ARM GAS  /tmp/ccapfRJn.s 			page 8


  45              		.loc 1 356 32 is_stmt 0 view .LVU6
  46 0006 4B78     		ldrb	r3, [r1, #1]	@ zero_extendqisi2
  47 0008 4370     		strb	r3, [r0, #1]
 357:Middlewares/ST/STM32_USB_Host_Library/Core/Src/usbh_ctlreq.c ****   dev_desc->bcdUSB             = LE16(buf +  2);
  48              		.loc 1 357 3 is_stmt 1 view .LVU7
  49              		.loc 1 357 34 is_stmt 0 view .LVU8
  50 000a 8B78     		ldrb	r3, [r1, #2]	@ zero_extendqisi2
  51 000c CC78     		ldrb	r4, [r1, #3]	@ zero_extendqisi2
  52 000e 43EA0423 		orr	r3, r3, r4, lsl #8
  53              		.loc 1 357 32 view .LVU9
  54 0012 4380     		strh	r3, [r0, #2]	@ movhi
 358:Middlewares/ST/STM32_USB_Host_Library/Core/Src/usbh_ctlreq.c ****   dev_desc->bDeviceClass       = *(uint8_t *)(buf +  4);
  55              		.loc 1 358 3 is_stmt 1 view .LVU10
  56              		.loc 1 358 32 is_stmt 0 view .LVU11
  57 0014 0B79     		ldrb	r3, [r1, #4]	@ zero_extendqisi2
  58 0016 0371     		strb	r3, [r0, #4]
 359:Middlewares/ST/STM32_USB_Host_Library/Core/Src/usbh_ctlreq.c ****   dev_desc->bDeviceSubClass    = *(uint8_t *)(buf +  5);
  59              		.loc 1 359 3 is_stmt 1 view .LVU12
  60              		.loc 1 359 32 is_stmt 0 view .LVU13
  61 0018 4B79     		ldrb	r3, [r1, #5]	@ zero_extendqisi2
  62 001a 4371     		strb	r3, [r0, #5]
 360:Middlewares/ST/STM32_USB_Host_Library/Core/Src/usbh_ctlreq.c ****   dev_desc->bDeviceProtocol    = *(uint8_t *)(buf +  6);
  63              		.loc 1 360 3 is_stmt 1 view .LVU14
  64              		.loc 1 360 32 is_stmt 0 view .LVU15
  65 001c 8B79     		ldrb	r3, [r1, #6]	@ zero_extendqisi2
  66 001e 8371     		strb	r3, [r0, #6]
 361:Middlewares/ST/STM32_USB_Host_Library/Core/Src/usbh_ctlreq.c ****   dev_desc->bMaxPacketSize     = *(uint8_t *)(buf +  7);
  67              		.loc 1 361 3 is_stmt 1 view .LVU16
  68              		.loc 1 361 32 is_stmt 0 view .LVU17
  69 0020 CB79     		ldrb	r3, [r1, #7]	@ zero_extendqisi2
  70 0022 C371     		strb	r3, [r0, #7]
 362:Middlewares/ST/STM32_USB_Host_Library/Core/Src/usbh_ctlreq.c **** 
 363:Middlewares/ST/STM32_USB_Host_Library/Core/Src/usbh_ctlreq.c ****   /* Make sure that the max packet size is either 8, 16, 32, 64 or force it to 64 */
 364:Middlewares/ST/STM32_USB_Host_Library/Core/Src/usbh_ctlreq.c ****   switch (dev_desc->bMaxPacketSize)
  71              		.loc 1 364 3 is_stmt 1 view .LVU18
  72 0024 202B     		cmp	r3, #32
  73 0026 0CD8     		bhi	.L2
  74 0028 082B     		cmp	r3, #8
  75 002a 0CD3     		bcc	.L3
  76 002c 083B     		subs	r3, r3, #8
  77 002e DBB2     		uxtb	r3, r3
  78 0030 0124     		movs	r4, #1
  79 0032 04FA03F3 		lsl	r3, r4, r3
  80 0036 03F00133 		and	r3, r3, #16843009
  81 003a 23F48033 		bic	r3, r3, #65536
  82 003e 13B1     		cbz	r3, .L3
  83 0040 03E0     		b	.L4
  84              	.L2:
  85 0042 402B     		cmp	r3, #64
  86 0044 01D0     		beq	.L4
  87              	.L3:
 365:Middlewares/ST/STM32_USB_Host_Library/Core/Src/usbh_ctlreq.c ****   {
 366:Middlewares/ST/STM32_USB_Host_Library/Core/Src/usbh_ctlreq.c ****     case 8:
 367:Middlewares/ST/STM32_USB_Host_Library/Core/Src/usbh_ctlreq.c ****     case 16:
 368:Middlewares/ST/STM32_USB_Host_Library/Core/Src/usbh_ctlreq.c ****     case 32:
 369:Middlewares/ST/STM32_USB_Host_Library/Core/Src/usbh_ctlreq.c ****     case 64:
 370:Middlewares/ST/STM32_USB_Host_Library/Core/Src/usbh_ctlreq.c ****       dev_desc->bMaxPacketSize = dev_desc->bMaxPacketSize;
ARM GAS  /tmp/ccapfRJn.s 			page 9


 371:Middlewares/ST/STM32_USB_Host_Library/Core/Src/usbh_ctlreq.c ****       break;
 372:Middlewares/ST/STM32_USB_Host_Library/Core/Src/usbh_ctlreq.c **** 
 373:Middlewares/ST/STM32_USB_Host_Library/Core/Src/usbh_ctlreq.c ****     default:
 374:Middlewares/ST/STM32_USB_Host_Library/Core/Src/usbh_ctlreq.c ****       /*set the size to 64 in case the device has answered with incorrect size */
 375:Middlewares/ST/STM32_USB_Host_Library/Core/Src/usbh_ctlreq.c ****       dev_desc->bMaxPacketSize = 64U;
  88              		.loc 1 375 7 view .LVU19
  89              		.loc 1 375 32 is_stmt 0 view .LVU20
  90 0046 4023     		movs	r3, #64
  91 0048 C371     		strb	r3, [r0, #7]
 376:Middlewares/ST/STM32_USB_Host_Library/Core/Src/usbh_ctlreq.c ****       break;
  92              		.loc 1 376 7 is_stmt 1 view .LVU21
  93              	.L4:
 377:Middlewares/ST/STM32_USB_Host_Library/Core/Src/usbh_ctlreq.c ****   }
 378:Middlewares/ST/STM32_USB_Host_Library/Core/Src/usbh_ctlreq.c **** 
 379:Middlewares/ST/STM32_USB_Host_Library/Core/Src/usbh_ctlreq.c ****   if (length > 8U)
  94              		.loc 1 379 3 view .LVU22
  95              		.loc 1 379 6 is_stmt 0 view .LVU23
  96 004a 082A     		cmp	r2, #8
  97 004c 16D9     		bls	.L1
 380:Middlewares/ST/STM32_USB_Host_Library/Core/Src/usbh_ctlreq.c ****   {
 381:Middlewares/ST/STM32_USB_Host_Library/Core/Src/usbh_ctlreq.c ****     /* For 1st time after device connection, Host may issue only 8 bytes for
 382:Middlewares/ST/STM32_USB_Host_Library/Core/Src/usbh_ctlreq.c ****     Device Descriptor Length  */
 383:Middlewares/ST/STM32_USB_Host_Library/Core/Src/usbh_ctlreq.c ****     dev_desc->idVendor           = LE16(buf +  8);
  98              		.loc 1 383 5 is_stmt 1 view .LVU24
  99              		.loc 1 383 36 is_stmt 0 view .LVU25
 100 004e 0B7A     		ldrb	r3, [r1, #8]	@ zero_extendqisi2
 101 0050 4A7A     		ldrb	r2, [r1, #9]	@ zero_extendqisi2
 102              	.LVL1:
 103              		.loc 1 383 36 view .LVU26
 104 0052 43EA0223 		orr	r3, r3, r2, lsl #8
 105              		.loc 1 383 34 view .LVU27
 106 0056 0381     		strh	r3, [r0, #8]	@ movhi
 384:Middlewares/ST/STM32_USB_Host_Library/Core/Src/usbh_ctlreq.c ****     dev_desc->idProduct          = LE16(buf + 10);
 107              		.loc 1 384 5 is_stmt 1 view .LVU28
 108              		.loc 1 384 36 is_stmt 0 view .LVU29
 109 0058 8B7A     		ldrb	r3, [r1, #10]	@ zero_extendqisi2
 110 005a CA7A     		ldrb	r2, [r1, #11]	@ zero_extendqisi2
 111 005c 43EA0223 		orr	r3, r3, r2, lsl #8
 112              		.loc 1 384 34 view .LVU30
 113 0060 4381     		strh	r3, [r0, #10]	@ movhi
 385:Middlewares/ST/STM32_USB_Host_Library/Core/Src/usbh_ctlreq.c ****     dev_desc->bcdDevice          = LE16(buf + 12);
 114              		.loc 1 385 5 is_stmt 1 view .LVU31
 115              		.loc 1 385 36 is_stmt 0 view .LVU32
 116 0062 0B7B     		ldrb	r3, [r1, #12]	@ zero_extendqisi2
 117 0064 4A7B     		ldrb	r2, [r1, #13]	@ zero_extendqisi2
 118 0066 43EA0223 		orr	r3, r3, r2, lsl #8
 119              		.loc 1 385 34 view .LVU33
 120 006a 8381     		strh	r3, [r0, #12]	@ movhi
 386:Middlewares/ST/STM32_USB_Host_Library/Core/Src/usbh_ctlreq.c ****     dev_desc->iManufacturer      = *(uint8_t *)(buf + 14);
 121              		.loc 1 386 5 is_stmt 1 view .LVU34
 122              		.loc 1 386 34 is_stmt 0 view .LVU35
 123 006c 8B7B     		ldrb	r3, [r1, #14]	@ zero_extendqisi2
 124 006e 8373     		strb	r3, [r0, #14]
 387:Middlewares/ST/STM32_USB_Host_Library/Core/Src/usbh_ctlreq.c ****     dev_desc->iProduct           = *(uint8_t *)(buf + 15);
 125              		.loc 1 387 5 is_stmt 1 view .LVU36
 126              		.loc 1 387 34 is_stmt 0 view .LVU37
 127 0070 CB7B     		ldrb	r3, [r1, #15]	@ zero_extendqisi2
ARM GAS  /tmp/ccapfRJn.s 			page 10


 128 0072 C373     		strb	r3, [r0, #15]
 388:Middlewares/ST/STM32_USB_Host_Library/Core/Src/usbh_ctlreq.c ****     dev_desc->iSerialNumber      = *(uint8_t *)(buf + 16);
 129              		.loc 1 388 5 is_stmt 1 view .LVU38
 130              		.loc 1 388 34 is_stmt 0 view .LVU39
 131 0074 0B7C     		ldrb	r3, [r1, #16]	@ zero_extendqisi2
 132 0076 0374     		strb	r3, [r0, #16]
 389:Middlewares/ST/STM32_USB_Host_Library/Core/Src/usbh_ctlreq.c ****     dev_desc->bNumConfigurations = *(uint8_t *)(buf + 17);
 133              		.loc 1 389 5 is_stmt 1 view .LVU40
 134              		.loc 1 389 34 is_stmt 0 view .LVU41
 135 0078 4B7C     		ldrb	r3, [r1, #17]	@ zero_extendqisi2
 136 007a 4374     		strb	r3, [r0, #17]
 137              	.L1:
 390:Middlewares/ST/STM32_USB_Host_Library/Core/Src/usbh_ctlreq.c ****   }
 391:Middlewares/ST/STM32_USB_Host_Library/Core/Src/usbh_ctlreq.c **** }
 138              		.loc 1 391 1 view .LVU42
 139 007c 5DF8044B 		ldr	r4, [sp], #4
 140              	.LCFI1:
 141              		.cfi_restore 4
 142              		.cfi_def_cfa_offset 0
 143 0080 7047     		bx	lr
 144              		.cfi_endproc
 145              	.LFE251:
 147              		.section	.text.USBH_ParseInterfaceDesc,"ax",%progbits
 148              		.align	1
 149              		.syntax unified
 150              		.thumb
 151              		.thumb_func
 152              		.fpu fpv4-sp-d16
 154              	USBH_ParseInterfaceDesc:
 155              	.LVL2:
 156              	.LFB253:
 392:Middlewares/ST/STM32_USB_Host_Library/Core/Src/usbh_ctlreq.c **** 
 393:Middlewares/ST/STM32_USB_Host_Library/Core/Src/usbh_ctlreq.c **** 
 394:Middlewares/ST/STM32_USB_Host_Library/Core/Src/usbh_ctlreq.c **** /**
 395:Middlewares/ST/STM32_USB_Host_Library/Core/Src/usbh_ctlreq.c ****   * @brief  USBH_ParseCfgDesc
 396:Middlewares/ST/STM32_USB_Host_Library/Core/Src/usbh_ctlreq.c ****   *         This function Parses the configuration descriptor
 397:Middlewares/ST/STM32_USB_Host_Library/Core/Src/usbh_ctlreq.c ****   * @param  phost: USB Host handler
 398:Middlewares/ST/STM32_USB_Host_Library/Core/Src/usbh_ctlreq.c ****   * @param  buf: Buffer where the source descriptor is available
 399:Middlewares/ST/STM32_USB_Host_Library/Core/Src/usbh_ctlreq.c ****   * @param  length: Length of the descriptor
 400:Middlewares/ST/STM32_USB_Host_Library/Core/Src/usbh_ctlreq.c ****   * @retval USBH statuse
 401:Middlewares/ST/STM32_USB_Host_Library/Core/Src/usbh_ctlreq.c ****   */
 402:Middlewares/ST/STM32_USB_Host_Library/Core/Src/usbh_ctlreq.c **** static USBH_StatusTypeDef USBH_ParseCfgDesc(USBH_HandleTypeDef *phost, uint8_t *buf, uint16_t lengt
 403:Middlewares/ST/STM32_USB_Host_Library/Core/Src/usbh_ctlreq.c **** {
 404:Middlewares/ST/STM32_USB_Host_Library/Core/Src/usbh_ctlreq.c ****   USBH_CfgDescTypeDef *cfg_desc = &phost->device.CfgDesc;
 405:Middlewares/ST/STM32_USB_Host_Library/Core/Src/usbh_ctlreq.c ****   USBH_StatusTypeDef           status = USBH_OK;
 406:Middlewares/ST/STM32_USB_Host_Library/Core/Src/usbh_ctlreq.c ****   USBH_InterfaceDescTypeDef    *pif ;
 407:Middlewares/ST/STM32_USB_Host_Library/Core/Src/usbh_ctlreq.c ****   USBH_EpDescTypeDef           *pep;
 408:Middlewares/ST/STM32_USB_Host_Library/Core/Src/usbh_ctlreq.c ****   USBH_DescHeader_t            *pdesc = (USBH_DescHeader_t *)(void *)buf;
 409:Middlewares/ST/STM32_USB_Host_Library/Core/Src/usbh_ctlreq.c ****   uint16_t                     ptr;
 410:Middlewares/ST/STM32_USB_Host_Library/Core/Src/usbh_ctlreq.c ****   uint8_t                      if_ix = 0U;
 411:Middlewares/ST/STM32_USB_Host_Library/Core/Src/usbh_ctlreq.c ****   uint8_t                      ep_ix = 0U;
 412:Middlewares/ST/STM32_USB_Host_Library/Core/Src/usbh_ctlreq.c **** 
 413:Middlewares/ST/STM32_USB_Host_Library/Core/Src/usbh_ctlreq.c ****   pdesc   = (USBH_DescHeader_t *)(void *)buf;
 414:Middlewares/ST/STM32_USB_Host_Library/Core/Src/usbh_ctlreq.c **** 
 415:Middlewares/ST/STM32_USB_Host_Library/Core/Src/usbh_ctlreq.c ****   /* Parse configuration descriptor */
 416:Middlewares/ST/STM32_USB_Host_Library/Core/Src/usbh_ctlreq.c ****   cfg_desc->bLength             = *(uint8_t *)(buf + 0);
 417:Middlewares/ST/STM32_USB_Host_Library/Core/Src/usbh_ctlreq.c ****   cfg_desc->bDescriptorType     = *(uint8_t *)(buf + 1);
ARM GAS  /tmp/ccapfRJn.s 			page 11


 418:Middlewares/ST/STM32_USB_Host_Library/Core/Src/usbh_ctlreq.c ****   cfg_desc->wTotalLength        = MIN(((uint16_t) LE16(buf + 2)), ((uint16_t)USBH_MAX_SIZE_CONFIGUR
 419:Middlewares/ST/STM32_USB_Host_Library/Core/Src/usbh_ctlreq.c ****   cfg_desc->bNumInterfaces      = *(uint8_t *)(buf + 4);
 420:Middlewares/ST/STM32_USB_Host_Library/Core/Src/usbh_ctlreq.c ****   cfg_desc->bConfigurationValue = *(uint8_t *)(buf + 5);
 421:Middlewares/ST/STM32_USB_Host_Library/Core/Src/usbh_ctlreq.c ****   cfg_desc->iConfiguration      = *(uint8_t *)(buf + 6);
 422:Middlewares/ST/STM32_USB_Host_Library/Core/Src/usbh_ctlreq.c ****   cfg_desc->bmAttributes        = *(uint8_t *)(buf + 7);
 423:Middlewares/ST/STM32_USB_Host_Library/Core/Src/usbh_ctlreq.c ****   cfg_desc->bMaxPower           = *(uint8_t *)(buf + 8);
 424:Middlewares/ST/STM32_USB_Host_Library/Core/Src/usbh_ctlreq.c **** 
 425:Middlewares/ST/STM32_USB_Host_Library/Core/Src/usbh_ctlreq.c ****   /* Make sure that the Confguration descriptor's bLength is equal to USB_CONFIGURATION_DESC_SIZE *
 426:Middlewares/ST/STM32_USB_Host_Library/Core/Src/usbh_ctlreq.c ****   if (cfg_desc->bLength  != USB_CONFIGURATION_DESC_SIZE)
 427:Middlewares/ST/STM32_USB_Host_Library/Core/Src/usbh_ctlreq.c ****   {
 428:Middlewares/ST/STM32_USB_Host_Library/Core/Src/usbh_ctlreq.c ****     cfg_desc->bLength = USB_CONFIGURATION_DESC_SIZE;
 429:Middlewares/ST/STM32_USB_Host_Library/Core/Src/usbh_ctlreq.c ****   }
 430:Middlewares/ST/STM32_USB_Host_Library/Core/Src/usbh_ctlreq.c **** 
 431:Middlewares/ST/STM32_USB_Host_Library/Core/Src/usbh_ctlreq.c ****   if (length > USB_CONFIGURATION_DESC_SIZE)
 432:Middlewares/ST/STM32_USB_Host_Library/Core/Src/usbh_ctlreq.c ****   {
 433:Middlewares/ST/STM32_USB_Host_Library/Core/Src/usbh_ctlreq.c ****     ptr = USB_LEN_CFG_DESC;
 434:Middlewares/ST/STM32_USB_Host_Library/Core/Src/usbh_ctlreq.c ****     pif = (USBH_InterfaceDescTypeDef *)NULL;
 435:Middlewares/ST/STM32_USB_Host_Library/Core/Src/usbh_ctlreq.c **** 
 436:Middlewares/ST/STM32_USB_Host_Library/Core/Src/usbh_ctlreq.c ****     while ((if_ix < USBH_MAX_NUM_INTERFACES) && (ptr < cfg_desc->wTotalLength))
 437:Middlewares/ST/STM32_USB_Host_Library/Core/Src/usbh_ctlreq.c ****     {
 438:Middlewares/ST/STM32_USB_Host_Library/Core/Src/usbh_ctlreq.c ****       pdesc = USBH_GetNextDesc((uint8_t *)(void *)pdesc, &ptr);
 439:Middlewares/ST/STM32_USB_Host_Library/Core/Src/usbh_ctlreq.c ****       if (pdesc->bDescriptorType == USB_DESC_TYPE_INTERFACE)
 440:Middlewares/ST/STM32_USB_Host_Library/Core/Src/usbh_ctlreq.c ****       {
 441:Middlewares/ST/STM32_USB_Host_Library/Core/Src/usbh_ctlreq.c ****         /* Make sure that the interface descriptor's bLength is equal to USB_INTERFACE_DESC_SIZE */
 442:Middlewares/ST/STM32_USB_Host_Library/Core/Src/usbh_ctlreq.c ****         if (pdesc->bLength != USB_INTERFACE_DESC_SIZE)
 443:Middlewares/ST/STM32_USB_Host_Library/Core/Src/usbh_ctlreq.c ****         {
 444:Middlewares/ST/STM32_USB_Host_Library/Core/Src/usbh_ctlreq.c ****           pdesc->bLength = USB_INTERFACE_DESC_SIZE;
 445:Middlewares/ST/STM32_USB_Host_Library/Core/Src/usbh_ctlreq.c ****         }
 446:Middlewares/ST/STM32_USB_Host_Library/Core/Src/usbh_ctlreq.c **** 
 447:Middlewares/ST/STM32_USB_Host_Library/Core/Src/usbh_ctlreq.c ****         pif = &cfg_desc->Itf_Desc[if_ix];
 448:Middlewares/ST/STM32_USB_Host_Library/Core/Src/usbh_ctlreq.c ****         USBH_ParseInterfaceDesc(pif, (uint8_t *)(void *)pdesc);
 449:Middlewares/ST/STM32_USB_Host_Library/Core/Src/usbh_ctlreq.c **** 
 450:Middlewares/ST/STM32_USB_Host_Library/Core/Src/usbh_ctlreq.c ****         ep_ix = 0U;
 451:Middlewares/ST/STM32_USB_Host_Library/Core/Src/usbh_ctlreq.c ****         pep = (USBH_EpDescTypeDef *)NULL;
 452:Middlewares/ST/STM32_USB_Host_Library/Core/Src/usbh_ctlreq.c **** 
 453:Middlewares/ST/STM32_USB_Host_Library/Core/Src/usbh_ctlreq.c ****         while ((ep_ix < pif->bNumEndpoints) && (ptr < cfg_desc->wTotalLength))
 454:Middlewares/ST/STM32_USB_Host_Library/Core/Src/usbh_ctlreq.c ****         {
 455:Middlewares/ST/STM32_USB_Host_Library/Core/Src/usbh_ctlreq.c ****           pdesc = USBH_GetNextDesc((uint8_t *)(void *)pdesc, &ptr);
 456:Middlewares/ST/STM32_USB_Host_Library/Core/Src/usbh_ctlreq.c **** 
 457:Middlewares/ST/STM32_USB_Host_Library/Core/Src/usbh_ctlreq.c ****           if (pdesc->bDescriptorType == USB_DESC_TYPE_ENDPOINT)
 458:Middlewares/ST/STM32_USB_Host_Library/Core/Src/usbh_ctlreq.c ****           {
 459:Middlewares/ST/STM32_USB_Host_Library/Core/Src/usbh_ctlreq.c ****             /* Check if the endpoint is appartening to an audio streaming interface */
 460:Middlewares/ST/STM32_USB_Host_Library/Core/Src/usbh_ctlreq.c ****             if ((pif->bInterfaceClass == 0x01U) && (pif->bInterfaceSubClass == 0x02U))
 461:Middlewares/ST/STM32_USB_Host_Library/Core/Src/usbh_ctlreq.c ****             {
 462:Middlewares/ST/STM32_USB_Host_Library/Core/Src/usbh_ctlreq.c ****               /* Check if it is supporting the USB AUDIO 01 class specification */
 463:Middlewares/ST/STM32_USB_Host_Library/Core/Src/usbh_ctlreq.c ****               if ((pif->bInterfaceProtocol == 0x00U) && (pdesc->bLength != 0x09U))
 464:Middlewares/ST/STM32_USB_Host_Library/Core/Src/usbh_ctlreq.c ****               {
 465:Middlewares/ST/STM32_USB_Host_Library/Core/Src/usbh_ctlreq.c ****                 pdesc->bLength = 0x09U;
 466:Middlewares/ST/STM32_USB_Host_Library/Core/Src/usbh_ctlreq.c ****               }
 467:Middlewares/ST/STM32_USB_Host_Library/Core/Src/usbh_ctlreq.c ****             }
 468:Middlewares/ST/STM32_USB_Host_Library/Core/Src/usbh_ctlreq.c ****             /* Make sure that the endpoint descriptor's bLength is equal to
 469:Middlewares/ST/STM32_USB_Host_Library/Core/Src/usbh_ctlreq.c ****                USB_ENDPOINT_DESC_SIZE for all other endpoints types */
 470:Middlewares/ST/STM32_USB_Host_Library/Core/Src/usbh_ctlreq.c ****             else if (pdesc->bLength != USB_ENDPOINT_DESC_SIZE)
 471:Middlewares/ST/STM32_USB_Host_Library/Core/Src/usbh_ctlreq.c ****             {
 472:Middlewares/ST/STM32_USB_Host_Library/Core/Src/usbh_ctlreq.c ****               pdesc->bLength = USB_ENDPOINT_DESC_SIZE;
 473:Middlewares/ST/STM32_USB_Host_Library/Core/Src/usbh_ctlreq.c ****             }
 474:Middlewares/ST/STM32_USB_Host_Library/Core/Src/usbh_ctlreq.c ****             else
ARM GAS  /tmp/ccapfRJn.s 			page 12


 475:Middlewares/ST/STM32_USB_Host_Library/Core/Src/usbh_ctlreq.c ****             {
 476:Middlewares/ST/STM32_USB_Host_Library/Core/Src/usbh_ctlreq.c ****               /* ... */
 477:Middlewares/ST/STM32_USB_Host_Library/Core/Src/usbh_ctlreq.c ****             }
 478:Middlewares/ST/STM32_USB_Host_Library/Core/Src/usbh_ctlreq.c **** 
 479:Middlewares/ST/STM32_USB_Host_Library/Core/Src/usbh_ctlreq.c ****             pep = &cfg_desc->Itf_Desc[if_ix].Ep_Desc[ep_ix];
 480:Middlewares/ST/STM32_USB_Host_Library/Core/Src/usbh_ctlreq.c **** 
 481:Middlewares/ST/STM32_USB_Host_Library/Core/Src/usbh_ctlreq.c ****             status = USBH_ParseEPDesc(phost, pep, (uint8_t *)(void *)pdesc);
 482:Middlewares/ST/STM32_USB_Host_Library/Core/Src/usbh_ctlreq.c **** 
 483:Middlewares/ST/STM32_USB_Host_Library/Core/Src/usbh_ctlreq.c ****             ep_ix++;
 484:Middlewares/ST/STM32_USB_Host_Library/Core/Src/usbh_ctlreq.c ****           }
 485:Middlewares/ST/STM32_USB_Host_Library/Core/Src/usbh_ctlreq.c ****         }
 486:Middlewares/ST/STM32_USB_Host_Library/Core/Src/usbh_ctlreq.c **** 
 487:Middlewares/ST/STM32_USB_Host_Library/Core/Src/usbh_ctlreq.c ****         /* Check if the required endpoint(s) data are parsed */
 488:Middlewares/ST/STM32_USB_Host_Library/Core/Src/usbh_ctlreq.c ****         if (ep_ix < pif->bNumEndpoints)
 489:Middlewares/ST/STM32_USB_Host_Library/Core/Src/usbh_ctlreq.c ****         {
 490:Middlewares/ST/STM32_USB_Host_Library/Core/Src/usbh_ctlreq.c ****           return USBH_NOT_SUPPORTED;
 491:Middlewares/ST/STM32_USB_Host_Library/Core/Src/usbh_ctlreq.c ****         }
 492:Middlewares/ST/STM32_USB_Host_Library/Core/Src/usbh_ctlreq.c **** 
 493:Middlewares/ST/STM32_USB_Host_Library/Core/Src/usbh_ctlreq.c ****         if_ix++;
 494:Middlewares/ST/STM32_USB_Host_Library/Core/Src/usbh_ctlreq.c ****       }
 495:Middlewares/ST/STM32_USB_Host_Library/Core/Src/usbh_ctlreq.c ****     }
 496:Middlewares/ST/STM32_USB_Host_Library/Core/Src/usbh_ctlreq.c **** 
 497:Middlewares/ST/STM32_USB_Host_Library/Core/Src/usbh_ctlreq.c ****     /* Check if the required interface(s) data are parsed */
 498:Middlewares/ST/STM32_USB_Host_Library/Core/Src/usbh_ctlreq.c ****     if (if_ix < MIN(cfg_desc->bNumInterfaces, (uint8_t)USBH_MAX_NUM_INTERFACES))
 499:Middlewares/ST/STM32_USB_Host_Library/Core/Src/usbh_ctlreq.c ****     {
 500:Middlewares/ST/STM32_USB_Host_Library/Core/Src/usbh_ctlreq.c ****       return USBH_NOT_SUPPORTED;
 501:Middlewares/ST/STM32_USB_Host_Library/Core/Src/usbh_ctlreq.c ****     }
 502:Middlewares/ST/STM32_USB_Host_Library/Core/Src/usbh_ctlreq.c ****   }
 503:Middlewares/ST/STM32_USB_Host_Library/Core/Src/usbh_ctlreq.c **** 
 504:Middlewares/ST/STM32_USB_Host_Library/Core/Src/usbh_ctlreq.c ****   return status;
 505:Middlewares/ST/STM32_USB_Host_Library/Core/Src/usbh_ctlreq.c **** }
 506:Middlewares/ST/STM32_USB_Host_Library/Core/Src/usbh_ctlreq.c **** 
 507:Middlewares/ST/STM32_USB_Host_Library/Core/Src/usbh_ctlreq.c **** 
 508:Middlewares/ST/STM32_USB_Host_Library/Core/Src/usbh_ctlreq.c **** /**
 509:Middlewares/ST/STM32_USB_Host_Library/Core/Src/usbh_ctlreq.c ****   * @brief  USBH_ParseInterfaceDesc
 510:Middlewares/ST/STM32_USB_Host_Library/Core/Src/usbh_ctlreq.c ****   *         This function Parses the interface descriptor
 511:Middlewares/ST/STM32_USB_Host_Library/Core/Src/usbh_ctlreq.c ****   * @param  if_descriptor : Interface descriptor destination
 512:Middlewares/ST/STM32_USB_Host_Library/Core/Src/usbh_ctlreq.c ****   * @param  buf: Buffer where the descriptor data is available
 513:Middlewares/ST/STM32_USB_Host_Library/Core/Src/usbh_ctlreq.c ****   * @retval None
 514:Middlewares/ST/STM32_USB_Host_Library/Core/Src/usbh_ctlreq.c ****   */
 515:Middlewares/ST/STM32_USB_Host_Library/Core/Src/usbh_ctlreq.c **** static void  USBH_ParseInterfaceDesc(USBH_InterfaceDescTypeDef *if_descriptor,
 516:Middlewares/ST/STM32_USB_Host_Library/Core/Src/usbh_ctlreq.c ****                                      uint8_t *buf)
 517:Middlewares/ST/STM32_USB_Host_Library/Core/Src/usbh_ctlreq.c **** {
 157              		.loc 1 517 1 is_stmt 1 view -0
 158              		.cfi_startproc
 159              		@ args = 0, pretend = 0, frame = 0
 160              		@ frame_needed = 0, uses_anonymous_args = 0
 161              		@ link register save eliminated.
 518:Middlewares/ST/STM32_USB_Host_Library/Core/Src/usbh_ctlreq.c ****   if_descriptor->bLength            = *(uint8_t *)(buf + 0);
 162              		.loc 1 518 3 view .LVU44
 163              		.loc 1 518 39 is_stmt 0 view .LVU45
 164 0000 0B78     		ldrb	r3, [r1]	@ zero_extendqisi2
 165              		.loc 1 518 37 view .LVU46
 166 0002 0370     		strb	r3, [r0]
 519:Middlewares/ST/STM32_USB_Host_Library/Core/Src/usbh_ctlreq.c ****   if_descriptor->bDescriptorType    = *(uint8_t *)(buf + 1);
 167              		.loc 1 519 3 is_stmt 1 view .LVU47
 168              		.loc 1 519 37 is_stmt 0 view .LVU48
ARM GAS  /tmp/ccapfRJn.s 			page 13


 169 0004 4B78     		ldrb	r3, [r1, #1]	@ zero_extendqisi2
 170 0006 4370     		strb	r3, [r0, #1]
 520:Middlewares/ST/STM32_USB_Host_Library/Core/Src/usbh_ctlreq.c ****   if_descriptor->bInterfaceNumber   = *(uint8_t *)(buf + 2);
 171              		.loc 1 520 3 is_stmt 1 view .LVU49
 172              		.loc 1 520 37 is_stmt 0 view .LVU50
 173 0008 8B78     		ldrb	r3, [r1, #2]	@ zero_extendqisi2
 174 000a 8370     		strb	r3, [r0, #2]
 521:Middlewares/ST/STM32_USB_Host_Library/Core/Src/usbh_ctlreq.c ****   if_descriptor->bAlternateSetting  = *(uint8_t *)(buf + 3);
 175              		.loc 1 521 3 is_stmt 1 view .LVU51
 176              		.loc 1 521 37 is_stmt 0 view .LVU52
 177 000c CB78     		ldrb	r3, [r1, #3]	@ zero_extendqisi2
 178 000e C370     		strb	r3, [r0, #3]
 522:Middlewares/ST/STM32_USB_Host_Library/Core/Src/usbh_ctlreq.c ****   if_descriptor->bNumEndpoints      = *(uint8_t *)(buf + 4);
 179              		.loc 1 522 3 is_stmt 1 view .LVU53
 180              		.loc 1 522 37 is_stmt 0 view .LVU54
 181 0010 0B79     		ldrb	r3, [r1, #4]	@ zero_extendqisi2
 182 0012 0371     		strb	r3, [r0, #4]
 523:Middlewares/ST/STM32_USB_Host_Library/Core/Src/usbh_ctlreq.c ****   if_descriptor->bInterfaceClass    = *(uint8_t *)(buf + 5);
 183              		.loc 1 523 3 is_stmt 1 view .LVU55
 184              		.loc 1 523 37 is_stmt 0 view .LVU56
 185 0014 4B79     		ldrb	r3, [r1, #5]	@ zero_extendqisi2
 186 0016 4371     		strb	r3, [r0, #5]
 524:Middlewares/ST/STM32_USB_Host_Library/Core/Src/usbh_ctlreq.c ****   if_descriptor->bInterfaceSubClass = *(uint8_t *)(buf + 6);
 187              		.loc 1 524 3 is_stmt 1 view .LVU57
 188              		.loc 1 524 37 is_stmt 0 view .LVU58
 189 0018 8B79     		ldrb	r3, [r1, #6]	@ zero_extendqisi2
 190 001a 8371     		strb	r3, [r0, #6]
 525:Middlewares/ST/STM32_USB_Host_Library/Core/Src/usbh_ctlreq.c ****   if_descriptor->bInterfaceProtocol = *(uint8_t *)(buf + 7);
 191              		.loc 1 525 3 is_stmt 1 view .LVU59
 192              		.loc 1 525 37 is_stmt 0 view .LVU60
 193 001c CB79     		ldrb	r3, [r1, #7]	@ zero_extendqisi2
 194 001e C371     		strb	r3, [r0, #7]
 526:Middlewares/ST/STM32_USB_Host_Library/Core/Src/usbh_ctlreq.c ****   if_descriptor->iInterface         = *(uint8_t *)(buf + 8);
 195              		.loc 1 526 3 is_stmt 1 view .LVU61
 196              		.loc 1 526 37 is_stmt 0 view .LVU62
 197 0020 0B7A     		ldrb	r3, [r1, #8]	@ zero_extendqisi2
 198 0022 0372     		strb	r3, [r0, #8]
 527:Middlewares/ST/STM32_USB_Host_Library/Core/Src/usbh_ctlreq.c **** }
 199              		.loc 1 527 1 view .LVU63
 200 0024 7047     		bx	lr
 201              		.cfi_endproc
 202              	.LFE253:
 204              		.section	.text.USBH_ParseEPDesc,"ax",%progbits
 205              		.align	1
 206              		.syntax unified
 207              		.thumb
 208              		.thumb_func
 209              		.fpu fpv4-sp-d16
 211              	USBH_ParseEPDesc:
 212              	.LVL3:
 213              	.LFB254:
 528:Middlewares/ST/STM32_USB_Host_Library/Core/Src/usbh_ctlreq.c **** 
 529:Middlewares/ST/STM32_USB_Host_Library/Core/Src/usbh_ctlreq.c **** 
 530:Middlewares/ST/STM32_USB_Host_Library/Core/Src/usbh_ctlreq.c **** /**
 531:Middlewares/ST/STM32_USB_Host_Library/Core/Src/usbh_ctlreq.c ****   * @brief  USBH_ParseEPDesc
 532:Middlewares/ST/STM32_USB_Host_Library/Core/Src/usbh_ctlreq.c ****   *         This function Parses the endpoint descriptor
 533:Middlewares/ST/STM32_USB_Host_Library/Core/Src/usbh_ctlreq.c ****   * @param  phost: USB Host handler
ARM GAS  /tmp/ccapfRJn.s 			page 14


 534:Middlewares/ST/STM32_USB_Host_Library/Core/Src/usbh_ctlreq.c ****   * @param  ep_descriptor: Endpoint descriptor destination address
 535:Middlewares/ST/STM32_USB_Host_Library/Core/Src/usbh_ctlreq.c ****   * @param  buf: Buffer where the parsed descriptor stored
 536:Middlewares/ST/STM32_USB_Host_Library/Core/Src/usbh_ctlreq.c ****   * @retval USBH Status
 537:Middlewares/ST/STM32_USB_Host_Library/Core/Src/usbh_ctlreq.c ****   */
 538:Middlewares/ST/STM32_USB_Host_Library/Core/Src/usbh_ctlreq.c **** static USBH_StatusTypeDef  USBH_ParseEPDesc(USBH_HandleTypeDef *phost, USBH_EpDescTypeDef  *ep_desc
 539:Middlewares/ST/STM32_USB_Host_Library/Core/Src/usbh_ctlreq.c ****                                             uint8_t *buf)
 540:Middlewares/ST/STM32_USB_Host_Library/Core/Src/usbh_ctlreq.c **** {
 214              		.loc 1 540 1 is_stmt 1 view -0
 215              		.cfi_startproc
 216              		@ args = 0, pretend = 0, frame = 0
 217              		@ frame_needed = 0, uses_anonymous_args = 0
 218              		@ link register save eliminated.
 219              		.loc 1 540 1 is_stmt 0 view .LVU65
 220 0000 70B4     		push	{r4, r5, r6}
 221              	.LCFI2:
 222              		.cfi_def_cfa_offset 12
 223              		.cfi_offset 4, -12
 224              		.cfi_offset 5, -8
 225              		.cfi_offset 6, -4
 226 0002 0646     		mov	r6, r0
 541:Middlewares/ST/STM32_USB_Host_Library/Core/Src/usbh_ctlreq.c ****   USBH_StatusTypeDef status = USBH_OK;
 227              		.loc 1 541 3 is_stmt 1 view .LVU66
 228              	.LVL4:
 542:Middlewares/ST/STM32_USB_Host_Library/Core/Src/usbh_ctlreq.c ****   ep_descriptor->bLength          = *(uint8_t *)(buf + 0);
 229              		.loc 1 542 3 view .LVU67
 230              		.loc 1 542 37 is_stmt 0 view .LVU68
 231 0004 1378     		ldrb	r3, [r2]	@ zero_extendqisi2
 232              		.loc 1 542 35 view .LVU69
 233 0006 0B70     		strb	r3, [r1]
 543:Middlewares/ST/STM32_USB_Host_Library/Core/Src/usbh_ctlreq.c ****   ep_descriptor->bDescriptorType  = *(uint8_t *)(buf + 1);
 234              		.loc 1 543 3 is_stmt 1 view .LVU70
 235              		.loc 1 543 35 is_stmt 0 view .LVU71
 236 0008 5378     		ldrb	r3, [r2, #1]	@ zero_extendqisi2
 237 000a 4B70     		strb	r3, [r1, #1]
 544:Middlewares/ST/STM32_USB_Host_Library/Core/Src/usbh_ctlreq.c ****   ep_descriptor->bEndpointAddress = *(uint8_t *)(buf + 2);
 238              		.loc 1 544 3 is_stmt 1 view .LVU72
 239              		.loc 1 544 35 is_stmt 0 view .LVU73
 240 000c 9378     		ldrb	r3, [r2, #2]	@ zero_extendqisi2
 241 000e 8B70     		strb	r3, [r1, #2]
 545:Middlewares/ST/STM32_USB_Host_Library/Core/Src/usbh_ctlreq.c ****   ep_descriptor->bmAttributes     = *(uint8_t *)(buf + 3);
 242              		.loc 1 545 3 is_stmt 1 view .LVU74
 243              		.loc 1 545 35 is_stmt 0 view .LVU75
 244 0010 D478     		ldrb	r4, [r2, #3]	@ zero_extendqisi2
 245 0012 CC70     		strb	r4, [r1, #3]
 546:Middlewares/ST/STM32_USB_Host_Library/Core/Src/usbh_ctlreq.c ****   ep_descriptor->wMaxPacketSize   = LE16(buf + 4);
 246              		.loc 1 546 3 is_stmt 1 view .LVU76
 247              		.loc 1 546 37 is_stmt 0 view .LVU77
 248 0014 1379     		ldrb	r3, [r2, #4]	@ zero_extendqisi2
 249 0016 5079     		ldrb	r0, [r2, #5]	@ zero_extendqisi2
 250              	.LVL5:
 251              		.loc 1 546 37 view .LVU78
 252 0018 43EA0023 		orr	r3, r3, r0, lsl #8
 253              		.loc 1 546 35 view .LVU79
 254 001c 8B80     		strh	r3, [r1, #4]	@ movhi
 547:Middlewares/ST/STM32_USB_Host_Library/Core/Src/usbh_ctlreq.c ****   ep_descriptor->bInterval        = *(uint8_t *)(buf + 6);
 255              		.loc 1 547 3 is_stmt 1 view .LVU80
 256              		.loc 1 547 35 is_stmt 0 view .LVU81
ARM GAS  /tmp/ccapfRJn.s 			page 15


 257 001e 9579     		ldrb	r5, [r2, #6]	@ zero_extendqisi2
 258 0020 8D71     		strb	r5, [r1, #6]
 548:Middlewares/ST/STM32_USB_Host_Library/Core/Src/usbh_ctlreq.c **** 
 549:Middlewares/ST/STM32_USB_Host_Library/Core/Src/usbh_ctlreq.c ****   /* Make sure that wMaxPacketSize is different from 0 */
 550:Middlewares/ST/STM32_USB_Host_Library/Core/Src/usbh_ctlreq.c ****   if (ep_descriptor->wMaxPacketSize == 0x00U)
 259              		.loc 1 550 3 is_stmt 1 view .LVU82
 260              		.loc 1 550 6 is_stmt 0 view .LVU83
 261 0022 EBB1     		cbz	r3, .L15
 551:Middlewares/ST/STM32_USB_Host_Library/Core/Src/usbh_ctlreq.c ****   {
 552:Middlewares/ST/STM32_USB_Host_Library/Core/Src/usbh_ctlreq.c ****     status = USBH_NOT_SUPPORTED;
 553:Middlewares/ST/STM32_USB_Host_Library/Core/Src/usbh_ctlreq.c ****   }
 554:Middlewares/ST/STM32_USB_Host_Library/Core/Src/usbh_ctlreq.c ****   else if (USBH_MAX_EP_PACKET_SIZE < (uint16_t)USBH_MAX_DATA_BUFFER)
 262              		.loc 1 554 8 is_stmt 1 view .LVU84
 555:Middlewares/ST/STM32_USB_Host_Library/Core/Src/usbh_ctlreq.c ****   {
 556:Middlewares/ST/STM32_USB_Host_Library/Core/Src/usbh_ctlreq.c ****     /* Make sure that maximum packet size (bits 0..10) does not exceed the max endpoint packet size
 557:Middlewares/ST/STM32_USB_Host_Library/Core/Src/usbh_ctlreq.c ****     ep_descriptor->wMaxPacketSize &= ~0x7FFU;
 558:Middlewares/ST/STM32_USB_Host_Library/Core/Src/usbh_ctlreq.c ****     ep_descriptor->wMaxPacketSize |=  MIN((uint16_t)(LE16(buf + 4) & 0x7FFU), (uint16_t)USBH_MAX_EP
 559:Middlewares/ST/STM32_USB_Host_Library/Core/Src/usbh_ctlreq.c **** 
 560:Middlewares/ST/STM32_USB_Host_Library/Core/Src/usbh_ctlreq.c ****   }
 561:Middlewares/ST/STM32_USB_Host_Library/Core/Src/usbh_ctlreq.c ****   else if ((uint16_t)USBH_MAX_DATA_BUFFER < USBH_MAX_EP_PACKET_SIZE)
 263              		.loc 1 561 8 view .LVU85
 562:Middlewares/ST/STM32_USB_Host_Library/Core/Src/usbh_ctlreq.c ****   {
 563:Middlewares/ST/STM32_USB_Host_Library/Core/Src/usbh_ctlreq.c ****     /* Make sure that maximum packet size (bits 0..10) does not exceed the total buffer length */
 564:Middlewares/ST/STM32_USB_Host_Library/Core/Src/usbh_ctlreq.c ****     ep_descriptor->wMaxPacketSize &= ~0x7FFU;
 264              		.loc 1 564 5 view .LVU86
 265              		.loc 1 564 35 is_stmt 0 view .LVU87
 266 0024 03F47843 		and	r3, r3, #63488
 267 0028 8B80     		strh	r3, [r1, #4]	@ movhi
 565:Middlewares/ST/STM32_USB_Host_Library/Core/Src/usbh_ctlreq.c ****     ep_descriptor->wMaxPacketSize |= MIN((uint16_t)(LE16(buf + 4) & 0x7FFU), (uint16_t)USBH_MAX_DAT
 268              		.loc 1 565 5 is_stmt 1 view .LVU88
 269              		.loc 1 565 35 is_stmt 0 view .LVU89
 270 002a 1BB2     		sxth	r3, r3
 271              		.loc 1 565 38 view .LVU90
 272 002c 1079     		ldrb	r0, [r2, #4]	@ zero_extendqisi2
 273 002e 5279     		ldrb	r2, [r2, #5]	@ zero_extendqisi2
 274              	.LVL6:
 275              		.loc 1 565 38 view .LVU91
 276 0030 40EA0222 		orr	r2, r0, r2, lsl #8
 277              		.loc 1 565 35 view .LVU92
 278 0034 12F4C06F 		tst	r2, #1536
 279 0038 02D1     		bne	.L16
 280              		.loc 1 565 35 discriminator 1 view .LVU93
 281 003a C2F30A02 		ubfx	r2, r2, #0, #11
 282 003e 01E0     		b	.L10
 283              	.L16:
 284              		.loc 1 565 35 view .LVU94
 285 0040 4FF40072 		mov	r2, #512
 286              	.L10:
 287              		.loc 1 565 35 discriminator 4 view .LVU95
 288 0044 1343     		orrs	r3, r3, r2
 289 0046 8B80     		strh	r3, [r1, #4]	@ movhi
 541:Middlewares/ST/STM32_USB_Host_Library/Core/Src/usbh_ctlreq.c ****   ep_descriptor->bLength          = *(uint8_t *)(buf + 0);
 290              		.loc 1 541 22 discriminator 4 view .LVU96
 291 0048 0020     		movs	r0, #0
 292              	.L9:
 293              	.LVL7:
 566:Middlewares/ST/STM32_USB_Host_Library/Core/Src/usbh_ctlreq.c ****   }
ARM GAS  /tmp/ccapfRJn.s 			page 16


 567:Middlewares/ST/STM32_USB_Host_Library/Core/Src/usbh_ctlreq.c ****   else
 568:Middlewares/ST/STM32_USB_Host_Library/Core/Src/usbh_ctlreq.c ****   {
 569:Middlewares/ST/STM32_USB_Host_Library/Core/Src/usbh_ctlreq.c ****     /* ... */
 570:Middlewares/ST/STM32_USB_Host_Library/Core/Src/usbh_ctlreq.c ****   }
 294              		.loc 1 570 3 is_stmt 1 view .LVU97
 571:Middlewares/ST/STM32_USB_Host_Library/Core/Src/usbh_ctlreq.c **** 
 572:Middlewares/ST/STM32_USB_Host_Library/Core/Src/usbh_ctlreq.c ****   /* For high-speed interrupt/isochronous endpoints, bInterval can vary from 1 to 16 */
 573:Middlewares/ST/STM32_USB_Host_Library/Core/Src/usbh_ctlreq.c ****   if (phost->device.speed == (uint8_t)USBH_SPEED_HIGH)
 295              		.loc 1 573 3 view .LVU98
 296              		.loc 1 573 20 is_stmt 0 view .LVU99
 297 004a 96F81D33 		ldrb	r3, [r6, #797]	@ zero_extendqisi2
 298              		.loc 1 573 6 view .LVU100
 299 004e 7BB9     		cbnz	r3, .L11
 574:Middlewares/ST/STM32_USB_Host_Library/Core/Src/usbh_ctlreq.c ****   {
 575:Middlewares/ST/STM32_USB_Host_Library/Core/Src/usbh_ctlreq.c ****     if (((ep_descriptor->bmAttributes & EP_TYPE_MSK) == EP_TYPE_ISOC) ||
 300              		.loc 1 575 5 is_stmt 1 view .LVU101
 301 0050 04F00304 		and	r4, r4, #3
 302              		.loc 1 575 8 is_stmt 0 view .LVU102
 303 0054 012C     		cmp	r4, #1
 304 0056 05D0     		beq	.L12
 305              		.loc 1 575 71 discriminator 1 view .LVU103
 306 0058 032C     		cmp	r4, #3
 307 005a 03D0     		beq	.L12
 308              	.LVL8:
 309              	.L13:
 576:Middlewares/ST/STM32_USB_Host_Library/Core/Src/usbh_ctlreq.c ****         ((ep_descriptor->bmAttributes & EP_TYPE_MSK) == EP_TYPE_INTR))
 577:Middlewares/ST/STM32_USB_Host_Library/Core/Src/usbh_ctlreq.c ****     {
 578:Middlewares/ST/STM32_USB_Host_Library/Core/Src/usbh_ctlreq.c ****       if ((ep_descriptor->bInterval == 0U) || (ep_descriptor->bInterval > 0x10U))
 579:Middlewares/ST/STM32_USB_Host_Library/Core/Src/usbh_ctlreq.c ****       {
 580:Middlewares/ST/STM32_USB_Host_Library/Core/Src/usbh_ctlreq.c ****         status = USBH_NOT_SUPPORTED;
 581:Middlewares/ST/STM32_USB_Host_Library/Core/Src/usbh_ctlreq.c ****       }
 582:Middlewares/ST/STM32_USB_Host_Library/Core/Src/usbh_ctlreq.c ****     }
 583:Middlewares/ST/STM32_USB_Host_Library/Core/Src/usbh_ctlreq.c ****   }
 584:Middlewares/ST/STM32_USB_Host_Library/Core/Src/usbh_ctlreq.c ****   else
 585:Middlewares/ST/STM32_USB_Host_Library/Core/Src/usbh_ctlreq.c ****   {
 586:Middlewares/ST/STM32_USB_Host_Library/Core/Src/usbh_ctlreq.c ****     /* For full-speed isochronous endpoints, the value of bInterval must be in the range from 1 to 
 587:Middlewares/ST/STM32_USB_Host_Library/Core/Src/usbh_ctlreq.c ****     if ((ep_descriptor->bmAttributes & EP_TYPE_MSK) == EP_TYPE_ISOC)
 588:Middlewares/ST/STM32_USB_Host_Library/Core/Src/usbh_ctlreq.c ****     {
 589:Middlewares/ST/STM32_USB_Host_Library/Core/Src/usbh_ctlreq.c ****       if ((ep_descriptor->bInterval == 0U) || (ep_descriptor->bInterval > 0x10U))
 590:Middlewares/ST/STM32_USB_Host_Library/Core/Src/usbh_ctlreq.c ****       {
 591:Middlewares/ST/STM32_USB_Host_Library/Core/Src/usbh_ctlreq.c ****         status = USBH_NOT_SUPPORTED;
 592:Middlewares/ST/STM32_USB_Host_Library/Core/Src/usbh_ctlreq.c ****       }
 593:Middlewares/ST/STM32_USB_Host_Library/Core/Src/usbh_ctlreq.c ****     }
 594:Middlewares/ST/STM32_USB_Host_Library/Core/Src/usbh_ctlreq.c ****     /* For full-/low-speed interrupt endpoints, the value of bInterval may be from 1 to 255.*/
 595:Middlewares/ST/STM32_USB_Host_Library/Core/Src/usbh_ctlreq.c ****     else if ((ep_descriptor->bmAttributes & EP_TYPE_MSK) == EP_TYPE_INTR)
 596:Middlewares/ST/STM32_USB_Host_Library/Core/Src/usbh_ctlreq.c ****     {
 597:Middlewares/ST/STM32_USB_Host_Library/Core/Src/usbh_ctlreq.c ****       if (ep_descriptor->bInterval == 0U)
 598:Middlewares/ST/STM32_USB_Host_Library/Core/Src/usbh_ctlreq.c ****       {
 599:Middlewares/ST/STM32_USB_Host_Library/Core/Src/usbh_ctlreq.c ****         status = USBH_NOT_SUPPORTED;
 600:Middlewares/ST/STM32_USB_Host_Library/Core/Src/usbh_ctlreq.c ****       }
 601:Middlewares/ST/STM32_USB_Host_Library/Core/Src/usbh_ctlreq.c ****     }
 602:Middlewares/ST/STM32_USB_Host_Library/Core/Src/usbh_ctlreq.c ****     else
 603:Middlewares/ST/STM32_USB_Host_Library/Core/Src/usbh_ctlreq.c ****     {
 604:Middlewares/ST/STM32_USB_Host_Library/Core/Src/usbh_ctlreq.c ****       /* ... */
 605:Middlewares/ST/STM32_USB_Host_Library/Core/Src/usbh_ctlreq.c ****     }
 310              		.loc 1 605 5 is_stmt 1 view .LVU104
 606:Middlewares/ST/STM32_USB_Host_Library/Core/Src/usbh_ctlreq.c ****   }
ARM GAS  /tmp/ccapfRJn.s 			page 17


 607:Middlewares/ST/STM32_USB_Host_Library/Core/Src/usbh_ctlreq.c **** 
 608:Middlewares/ST/STM32_USB_Host_Library/Core/Src/usbh_ctlreq.c ****   return status;
 311              		.loc 1 608 3 view .LVU105
 609:Middlewares/ST/STM32_USB_Host_Library/Core/Src/usbh_ctlreq.c **** }
 312              		.loc 1 609 1 is_stmt 0 view .LVU106
 313 005c 70BC     		pop	{r4, r5, r6}
 314              	.LCFI3:
 315              		.cfi_remember_state
 316              		.cfi_restore 6
 317              		.cfi_restore 5
 318              		.cfi_restore 4
 319              		.cfi_def_cfa_offset 0
 320              	.LVL9:
 321              		.loc 1 609 1 view .LVU107
 322 005e 7047     		bx	lr
 323              	.LVL10:
 324              	.L15:
 325              	.LCFI4:
 326              		.cfi_restore_state
 552:Middlewares/ST/STM32_USB_Host_Library/Core/Src/usbh_ctlreq.c ****   }
 327              		.loc 1 552 12 view .LVU108
 328 0060 0320     		movs	r0, #3
 329 0062 F2E7     		b	.L9
 330              	.LVL11:
 331              	.L12:
 578:Middlewares/ST/STM32_USB_Host_Library/Core/Src/usbh_ctlreq.c ****       {
 332              		.loc 1 578 7 is_stmt 1 view .LVU109
 578:Middlewares/ST/STM32_USB_Host_Library/Core/Src/usbh_ctlreq.c ****       {
 333              		.loc 1 578 44 is_stmt 0 view .LVU110
 334 0064 013D     		subs	r5, r5, #1
 335 0066 EDB2     		uxtb	r5, r5
 578:Middlewares/ST/STM32_USB_Host_Library/Core/Src/usbh_ctlreq.c ****       {
 336              		.loc 1 578 10 view .LVU111
 337 0068 0F2D     		cmp	r5, #15
 338 006a F7D9     		bls	.L13
 580:Middlewares/ST/STM32_USB_Host_Library/Core/Src/usbh_ctlreq.c ****       }
 339              		.loc 1 580 16 view .LVU112
 340 006c 0320     		movs	r0, #3
 341              	.LVL12:
 580:Middlewares/ST/STM32_USB_Host_Library/Core/Src/usbh_ctlreq.c ****       }
 342              		.loc 1 580 16 view .LVU113
 343 006e F5E7     		b	.L13
 344              	.LVL13:
 345              	.L11:
 587:Middlewares/ST/STM32_USB_Host_Library/Core/Src/usbh_ctlreq.c ****     {
 346              		.loc 1 587 5 is_stmt 1 view .LVU114
 347 0070 04F00304 		and	r4, r4, #3
 587:Middlewares/ST/STM32_USB_Host_Library/Core/Src/usbh_ctlreq.c ****     {
 348              		.loc 1 587 8 is_stmt 0 view .LVU115
 349 0074 012C     		cmp	r4, #1
 350 0076 05D0     		beq	.L21
 595:Middlewares/ST/STM32_USB_Host_Library/Core/Src/usbh_ctlreq.c ****     {
 351              		.loc 1 595 10 is_stmt 1 view .LVU116
 595:Middlewares/ST/STM32_USB_Host_Library/Core/Src/usbh_ctlreq.c ****     {
 352              		.loc 1 595 13 is_stmt 0 view .LVU117
 353 0078 032C     		cmp	r4, #3
 354 007a EFD1     		bne	.L13
ARM GAS  /tmp/ccapfRJn.s 			page 18


 597:Middlewares/ST/STM32_USB_Host_Library/Core/Src/usbh_ctlreq.c ****       {
 355              		.loc 1 597 7 is_stmt 1 view .LVU118
 597:Middlewares/ST/STM32_USB_Host_Library/Core/Src/usbh_ctlreq.c ****       {
 356              		.loc 1 597 10 is_stmt 0 view .LVU119
 357 007c 002D     		cmp	r5, #0
 358 007e EDD1     		bne	.L13
 599:Middlewares/ST/STM32_USB_Host_Library/Core/Src/usbh_ctlreq.c ****       }
 359              		.loc 1 599 16 view .LVU120
 360 0080 2046     		mov	r0, r4
 361              	.LVL14:
 599:Middlewares/ST/STM32_USB_Host_Library/Core/Src/usbh_ctlreq.c ****       }
 362              		.loc 1 599 16 view .LVU121
 363 0082 EBE7     		b	.L13
 364              	.LVL15:
 365              	.L21:
 589:Middlewares/ST/STM32_USB_Host_Library/Core/Src/usbh_ctlreq.c ****       {
 366              		.loc 1 589 7 is_stmt 1 view .LVU122
 589:Middlewares/ST/STM32_USB_Host_Library/Core/Src/usbh_ctlreq.c ****       {
 367              		.loc 1 589 44 is_stmt 0 view .LVU123
 368 0084 013D     		subs	r5, r5, #1
 369 0086 EDB2     		uxtb	r5, r5
 589:Middlewares/ST/STM32_USB_Host_Library/Core/Src/usbh_ctlreq.c ****       {
 370              		.loc 1 589 10 view .LVU124
 371 0088 0F2D     		cmp	r5, #15
 372 008a E7D9     		bls	.L13
 591:Middlewares/ST/STM32_USB_Host_Library/Core/Src/usbh_ctlreq.c ****       }
 373              		.loc 1 591 16 view .LVU125
 374 008c 0320     		movs	r0, #3
 375              	.LVL16:
 591:Middlewares/ST/STM32_USB_Host_Library/Core/Src/usbh_ctlreq.c ****       }
 376              		.loc 1 591 16 view .LVU126
 377 008e E5E7     		b	.L13
 378              		.cfi_endproc
 379              	.LFE254:
 381              		.section	.text.USBH_ParseStringDesc,"ax",%progbits
 382              		.align	1
 383              		.syntax unified
 384              		.thumb
 385              		.thumb_func
 386              		.fpu fpv4-sp-d16
 388              	USBH_ParseStringDesc:
 389              	.LVL17:
 390              	.LFB255:
 610:Middlewares/ST/STM32_USB_Host_Library/Core/Src/usbh_ctlreq.c **** 
 611:Middlewares/ST/STM32_USB_Host_Library/Core/Src/usbh_ctlreq.c **** 
 612:Middlewares/ST/STM32_USB_Host_Library/Core/Src/usbh_ctlreq.c **** /**
 613:Middlewares/ST/STM32_USB_Host_Library/Core/Src/usbh_ctlreq.c ****   * @brief  USBH_ParseStringDesc
 614:Middlewares/ST/STM32_USB_Host_Library/Core/Src/usbh_ctlreq.c ****   *         This function Parses the string descriptor
 615:Middlewares/ST/STM32_USB_Host_Library/Core/Src/usbh_ctlreq.c ****   * @param  psrc: Source pointer containing the descriptor data
 616:Middlewares/ST/STM32_USB_Host_Library/Core/Src/usbh_ctlreq.c ****   * @param  pdest: Destination address pointer
 617:Middlewares/ST/STM32_USB_Host_Library/Core/Src/usbh_ctlreq.c ****   * @param  length: Length of the descriptor
 618:Middlewares/ST/STM32_USB_Host_Library/Core/Src/usbh_ctlreq.c ****   * @retval None
 619:Middlewares/ST/STM32_USB_Host_Library/Core/Src/usbh_ctlreq.c ****   */
 620:Middlewares/ST/STM32_USB_Host_Library/Core/Src/usbh_ctlreq.c **** static void USBH_ParseStringDesc(uint8_t *psrc, uint8_t *pdest, uint16_t length)
 621:Middlewares/ST/STM32_USB_Host_Library/Core/Src/usbh_ctlreq.c **** {
 391              		.loc 1 621 1 is_stmt 1 view -0
 392              		.cfi_startproc
ARM GAS  /tmp/ccapfRJn.s 			page 19


 393              		@ args = 0, pretend = 0, frame = 0
 394              		@ frame_needed = 0, uses_anonymous_args = 0
 395              		@ link register save eliminated.
 622:Middlewares/ST/STM32_USB_Host_Library/Core/Src/usbh_ctlreq.c ****   uint16_t strlength;
 396              		.loc 1 622 3 view .LVU128
 623:Middlewares/ST/STM32_USB_Host_Library/Core/Src/usbh_ctlreq.c ****   uint16_t idx;
 397              		.loc 1 623 3 view .LVU129
 624:Middlewares/ST/STM32_USB_Host_Library/Core/Src/usbh_ctlreq.c **** 
 625:Middlewares/ST/STM32_USB_Host_Library/Core/Src/usbh_ctlreq.c ****   /* The UNICODE string descriptor is not NULL-terminated. The string length is
 626:Middlewares/ST/STM32_USB_Host_Library/Core/Src/usbh_ctlreq.c ****   computed by subtracting two from the value of the first byte of the descriptor.
 627:Middlewares/ST/STM32_USB_Host_Library/Core/Src/usbh_ctlreq.c ****   */
 628:Middlewares/ST/STM32_USB_Host_Library/Core/Src/usbh_ctlreq.c **** 
 629:Middlewares/ST/STM32_USB_Host_Library/Core/Src/usbh_ctlreq.c ****   /* Check which is lower size, the Size of string or the length of bytes read
 630:Middlewares/ST/STM32_USB_Host_Library/Core/Src/usbh_ctlreq.c ****   from the device */
 631:Middlewares/ST/STM32_USB_Host_Library/Core/Src/usbh_ctlreq.c **** 
 632:Middlewares/ST/STM32_USB_Host_Library/Core/Src/usbh_ctlreq.c ****   if (psrc[1] == USB_DESC_TYPE_STRING)
 398              		.loc 1 632 3 view .LVU130
 399              		.loc 1 632 11 is_stmt 0 view .LVU131
 400 0000 4378     		ldrb	r3, [r0, #1]	@ zero_extendqisi2
 401              		.loc 1 632 6 view .LVU132
 402 0002 032B     		cmp	r3, #3
 403 0004 00D0     		beq	.L32
 404 0006 7047     		bx	lr
 405              	.L32:
 633:Middlewares/ST/STM32_USB_Host_Library/Core/Src/usbh_ctlreq.c ****   {
 634:Middlewares/ST/STM32_USB_Host_Library/Core/Src/usbh_ctlreq.c ****     /* Make sure the Descriptor is String Type */
 635:Middlewares/ST/STM32_USB_Host_Library/Core/Src/usbh_ctlreq.c **** 
 636:Middlewares/ST/STM32_USB_Host_Library/Core/Src/usbh_ctlreq.c ****     /* psrc[0] contains Size of Descriptor, subtract 2 to get the length of string */
 637:Middlewares/ST/STM32_USB_Host_Library/Core/Src/usbh_ctlreq.c ****     strlength = ((((uint16_t)psrc[0] - 2U) <= length) ? ((uint16_t)psrc[0] - 2U) : length);
 406              		.loc 1 637 5 is_stmt 1 view .LVU133
 407              		.loc 1 637 34 is_stmt 0 view .LVU134
 408 0008 0378     		ldrb	r3, [r0]	@ zero_extendqisi2
 409              		.loc 1 637 38 view .LVU135
 410 000a 023B     		subs	r3, r3, #2
 411              		.loc 1 637 82 view .LVU136
 412 000c 9A42     		cmp	r2, r3
 413 000e 28BF     		it	cs
 414 0010 1A46     		movcs	r2, r3
 415              	.LVL18:
 416              		.loc 1 637 15 view .LVU137
 417 0012 92B2     		uxth	r2, r2
 418              	.LVL19:
 638:Middlewares/ST/STM32_USB_Host_Library/Core/Src/usbh_ctlreq.c **** 
 639:Middlewares/ST/STM32_USB_Host_Library/Core/Src/usbh_ctlreq.c ****     /* Adjust the offset ignoring the String Len and Descriptor type */
 640:Middlewares/ST/STM32_USB_Host_Library/Core/Src/usbh_ctlreq.c ****     psrc += 2U;
 419              		.loc 1 640 5 is_stmt 1 view .LVU138
 641:Middlewares/ST/STM32_USB_Host_Library/Core/Src/usbh_ctlreq.c **** 
 642:Middlewares/ST/STM32_USB_Host_Library/Core/Src/usbh_ctlreq.c ****     for (idx = 0U; idx < strlength; idx += 2U)
 420              		.loc 1 642 5 view .LVU139
 421              		.loc 1 642 14 is_stmt 0 view .LVU140
 422 0014 0023     		movs	r3, #0
 423              	.LVL20:
 424              		.loc 1 642 20 is_stmt 1 view .LVU141
 425              		.loc 1 642 5 is_stmt 0 view .LVU142
 426 0016 9342     		cmp	r3, r2
 427 0018 0DD2     		bcs	.L33
 621:Middlewares/ST/STM32_USB_Host_Library/Core/Src/usbh_ctlreq.c ****   uint16_t strlength;
ARM GAS  /tmp/ccapfRJn.s 			page 20


 428              		.loc 1 621 1 view .LVU143
 429 001a 10B4     		push	{r4}
 430              	.LCFI5:
 431              		.cfi_def_cfa_offset 4
 432              		.cfi_offset 4, -4
 433              	.L25:
 643:Middlewares/ST/STM32_USB_Host_Library/Core/Src/usbh_ctlreq.c ****     {
 644:Middlewares/ST/STM32_USB_Host_Library/Core/Src/usbh_ctlreq.c ****       /* Copy Only the string and ignore the UNICODE ID, hence add the src */
 645:Middlewares/ST/STM32_USB_Host_Library/Core/Src/usbh_ctlreq.c ****       *pdest =  psrc[idx];
 434              		.loc 1 645 7 is_stmt 1 discriminator 3 view .LVU144
 435              		.loc 1 645 21 is_stmt 0 discriminator 3 view .LVU145
 436 001c C418     		adds	r4, r0, r3
 437 001e A478     		ldrb	r4, [r4, #2]	@ zero_extendqisi2
 438              		.loc 1 645 14 discriminator 3 view .LVU146
 439 0020 01F8014B 		strb	r4, [r1], #1
 440              	.LVL21:
 646:Middlewares/ST/STM32_USB_Host_Library/Core/Src/usbh_ctlreq.c ****       pdest++;
 441              		.loc 1 646 7 is_stmt 1 discriminator 3 view .LVU147
 642:Middlewares/ST/STM32_USB_Host_Library/Core/Src/usbh_ctlreq.c ****     {
 442              		.loc 1 642 37 discriminator 3 view .LVU148
 642:Middlewares/ST/STM32_USB_Host_Library/Core/Src/usbh_ctlreq.c ****     {
 443              		.loc 1 642 41 is_stmt 0 discriminator 3 view .LVU149
 444 0024 0233     		adds	r3, r3, #2
 445              	.LVL22:
 642:Middlewares/ST/STM32_USB_Host_Library/Core/Src/usbh_ctlreq.c ****     {
 446              		.loc 1 642 41 discriminator 3 view .LVU150
 447 0026 9BB2     		uxth	r3, r3
 448              	.LVL23:
 642:Middlewares/ST/STM32_USB_Host_Library/Core/Src/usbh_ctlreq.c ****     {
 449              		.loc 1 642 20 is_stmt 1 discriminator 3 view .LVU151
 642:Middlewares/ST/STM32_USB_Host_Library/Core/Src/usbh_ctlreq.c ****     {
 450              		.loc 1 642 5 is_stmt 0 discriminator 3 view .LVU152
 451 0028 9342     		cmp	r3, r2
 452 002a F7D3     		bcc	.L25
 647:Middlewares/ST/STM32_USB_Host_Library/Core/Src/usbh_ctlreq.c ****     }
 648:Middlewares/ST/STM32_USB_Host_Library/Core/Src/usbh_ctlreq.c ****     *pdest = 0U; /* mark end of string */
 453              		.loc 1 648 5 is_stmt 1 view .LVU153
 454              		.loc 1 648 12 is_stmt 0 view .LVU154
 455 002c 0023     		movs	r3, #0
 456              	.LVL24:
 457              		.loc 1 648 12 view .LVU155
 458 002e 0B70     		strb	r3, [r1]
 649:Middlewares/ST/STM32_USB_Host_Library/Core/Src/usbh_ctlreq.c ****   }
 650:Middlewares/ST/STM32_USB_Host_Library/Core/Src/usbh_ctlreq.c **** }
 459              		.loc 1 650 1 view .LVU156
 460 0030 5DF8044B 		ldr	r4, [sp], #4
 461              	.LCFI6:
 462              		.cfi_restore 4
 463              		.cfi_def_cfa_offset 0
 464 0034 7047     		bx	lr
 465              	.LVL25:
 466              	.L33:
 648:Middlewares/ST/STM32_USB_Host_Library/Core/Src/usbh_ctlreq.c ****   }
 467              		.loc 1 648 5 is_stmt 1 view .LVU157
 648:Middlewares/ST/STM32_USB_Host_Library/Core/Src/usbh_ctlreq.c ****   }
 468              		.loc 1 648 12 is_stmt 0 view .LVU158
 469 0036 0023     		movs	r3, #0
ARM GAS  /tmp/ccapfRJn.s 			page 21


 648:Middlewares/ST/STM32_USB_Host_Library/Core/Src/usbh_ctlreq.c ****   }
 470              		.loc 1 648 12 view .LVU159
 471 0038 0B70     		strb	r3, [r1]
 472 003a 7047     		bx	lr
 473              		.cfi_endproc
 474              	.LFE255:
 476              		.section	.text.USBH_HandleControl,"ax",%progbits
 477              		.align	1
 478              		.syntax unified
 479              		.thumb
 480              		.thumb_func
 481              		.fpu fpv4-sp-d16
 483              	USBH_HandleControl:
 484              	.LVL26:
 485              	.LFB258:
 651:Middlewares/ST/STM32_USB_Host_Library/Core/Src/usbh_ctlreq.c **** 
 652:Middlewares/ST/STM32_USB_Host_Library/Core/Src/usbh_ctlreq.c **** 
 653:Middlewares/ST/STM32_USB_Host_Library/Core/Src/usbh_ctlreq.c **** /**
 654:Middlewares/ST/STM32_USB_Host_Library/Core/Src/usbh_ctlreq.c ****   * @brief  USBH_GetNextDesc
 655:Middlewares/ST/STM32_USB_Host_Library/Core/Src/usbh_ctlreq.c ****   *         This function return the next descriptor header
 656:Middlewares/ST/STM32_USB_Host_Library/Core/Src/usbh_ctlreq.c ****   * @param  buf: Buffer where the cfg descriptor is available
 657:Middlewares/ST/STM32_USB_Host_Library/Core/Src/usbh_ctlreq.c ****   * @param  ptr: data pointer inside the cfg descriptor
 658:Middlewares/ST/STM32_USB_Host_Library/Core/Src/usbh_ctlreq.c ****   * @retval next header
 659:Middlewares/ST/STM32_USB_Host_Library/Core/Src/usbh_ctlreq.c ****   */
 660:Middlewares/ST/STM32_USB_Host_Library/Core/Src/usbh_ctlreq.c **** USBH_DescHeader_t  *USBH_GetNextDesc(uint8_t   *pbuf, uint16_t  *ptr)
 661:Middlewares/ST/STM32_USB_Host_Library/Core/Src/usbh_ctlreq.c **** {
 662:Middlewares/ST/STM32_USB_Host_Library/Core/Src/usbh_ctlreq.c ****   USBH_DescHeader_t  *pnext;
 663:Middlewares/ST/STM32_USB_Host_Library/Core/Src/usbh_ctlreq.c **** 
 664:Middlewares/ST/STM32_USB_Host_Library/Core/Src/usbh_ctlreq.c ****   *ptr += ((USBH_DescHeader_t *)(void *)pbuf)->bLength;
 665:Middlewares/ST/STM32_USB_Host_Library/Core/Src/usbh_ctlreq.c ****   pnext = (USBH_DescHeader_t *)(void *)((uint8_t *)(void *)pbuf + \
 666:Middlewares/ST/STM32_USB_Host_Library/Core/Src/usbh_ctlreq.c ****                                         ((USBH_DescHeader_t *)(void *)pbuf)->bLength);
 667:Middlewares/ST/STM32_USB_Host_Library/Core/Src/usbh_ctlreq.c **** 
 668:Middlewares/ST/STM32_USB_Host_Library/Core/Src/usbh_ctlreq.c ****   return (pnext);
 669:Middlewares/ST/STM32_USB_Host_Library/Core/Src/usbh_ctlreq.c **** }
 670:Middlewares/ST/STM32_USB_Host_Library/Core/Src/usbh_ctlreq.c **** 
 671:Middlewares/ST/STM32_USB_Host_Library/Core/Src/usbh_ctlreq.c **** 
 672:Middlewares/ST/STM32_USB_Host_Library/Core/Src/usbh_ctlreq.c **** /**
 673:Middlewares/ST/STM32_USB_Host_Library/Core/Src/usbh_ctlreq.c ****   * @brief  USBH_CtlReq
 674:Middlewares/ST/STM32_USB_Host_Library/Core/Src/usbh_ctlreq.c ****   *         USBH_CtlReq sends a control request and provide the status after
 675:Middlewares/ST/STM32_USB_Host_Library/Core/Src/usbh_ctlreq.c ****   *            completion of the request
 676:Middlewares/ST/STM32_USB_Host_Library/Core/Src/usbh_ctlreq.c ****   * @param  phost: Host Handle
 677:Middlewares/ST/STM32_USB_Host_Library/Core/Src/usbh_ctlreq.c ****   * @param  req: Setup Request Structure
 678:Middlewares/ST/STM32_USB_Host_Library/Core/Src/usbh_ctlreq.c ****   * @param  buff: data buffer address to store the response
 679:Middlewares/ST/STM32_USB_Host_Library/Core/Src/usbh_ctlreq.c ****   * @param  length: length of the response
 680:Middlewares/ST/STM32_USB_Host_Library/Core/Src/usbh_ctlreq.c ****   * @retval USBH Status
 681:Middlewares/ST/STM32_USB_Host_Library/Core/Src/usbh_ctlreq.c ****   */
 682:Middlewares/ST/STM32_USB_Host_Library/Core/Src/usbh_ctlreq.c **** USBH_StatusTypeDef USBH_CtlReq(USBH_HandleTypeDef *phost, uint8_t *buff,
 683:Middlewares/ST/STM32_USB_Host_Library/Core/Src/usbh_ctlreq.c ****                                uint16_t length)
 684:Middlewares/ST/STM32_USB_Host_Library/Core/Src/usbh_ctlreq.c **** {
 685:Middlewares/ST/STM32_USB_Host_Library/Core/Src/usbh_ctlreq.c ****   USBH_StatusTypeDef status;
 686:Middlewares/ST/STM32_USB_Host_Library/Core/Src/usbh_ctlreq.c ****   status = USBH_BUSY;
 687:Middlewares/ST/STM32_USB_Host_Library/Core/Src/usbh_ctlreq.c **** 
 688:Middlewares/ST/STM32_USB_Host_Library/Core/Src/usbh_ctlreq.c ****   switch (phost->RequestState)
 689:Middlewares/ST/STM32_USB_Host_Library/Core/Src/usbh_ctlreq.c ****   {
 690:Middlewares/ST/STM32_USB_Host_Library/Core/Src/usbh_ctlreq.c ****     case CMD_SEND:
 691:Middlewares/ST/STM32_USB_Host_Library/Core/Src/usbh_ctlreq.c ****       /* Start a SETUP transfer */
 692:Middlewares/ST/STM32_USB_Host_Library/Core/Src/usbh_ctlreq.c ****       phost->Control.buff = buff;
ARM GAS  /tmp/ccapfRJn.s 			page 22


 693:Middlewares/ST/STM32_USB_Host_Library/Core/Src/usbh_ctlreq.c ****       phost->Control.length = length;
 694:Middlewares/ST/STM32_USB_Host_Library/Core/Src/usbh_ctlreq.c ****       phost->Control.state = CTRL_SETUP;
 695:Middlewares/ST/STM32_USB_Host_Library/Core/Src/usbh_ctlreq.c ****       phost->RequestState = CMD_WAIT;
 696:Middlewares/ST/STM32_USB_Host_Library/Core/Src/usbh_ctlreq.c ****       status = USBH_BUSY;
 697:Middlewares/ST/STM32_USB_Host_Library/Core/Src/usbh_ctlreq.c **** 
 698:Middlewares/ST/STM32_USB_Host_Library/Core/Src/usbh_ctlreq.c **** #if (USBH_USE_OS == 1U)
 699:Middlewares/ST/STM32_USB_Host_Library/Core/Src/usbh_ctlreq.c ****       phost->os_msg = (uint32_t)USBH_CONTROL_EVENT;
 700:Middlewares/ST/STM32_USB_Host_Library/Core/Src/usbh_ctlreq.c **** #if (osCMSIS < 0x20000U)
 701:Middlewares/ST/STM32_USB_Host_Library/Core/Src/usbh_ctlreq.c ****       (void)osMessagePut(phost->os_event, phost->os_msg, 0U);
 702:Middlewares/ST/STM32_USB_Host_Library/Core/Src/usbh_ctlreq.c **** #else
 703:Middlewares/ST/STM32_USB_Host_Library/Core/Src/usbh_ctlreq.c ****       (void)osMessageQueuePut(phost->os_event, &phost->os_msg, 0U, 0U);
 704:Middlewares/ST/STM32_USB_Host_Library/Core/Src/usbh_ctlreq.c **** #endif
 705:Middlewares/ST/STM32_USB_Host_Library/Core/Src/usbh_ctlreq.c **** #endif
 706:Middlewares/ST/STM32_USB_Host_Library/Core/Src/usbh_ctlreq.c ****       break;
 707:Middlewares/ST/STM32_USB_Host_Library/Core/Src/usbh_ctlreq.c **** 
 708:Middlewares/ST/STM32_USB_Host_Library/Core/Src/usbh_ctlreq.c ****     case CMD_WAIT:
 709:Middlewares/ST/STM32_USB_Host_Library/Core/Src/usbh_ctlreq.c ****       status = USBH_HandleControl(phost);
 710:Middlewares/ST/STM32_USB_Host_Library/Core/Src/usbh_ctlreq.c ****       if ((status == USBH_OK) || (status == USBH_NOT_SUPPORTED))
 711:Middlewares/ST/STM32_USB_Host_Library/Core/Src/usbh_ctlreq.c ****       {
 712:Middlewares/ST/STM32_USB_Host_Library/Core/Src/usbh_ctlreq.c ****         /* Transaction completed, move control state to idle */
 713:Middlewares/ST/STM32_USB_Host_Library/Core/Src/usbh_ctlreq.c ****         phost->RequestState = CMD_SEND;
 714:Middlewares/ST/STM32_USB_Host_Library/Core/Src/usbh_ctlreq.c ****         phost->Control.state = CTRL_IDLE;
 715:Middlewares/ST/STM32_USB_Host_Library/Core/Src/usbh_ctlreq.c ****       }
 716:Middlewares/ST/STM32_USB_Host_Library/Core/Src/usbh_ctlreq.c ****       else if (status == USBH_FAIL)
 717:Middlewares/ST/STM32_USB_Host_Library/Core/Src/usbh_ctlreq.c ****       {
 718:Middlewares/ST/STM32_USB_Host_Library/Core/Src/usbh_ctlreq.c ****         /* Failure Mode */
 719:Middlewares/ST/STM32_USB_Host_Library/Core/Src/usbh_ctlreq.c ****         phost->RequestState = CMD_SEND;
 720:Middlewares/ST/STM32_USB_Host_Library/Core/Src/usbh_ctlreq.c ****       }
 721:Middlewares/ST/STM32_USB_Host_Library/Core/Src/usbh_ctlreq.c ****       else
 722:Middlewares/ST/STM32_USB_Host_Library/Core/Src/usbh_ctlreq.c ****       {
 723:Middlewares/ST/STM32_USB_Host_Library/Core/Src/usbh_ctlreq.c ****         /* .. */
 724:Middlewares/ST/STM32_USB_Host_Library/Core/Src/usbh_ctlreq.c ****       }
 725:Middlewares/ST/STM32_USB_Host_Library/Core/Src/usbh_ctlreq.c **** #if (USBH_USE_OS == 1U)
 726:Middlewares/ST/STM32_USB_Host_Library/Core/Src/usbh_ctlreq.c ****       phost->os_msg = (uint32_t)USBH_CONTROL_EVENT;
 727:Middlewares/ST/STM32_USB_Host_Library/Core/Src/usbh_ctlreq.c **** #if (osCMSIS < 0x20000U)
 728:Middlewares/ST/STM32_USB_Host_Library/Core/Src/usbh_ctlreq.c ****       (void)osMessagePut(phost->os_event, phost->os_msg, 0U);
 729:Middlewares/ST/STM32_USB_Host_Library/Core/Src/usbh_ctlreq.c **** #else
 730:Middlewares/ST/STM32_USB_Host_Library/Core/Src/usbh_ctlreq.c ****       (void)osMessageQueuePut(phost->os_event, &phost->os_msg, 0U, 0U);
 731:Middlewares/ST/STM32_USB_Host_Library/Core/Src/usbh_ctlreq.c **** #endif
 732:Middlewares/ST/STM32_USB_Host_Library/Core/Src/usbh_ctlreq.c **** #endif
 733:Middlewares/ST/STM32_USB_Host_Library/Core/Src/usbh_ctlreq.c ****       break;
 734:Middlewares/ST/STM32_USB_Host_Library/Core/Src/usbh_ctlreq.c **** 
 735:Middlewares/ST/STM32_USB_Host_Library/Core/Src/usbh_ctlreq.c ****     default:
 736:Middlewares/ST/STM32_USB_Host_Library/Core/Src/usbh_ctlreq.c ****       break;
 737:Middlewares/ST/STM32_USB_Host_Library/Core/Src/usbh_ctlreq.c ****   }
 738:Middlewares/ST/STM32_USB_Host_Library/Core/Src/usbh_ctlreq.c ****   return status;
 739:Middlewares/ST/STM32_USB_Host_Library/Core/Src/usbh_ctlreq.c **** }
 740:Middlewares/ST/STM32_USB_Host_Library/Core/Src/usbh_ctlreq.c **** 
 741:Middlewares/ST/STM32_USB_Host_Library/Core/Src/usbh_ctlreq.c **** 
 742:Middlewares/ST/STM32_USB_Host_Library/Core/Src/usbh_ctlreq.c **** /**
 743:Middlewares/ST/STM32_USB_Host_Library/Core/Src/usbh_ctlreq.c ****   * @brief  USBH_HandleControl
 744:Middlewares/ST/STM32_USB_Host_Library/Core/Src/usbh_ctlreq.c ****   *         Handles the USB control transfer state machine
 745:Middlewares/ST/STM32_USB_Host_Library/Core/Src/usbh_ctlreq.c ****   * @param  phost: Host Handle
 746:Middlewares/ST/STM32_USB_Host_Library/Core/Src/usbh_ctlreq.c ****   * @retval USBH Status
 747:Middlewares/ST/STM32_USB_Host_Library/Core/Src/usbh_ctlreq.c ****   */
 748:Middlewares/ST/STM32_USB_Host_Library/Core/Src/usbh_ctlreq.c **** static USBH_StatusTypeDef USBH_HandleControl(USBH_HandleTypeDef *phost)
 749:Middlewares/ST/STM32_USB_Host_Library/Core/Src/usbh_ctlreq.c **** {
ARM GAS  /tmp/ccapfRJn.s 			page 23


 486              		.loc 1 749 1 is_stmt 1 view -0
 487              		.cfi_startproc
 488              		@ args = 0, pretend = 0, frame = 0
 489              		@ frame_needed = 0, uses_anonymous_args = 0
 490              		.loc 1 749 1 is_stmt 0 view .LVU161
 491 0000 30B5     		push	{r4, r5, lr}
 492              	.LCFI7:
 493              		.cfi_def_cfa_offset 12
 494              		.cfi_offset 4, -12
 495              		.cfi_offset 5, -8
 496              		.cfi_offset 14, -4
 497 0002 83B0     		sub	sp, sp, #12
 498              	.LCFI8:
 499              		.cfi_def_cfa_offset 24
 500 0004 0446     		mov	r4, r0
 750:Middlewares/ST/STM32_USB_Host_Library/Core/Src/usbh_ctlreq.c ****   uint8_t direction;
 501              		.loc 1 750 3 is_stmt 1 view .LVU162
 751:Middlewares/ST/STM32_USB_Host_Library/Core/Src/usbh_ctlreq.c ****   USBH_StatusTypeDef status = USBH_BUSY;
 502              		.loc 1 751 3 view .LVU163
 503              	.LVL27:
 752:Middlewares/ST/STM32_USB_Host_Library/Core/Src/usbh_ctlreq.c ****   USBH_URBStateTypeDef URB_Status = USBH_URB_IDLE;
 504              		.loc 1 752 3 view .LVU164
 753:Middlewares/ST/STM32_USB_Host_Library/Core/Src/usbh_ctlreq.c **** 
 754:Middlewares/ST/STM32_USB_Host_Library/Core/Src/usbh_ctlreq.c ****   switch (phost->Control.state)
 505              		.loc 1 754 3 view .LVU165
 506              		.loc 1 754 25 is_stmt 0 view .LVU166
 507 0006 057E     		ldrb	r5, [r0, #24]	@ zero_extendqisi2
 508 0008 6B1E     		subs	r3, r5, #1
 509 000a 0A2B     		cmp	r3, #10
 510 000c 00F28981 		bhi	.L64
 511 0010 DFE813F0 		tbh	[pc, r3, lsl #1]
 512              	.L37:
 513 0014 0B00     		.2byte	(.L47-.L37)/2
 514 0016 1500     		.2byte	(.L46-.L37)/2
 515 0018 5000     		.2byte	(.L45-.L37)/2
 516 001a 5C00     		.2byte	(.L44-.L37)/2
 517 001c 9100     		.2byte	(.L43-.L37)/2
 518 001e 9E00     		.2byte	(.L42-.L37)/2
 519 0020 E600     		.2byte	(.L41-.L37)/2
 520 0022 F200     		.2byte	(.L40-.L37)/2
 521 0024 2701     		.2byte	(.L39-.L37)/2
 522 0026 3401     		.2byte	(.L38-.L37)/2
 523 0028 6C01     		.2byte	(.L36-.L37)/2
 524              		.p2align 1
 525              	.L47:
 755:Middlewares/ST/STM32_USB_Host_Library/Core/Src/usbh_ctlreq.c ****   {
 756:Middlewares/ST/STM32_USB_Host_Library/Core/Src/usbh_ctlreq.c ****     case CTRL_SETUP:
 757:Middlewares/ST/STM32_USB_Host_Library/Core/Src/usbh_ctlreq.c ****       /* send a SETUP packet */
 758:Middlewares/ST/STM32_USB_Host_Library/Core/Src/usbh_ctlreq.c ****       (void)USBH_CtlSendSetup(phost, (uint8_t *)(void *)phost->Control.setup.d8,
 526              		.loc 1 758 7 is_stmt 1 view .LVU167
 527              		.loc 1 758 13 is_stmt 0 view .LVU168
 528 002a 4279     		ldrb	r2, [r0, #5]	@ zero_extendqisi2
 529 002c 00F11001 		add	r1, r0, #16
 530 0030 FFF7FEFF 		bl	USBH_CtlSendSetup
 531              	.LVL28:
 759:Middlewares/ST/STM32_USB_Host_Library/Core/Src/usbh_ctlreq.c ****                               phost->Control.pipe_out);
 760:Middlewares/ST/STM32_USB_Host_Library/Core/Src/usbh_ctlreq.c **** 
ARM GAS  /tmp/ccapfRJn.s 			page 24


 761:Middlewares/ST/STM32_USB_Host_Library/Core/Src/usbh_ctlreq.c ****       phost->Control.state = CTRL_SETUP_WAIT;
 532              		.loc 1 761 7 is_stmt 1 view .LVU169
 533              		.loc 1 761 28 is_stmt 0 view .LVU170
 534 0034 0223     		movs	r3, #2
 535 0036 2376     		strb	r3, [r4, #24]
 762:Middlewares/ST/STM32_USB_Host_Library/Core/Src/usbh_ctlreq.c ****       break;
 536              		.loc 1 762 7 is_stmt 1 view .LVU171
 537              	.LVL29:
 538              	.L35:
 763:Middlewares/ST/STM32_USB_Host_Library/Core/Src/usbh_ctlreq.c **** 
 764:Middlewares/ST/STM32_USB_Host_Library/Core/Src/usbh_ctlreq.c ****     case CTRL_SETUP_WAIT:
 765:Middlewares/ST/STM32_USB_Host_Library/Core/Src/usbh_ctlreq.c **** 
 766:Middlewares/ST/STM32_USB_Host_Library/Core/Src/usbh_ctlreq.c ****       URB_Status = USBH_LL_GetURBState(phost, phost->Control.pipe_out);
 767:Middlewares/ST/STM32_USB_Host_Library/Core/Src/usbh_ctlreq.c ****       /* case SETUP packet sent successfully */
 768:Middlewares/ST/STM32_USB_Host_Library/Core/Src/usbh_ctlreq.c ****       if (URB_Status == USBH_URB_DONE)
 769:Middlewares/ST/STM32_USB_Host_Library/Core/Src/usbh_ctlreq.c ****       {
 770:Middlewares/ST/STM32_USB_Host_Library/Core/Src/usbh_ctlreq.c ****         direction = (phost->Control.setup.b.bmRequestType & USB_REQ_DIR_MASK);
 771:Middlewares/ST/STM32_USB_Host_Library/Core/Src/usbh_ctlreq.c **** 
 772:Middlewares/ST/STM32_USB_Host_Library/Core/Src/usbh_ctlreq.c ****         /* check if there is a data stage */
 773:Middlewares/ST/STM32_USB_Host_Library/Core/Src/usbh_ctlreq.c ****         if (phost->Control.setup.b.wLength.w != 0U)
 774:Middlewares/ST/STM32_USB_Host_Library/Core/Src/usbh_ctlreq.c ****         {
 775:Middlewares/ST/STM32_USB_Host_Library/Core/Src/usbh_ctlreq.c ****           if (direction == USB_D2H)
 776:Middlewares/ST/STM32_USB_Host_Library/Core/Src/usbh_ctlreq.c ****           {
 777:Middlewares/ST/STM32_USB_Host_Library/Core/Src/usbh_ctlreq.c ****             /* Data Direction is IN */
 778:Middlewares/ST/STM32_USB_Host_Library/Core/Src/usbh_ctlreq.c ****             phost->Control.state = CTRL_DATA_IN;
 779:Middlewares/ST/STM32_USB_Host_Library/Core/Src/usbh_ctlreq.c ****           }
 780:Middlewares/ST/STM32_USB_Host_Library/Core/Src/usbh_ctlreq.c ****           else
 781:Middlewares/ST/STM32_USB_Host_Library/Core/Src/usbh_ctlreq.c ****           {
 782:Middlewares/ST/STM32_USB_Host_Library/Core/Src/usbh_ctlreq.c ****             /* Data Direction is OUT */
 783:Middlewares/ST/STM32_USB_Host_Library/Core/Src/usbh_ctlreq.c ****             phost->Control.state = CTRL_DATA_OUT;
 784:Middlewares/ST/STM32_USB_Host_Library/Core/Src/usbh_ctlreq.c ****           }
 785:Middlewares/ST/STM32_USB_Host_Library/Core/Src/usbh_ctlreq.c ****         }
 786:Middlewares/ST/STM32_USB_Host_Library/Core/Src/usbh_ctlreq.c ****         /* No DATA stage */
 787:Middlewares/ST/STM32_USB_Host_Library/Core/Src/usbh_ctlreq.c ****         else
 788:Middlewares/ST/STM32_USB_Host_Library/Core/Src/usbh_ctlreq.c ****         {
 789:Middlewares/ST/STM32_USB_Host_Library/Core/Src/usbh_ctlreq.c ****           /* If there is No Data Transfer Stage */
 790:Middlewares/ST/STM32_USB_Host_Library/Core/Src/usbh_ctlreq.c ****           if (direction == USB_D2H)
 791:Middlewares/ST/STM32_USB_Host_Library/Core/Src/usbh_ctlreq.c ****           {
 792:Middlewares/ST/STM32_USB_Host_Library/Core/Src/usbh_ctlreq.c ****             /* Data Direction is IN */
 793:Middlewares/ST/STM32_USB_Host_Library/Core/Src/usbh_ctlreq.c ****             phost->Control.state = CTRL_STATUS_OUT;
 794:Middlewares/ST/STM32_USB_Host_Library/Core/Src/usbh_ctlreq.c ****           }
 795:Middlewares/ST/STM32_USB_Host_Library/Core/Src/usbh_ctlreq.c ****           else
 796:Middlewares/ST/STM32_USB_Host_Library/Core/Src/usbh_ctlreq.c ****           {
 797:Middlewares/ST/STM32_USB_Host_Library/Core/Src/usbh_ctlreq.c ****             /* Data Direction is OUT */
 798:Middlewares/ST/STM32_USB_Host_Library/Core/Src/usbh_ctlreq.c ****             phost->Control.state = CTRL_STATUS_IN;
 799:Middlewares/ST/STM32_USB_Host_Library/Core/Src/usbh_ctlreq.c ****           }
 800:Middlewares/ST/STM32_USB_Host_Library/Core/Src/usbh_ctlreq.c ****         }
 801:Middlewares/ST/STM32_USB_Host_Library/Core/Src/usbh_ctlreq.c **** 
 802:Middlewares/ST/STM32_USB_Host_Library/Core/Src/usbh_ctlreq.c **** #if (USBH_USE_OS == 1U)
 803:Middlewares/ST/STM32_USB_Host_Library/Core/Src/usbh_ctlreq.c ****         phost->os_msg = (uint32_t)USBH_CONTROL_EVENT;
 804:Middlewares/ST/STM32_USB_Host_Library/Core/Src/usbh_ctlreq.c **** #if (osCMSIS < 0x20000U)
 805:Middlewares/ST/STM32_USB_Host_Library/Core/Src/usbh_ctlreq.c ****         (void)osMessagePut(phost->os_event, phost->os_msg, 0U);
 806:Middlewares/ST/STM32_USB_Host_Library/Core/Src/usbh_ctlreq.c **** #else
 807:Middlewares/ST/STM32_USB_Host_Library/Core/Src/usbh_ctlreq.c ****         (void)osMessageQueuePut(phost->os_event, &phost->os_msg, 0U, 0U);
 808:Middlewares/ST/STM32_USB_Host_Library/Core/Src/usbh_ctlreq.c **** #endif
 809:Middlewares/ST/STM32_USB_Host_Library/Core/Src/usbh_ctlreq.c **** #endif
 810:Middlewares/ST/STM32_USB_Host_Library/Core/Src/usbh_ctlreq.c ****       }
ARM GAS  /tmp/ccapfRJn.s 			page 25


 811:Middlewares/ST/STM32_USB_Host_Library/Core/Src/usbh_ctlreq.c ****       else
 812:Middlewares/ST/STM32_USB_Host_Library/Core/Src/usbh_ctlreq.c ****       {
 813:Middlewares/ST/STM32_USB_Host_Library/Core/Src/usbh_ctlreq.c ****         if ((URB_Status == USBH_URB_ERROR) || (URB_Status == USBH_URB_NOTREADY))
 814:Middlewares/ST/STM32_USB_Host_Library/Core/Src/usbh_ctlreq.c ****         {
 815:Middlewares/ST/STM32_USB_Host_Library/Core/Src/usbh_ctlreq.c ****           phost->Control.state = CTRL_ERROR;
 816:Middlewares/ST/STM32_USB_Host_Library/Core/Src/usbh_ctlreq.c **** 
 817:Middlewares/ST/STM32_USB_Host_Library/Core/Src/usbh_ctlreq.c **** #if (USBH_USE_OS == 1U)
 818:Middlewares/ST/STM32_USB_Host_Library/Core/Src/usbh_ctlreq.c ****           phost->os_msg = (uint32_t)USBH_CONTROL_EVENT;
 819:Middlewares/ST/STM32_USB_Host_Library/Core/Src/usbh_ctlreq.c **** #if (osCMSIS < 0x20000U)
 820:Middlewares/ST/STM32_USB_Host_Library/Core/Src/usbh_ctlreq.c ****           (void)osMessagePut(phost->os_event, phost->os_msg, 0U);
 821:Middlewares/ST/STM32_USB_Host_Library/Core/Src/usbh_ctlreq.c **** #else
 822:Middlewares/ST/STM32_USB_Host_Library/Core/Src/usbh_ctlreq.c ****           (void)osMessageQueuePut(phost->os_event, &phost->os_msg, 0U, 0U);
 823:Middlewares/ST/STM32_USB_Host_Library/Core/Src/usbh_ctlreq.c **** #endif
 824:Middlewares/ST/STM32_USB_Host_Library/Core/Src/usbh_ctlreq.c **** #endif
 825:Middlewares/ST/STM32_USB_Host_Library/Core/Src/usbh_ctlreq.c ****         }
 826:Middlewares/ST/STM32_USB_Host_Library/Core/Src/usbh_ctlreq.c ****       }
 827:Middlewares/ST/STM32_USB_Host_Library/Core/Src/usbh_ctlreq.c ****       break;
 828:Middlewares/ST/STM32_USB_Host_Library/Core/Src/usbh_ctlreq.c **** 
 829:Middlewares/ST/STM32_USB_Host_Library/Core/Src/usbh_ctlreq.c ****     case CTRL_DATA_IN:
 830:Middlewares/ST/STM32_USB_Host_Library/Core/Src/usbh_ctlreq.c ****       /* Issue an IN token */
 831:Middlewares/ST/STM32_USB_Host_Library/Core/Src/usbh_ctlreq.c ****       phost->Control.timer = (uint16_t)phost->Timer;
 832:Middlewares/ST/STM32_USB_Host_Library/Core/Src/usbh_ctlreq.c ****       (void)USBH_CtlReceiveData(phost, phost->Control.buff,
 833:Middlewares/ST/STM32_USB_Host_Library/Core/Src/usbh_ctlreq.c ****                                 phost->Control.length, phost->Control.pipe_in);
 834:Middlewares/ST/STM32_USB_Host_Library/Core/Src/usbh_ctlreq.c **** 
 835:Middlewares/ST/STM32_USB_Host_Library/Core/Src/usbh_ctlreq.c ****       phost->Control.state = CTRL_DATA_IN_WAIT;
 836:Middlewares/ST/STM32_USB_Host_Library/Core/Src/usbh_ctlreq.c ****       break;
 837:Middlewares/ST/STM32_USB_Host_Library/Core/Src/usbh_ctlreq.c **** 
 838:Middlewares/ST/STM32_USB_Host_Library/Core/Src/usbh_ctlreq.c ****     case CTRL_DATA_IN_WAIT:
 839:Middlewares/ST/STM32_USB_Host_Library/Core/Src/usbh_ctlreq.c **** 
 840:Middlewares/ST/STM32_USB_Host_Library/Core/Src/usbh_ctlreq.c ****       URB_Status = USBH_LL_GetURBState(phost, phost->Control.pipe_in);
 841:Middlewares/ST/STM32_USB_Host_Library/Core/Src/usbh_ctlreq.c **** 
 842:Middlewares/ST/STM32_USB_Host_Library/Core/Src/usbh_ctlreq.c ****       /* check is DATA packet transferred successfully */
 843:Middlewares/ST/STM32_USB_Host_Library/Core/Src/usbh_ctlreq.c ****       if (URB_Status == USBH_URB_DONE)
 844:Middlewares/ST/STM32_USB_Host_Library/Core/Src/usbh_ctlreq.c ****       {
 845:Middlewares/ST/STM32_USB_Host_Library/Core/Src/usbh_ctlreq.c ****         phost->Control.state = CTRL_STATUS_OUT;
 846:Middlewares/ST/STM32_USB_Host_Library/Core/Src/usbh_ctlreq.c **** 
 847:Middlewares/ST/STM32_USB_Host_Library/Core/Src/usbh_ctlreq.c **** #if (USBH_USE_OS == 1U)
 848:Middlewares/ST/STM32_USB_Host_Library/Core/Src/usbh_ctlreq.c ****         phost->os_msg = (uint32_t)USBH_CONTROL_EVENT;
 849:Middlewares/ST/STM32_USB_Host_Library/Core/Src/usbh_ctlreq.c **** #if (osCMSIS < 0x20000U)
 850:Middlewares/ST/STM32_USB_Host_Library/Core/Src/usbh_ctlreq.c ****         (void)osMessagePut(phost->os_event, phost->os_msg, 0U);
 851:Middlewares/ST/STM32_USB_Host_Library/Core/Src/usbh_ctlreq.c **** #else
 852:Middlewares/ST/STM32_USB_Host_Library/Core/Src/usbh_ctlreq.c ****         (void)osMessageQueuePut(phost->os_event, &phost->os_msg, 0U, 0U);
 853:Middlewares/ST/STM32_USB_Host_Library/Core/Src/usbh_ctlreq.c **** #endif
 854:Middlewares/ST/STM32_USB_Host_Library/Core/Src/usbh_ctlreq.c **** #endif
 855:Middlewares/ST/STM32_USB_Host_Library/Core/Src/usbh_ctlreq.c ****       }
 856:Middlewares/ST/STM32_USB_Host_Library/Core/Src/usbh_ctlreq.c **** 
 857:Middlewares/ST/STM32_USB_Host_Library/Core/Src/usbh_ctlreq.c ****       /* manage error cases*/
 858:Middlewares/ST/STM32_USB_Host_Library/Core/Src/usbh_ctlreq.c ****       if (URB_Status == USBH_URB_STALL)
 859:Middlewares/ST/STM32_USB_Host_Library/Core/Src/usbh_ctlreq.c ****       {
 860:Middlewares/ST/STM32_USB_Host_Library/Core/Src/usbh_ctlreq.c ****         /* In stall case, return to previous machine state*/
 861:Middlewares/ST/STM32_USB_Host_Library/Core/Src/usbh_ctlreq.c ****         status = USBH_NOT_SUPPORTED;
 862:Middlewares/ST/STM32_USB_Host_Library/Core/Src/usbh_ctlreq.c **** 
 863:Middlewares/ST/STM32_USB_Host_Library/Core/Src/usbh_ctlreq.c **** #if (USBH_USE_OS == 1U)
 864:Middlewares/ST/STM32_USB_Host_Library/Core/Src/usbh_ctlreq.c ****         phost->os_msg = (uint32_t)USBH_CONTROL_EVENT;
 865:Middlewares/ST/STM32_USB_Host_Library/Core/Src/usbh_ctlreq.c **** #if (osCMSIS < 0x20000U)
 866:Middlewares/ST/STM32_USB_Host_Library/Core/Src/usbh_ctlreq.c ****         (void)osMessagePut(phost->os_event, phost->os_msg, 0U);
 867:Middlewares/ST/STM32_USB_Host_Library/Core/Src/usbh_ctlreq.c **** #else
ARM GAS  /tmp/ccapfRJn.s 			page 26


 868:Middlewares/ST/STM32_USB_Host_Library/Core/Src/usbh_ctlreq.c ****         (void)osMessageQueuePut(phost->os_event, &phost->os_msg, 0U, 0U);
 869:Middlewares/ST/STM32_USB_Host_Library/Core/Src/usbh_ctlreq.c **** #endif
 870:Middlewares/ST/STM32_USB_Host_Library/Core/Src/usbh_ctlreq.c **** #endif
 871:Middlewares/ST/STM32_USB_Host_Library/Core/Src/usbh_ctlreq.c ****       }
 872:Middlewares/ST/STM32_USB_Host_Library/Core/Src/usbh_ctlreq.c ****       else
 873:Middlewares/ST/STM32_USB_Host_Library/Core/Src/usbh_ctlreq.c ****       {
 874:Middlewares/ST/STM32_USB_Host_Library/Core/Src/usbh_ctlreq.c ****         if (URB_Status == USBH_URB_ERROR)
 875:Middlewares/ST/STM32_USB_Host_Library/Core/Src/usbh_ctlreq.c ****         {
 876:Middlewares/ST/STM32_USB_Host_Library/Core/Src/usbh_ctlreq.c ****           /* Device error */
 877:Middlewares/ST/STM32_USB_Host_Library/Core/Src/usbh_ctlreq.c ****           phost->Control.state = CTRL_ERROR;
 878:Middlewares/ST/STM32_USB_Host_Library/Core/Src/usbh_ctlreq.c **** 
 879:Middlewares/ST/STM32_USB_Host_Library/Core/Src/usbh_ctlreq.c **** #if (USBH_USE_OS == 1U)
 880:Middlewares/ST/STM32_USB_Host_Library/Core/Src/usbh_ctlreq.c ****           phost->os_msg = (uint32_t)USBH_CONTROL_EVENT;
 881:Middlewares/ST/STM32_USB_Host_Library/Core/Src/usbh_ctlreq.c **** #if (osCMSIS < 0x20000U)
 882:Middlewares/ST/STM32_USB_Host_Library/Core/Src/usbh_ctlreq.c ****           (void)osMessagePut(phost->os_event, phost->os_msg, 0U);
 883:Middlewares/ST/STM32_USB_Host_Library/Core/Src/usbh_ctlreq.c **** #else
 884:Middlewares/ST/STM32_USB_Host_Library/Core/Src/usbh_ctlreq.c ****           (void)osMessageQueuePut(phost->os_event, &phost->os_msg, 0U, 0U);
 885:Middlewares/ST/STM32_USB_Host_Library/Core/Src/usbh_ctlreq.c **** #endif
 886:Middlewares/ST/STM32_USB_Host_Library/Core/Src/usbh_ctlreq.c **** #endif
 887:Middlewares/ST/STM32_USB_Host_Library/Core/Src/usbh_ctlreq.c ****         }
 888:Middlewares/ST/STM32_USB_Host_Library/Core/Src/usbh_ctlreq.c ****       }
 889:Middlewares/ST/STM32_USB_Host_Library/Core/Src/usbh_ctlreq.c ****       break;
 890:Middlewares/ST/STM32_USB_Host_Library/Core/Src/usbh_ctlreq.c **** 
 891:Middlewares/ST/STM32_USB_Host_Library/Core/Src/usbh_ctlreq.c ****     case CTRL_DATA_OUT:
 892:Middlewares/ST/STM32_USB_Host_Library/Core/Src/usbh_ctlreq.c **** 
 893:Middlewares/ST/STM32_USB_Host_Library/Core/Src/usbh_ctlreq.c ****       (void)USBH_CtlSendData(phost, phost->Control.buff, phost->Control.length,
 894:Middlewares/ST/STM32_USB_Host_Library/Core/Src/usbh_ctlreq.c ****                              phost->Control.pipe_out, 1U);
 895:Middlewares/ST/STM32_USB_Host_Library/Core/Src/usbh_ctlreq.c **** 
 896:Middlewares/ST/STM32_USB_Host_Library/Core/Src/usbh_ctlreq.c ****       phost->Control.timer = (uint16_t)phost->Timer;
 897:Middlewares/ST/STM32_USB_Host_Library/Core/Src/usbh_ctlreq.c ****       phost->Control.state = CTRL_DATA_OUT_WAIT;
 898:Middlewares/ST/STM32_USB_Host_Library/Core/Src/usbh_ctlreq.c ****       break;
 899:Middlewares/ST/STM32_USB_Host_Library/Core/Src/usbh_ctlreq.c **** 
 900:Middlewares/ST/STM32_USB_Host_Library/Core/Src/usbh_ctlreq.c ****     case CTRL_DATA_OUT_WAIT:
 901:Middlewares/ST/STM32_USB_Host_Library/Core/Src/usbh_ctlreq.c **** 
 902:Middlewares/ST/STM32_USB_Host_Library/Core/Src/usbh_ctlreq.c ****       URB_Status = USBH_LL_GetURBState(phost, phost->Control.pipe_out);
 903:Middlewares/ST/STM32_USB_Host_Library/Core/Src/usbh_ctlreq.c **** 
 904:Middlewares/ST/STM32_USB_Host_Library/Core/Src/usbh_ctlreq.c ****       if (URB_Status == USBH_URB_DONE)
 905:Middlewares/ST/STM32_USB_Host_Library/Core/Src/usbh_ctlreq.c ****       {
 906:Middlewares/ST/STM32_USB_Host_Library/Core/Src/usbh_ctlreq.c ****         /* If the Setup Pkt is sent successful, then change the state */
 907:Middlewares/ST/STM32_USB_Host_Library/Core/Src/usbh_ctlreq.c ****         phost->Control.state = CTRL_STATUS_IN;
 908:Middlewares/ST/STM32_USB_Host_Library/Core/Src/usbh_ctlreq.c **** 
 909:Middlewares/ST/STM32_USB_Host_Library/Core/Src/usbh_ctlreq.c **** #if (USBH_USE_OS == 1U)
 910:Middlewares/ST/STM32_USB_Host_Library/Core/Src/usbh_ctlreq.c ****         phost->os_msg = (uint32_t)USBH_CONTROL_EVENT;
 911:Middlewares/ST/STM32_USB_Host_Library/Core/Src/usbh_ctlreq.c **** #if (osCMSIS < 0x20000U)
 912:Middlewares/ST/STM32_USB_Host_Library/Core/Src/usbh_ctlreq.c ****         (void)osMessagePut(phost->os_event, phost->os_msg, 0U);
 913:Middlewares/ST/STM32_USB_Host_Library/Core/Src/usbh_ctlreq.c **** #else
 914:Middlewares/ST/STM32_USB_Host_Library/Core/Src/usbh_ctlreq.c ****         (void)osMessageQueuePut(phost->os_event, &phost->os_msg, 0U, 0U);
 915:Middlewares/ST/STM32_USB_Host_Library/Core/Src/usbh_ctlreq.c **** #endif
 916:Middlewares/ST/STM32_USB_Host_Library/Core/Src/usbh_ctlreq.c **** #endif
 917:Middlewares/ST/STM32_USB_Host_Library/Core/Src/usbh_ctlreq.c ****       }
 918:Middlewares/ST/STM32_USB_Host_Library/Core/Src/usbh_ctlreq.c **** 
 919:Middlewares/ST/STM32_USB_Host_Library/Core/Src/usbh_ctlreq.c ****       /* handle error cases */
 920:Middlewares/ST/STM32_USB_Host_Library/Core/Src/usbh_ctlreq.c ****       else if (URB_Status == USBH_URB_STALL)
 921:Middlewares/ST/STM32_USB_Host_Library/Core/Src/usbh_ctlreq.c ****       {
 922:Middlewares/ST/STM32_USB_Host_Library/Core/Src/usbh_ctlreq.c ****         /* In stall case, return to previous machine state*/
 923:Middlewares/ST/STM32_USB_Host_Library/Core/Src/usbh_ctlreq.c ****         phost->Control.state = CTRL_STALLED;
 924:Middlewares/ST/STM32_USB_Host_Library/Core/Src/usbh_ctlreq.c ****         status = USBH_NOT_SUPPORTED;
ARM GAS  /tmp/ccapfRJn.s 			page 27


 925:Middlewares/ST/STM32_USB_Host_Library/Core/Src/usbh_ctlreq.c **** 
 926:Middlewares/ST/STM32_USB_Host_Library/Core/Src/usbh_ctlreq.c **** #if (USBH_USE_OS == 1U)
 927:Middlewares/ST/STM32_USB_Host_Library/Core/Src/usbh_ctlreq.c ****         phost->os_msg = (uint32_t)USBH_CONTROL_EVENT;
 928:Middlewares/ST/STM32_USB_Host_Library/Core/Src/usbh_ctlreq.c **** #if (osCMSIS < 0x20000U)
 929:Middlewares/ST/STM32_USB_Host_Library/Core/Src/usbh_ctlreq.c ****         (void)osMessagePut(phost->os_event, phost->os_msg, 0U);
 930:Middlewares/ST/STM32_USB_Host_Library/Core/Src/usbh_ctlreq.c **** #else
 931:Middlewares/ST/STM32_USB_Host_Library/Core/Src/usbh_ctlreq.c ****         (void)osMessageQueuePut(phost->os_event, &phost->os_msg, 0U, 0U);
 932:Middlewares/ST/STM32_USB_Host_Library/Core/Src/usbh_ctlreq.c **** #endif
 933:Middlewares/ST/STM32_USB_Host_Library/Core/Src/usbh_ctlreq.c **** #endif
 934:Middlewares/ST/STM32_USB_Host_Library/Core/Src/usbh_ctlreq.c ****       }
 935:Middlewares/ST/STM32_USB_Host_Library/Core/Src/usbh_ctlreq.c ****       else if (URB_Status == USBH_URB_NOTREADY)
 936:Middlewares/ST/STM32_USB_Host_Library/Core/Src/usbh_ctlreq.c ****       {
 937:Middlewares/ST/STM32_USB_Host_Library/Core/Src/usbh_ctlreq.c ****         /* Nack received from device */
 938:Middlewares/ST/STM32_USB_Host_Library/Core/Src/usbh_ctlreq.c ****         phost->Control.state = CTRL_DATA_OUT;
 939:Middlewares/ST/STM32_USB_Host_Library/Core/Src/usbh_ctlreq.c **** 
 940:Middlewares/ST/STM32_USB_Host_Library/Core/Src/usbh_ctlreq.c **** #if (USBH_USE_OS == 1U)
 941:Middlewares/ST/STM32_USB_Host_Library/Core/Src/usbh_ctlreq.c ****         phost->os_msg = (uint32_t)USBH_CONTROL_EVENT;
 942:Middlewares/ST/STM32_USB_Host_Library/Core/Src/usbh_ctlreq.c **** #if (osCMSIS < 0x20000U)
 943:Middlewares/ST/STM32_USB_Host_Library/Core/Src/usbh_ctlreq.c ****         (void)osMessagePut(phost->os_event, phost->os_msg, 0U);
 944:Middlewares/ST/STM32_USB_Host_Library/Core/Src/usbh_ctlreq.c **** #else
 945:Middlewares/ST/STM32_USB_Host_Library/Core/Src/usbh_ctlreq.c ****         (void)osMessageQueuePut(phost->os_event, &phost->os_msg, 0U, 0U);
 946:Middlewares/ST/STM32_USB_Host_Library/Core/Src/usbh_ctlreq.c **** #endif
 947:Middlewares/ST/STM32_USB_Host_Library/Core/Src/usbh_ctlreq.c **** #endif
 948:Middlewares/ST/STM32_USB_Host_Library/Core/Src/usbh_ctlreq.c ****       }
 949:Middlewares/ST/STM32_USB_Host_Library/Core/Src/usbh_ctlreq.c ****       else
 950:Middlewares/ST/STM32_USB_Host_Library/Core/Src/usbh_ctlreq.c ****       {
 951:Middlewares/ST/STM32_USB_Host_Library/Core/Src/usbh_ctlreq.c ****         if (URB_Status == USBH_URB_ERROR)
 952:Middlewares/ST/STM32_USB_Host_Library/Core/Src/usbh_ctlreq.c ****         {
 953:Middlewares/ST/STM32_USB_Host_Library/Core/Src/usbh_ctlreq.c ****           /* device error */
 954:Middlewares/ST/STM32_USB_Host_Library/Core/Src/usbh_ctlreq.c ****           phost->Control.state = CTRL_ERROR;
 955:Middlewares/ST/STM32_USB_Host_Library/Core/Src/usbh_ctlreq.c ****           status = USBH_FAIL;
 956:Middlewares/ST/STM32_USB_Host_Library/Core/Src/usbh_ctlreq.c **** 
 957:Middlewares/ST/STM32_USB_Host_Library/Core/Src/usbh_ctlreq.c **** #if (USBH_USE_OS == 1U)
 958:Middlewares/ST/STM32_USB_Host_Library/Core/Src/usbh_ctlreq.c ****           phost->os_msg = (uint32_t)USBH_CONTROL_EVENT;
 959:Middlewares/ST/STM32_USB_Host_Library/Core/Src/usbh_ctlreq.c **** #if (osCMSIS < 0x20000U)
 960:Middlewares/ST/STM32_USB_Host_Library/Core/Src/usbh_ctlreq.c ****           (void)osMessagePut(phost->os_event, phost->os_msg, 0U);
 961:Middlewares/ST/STM32_USB_Host_Library/Core/Src/usbh_ctlreq.c **** #else
 962:Middlewares/ST/STM32_USB_Host_Library/Core/Src/usbh_ctlreq.c ****           (void)osMessageQueuePut(phost->os_event, &phost->os_msg, 0U, 0U);
 963:Middlewares/ST/STM32_USB_Host_Library/Core/Src/usbh_ctlreq.c **** #endif
 964:Middlewares/ST/STM32_USB_Host_Library/Core/Src/usbh_ctlreq.c **** #endif
 965:Middlewares/ST/STM32_USB_Host_Library/Core/Src/usbh_ctlreq.c ****         }
 966:Middlewares/ST/STM32_USB_Host_Library/Core/Src/usbh_ctlreq.c ****       }
 967:Middlewares/ST/STM32_USB_Host_Library/Core/Src/usbh_ctlreq.c ****       break;
 968:Middlewares/ST/STM32_USB_Host_Library/Core/Src/usbh_ctlreq.c **** 
 969:Middlewares/ST/STM32_USB_Host_Library/Core/Src/usbh_ctlreq.c ****     case CTRL_STATUS_IN:
 970:Middlewares/ST/STM32_USB_Host_Library/Core/Src/usbh_ctlreq.c ****       /* Send 0 bytes out packet */
 971:Middlewares/ST/STM32_USB_Host_Library/Core/Src/usbh_ctlreq.c ****       (void)USBH_CtlReceiveData(phost, NULL, 0U, phost->Control.pipe_in);
 972:Middlewares/ST/STM32_USB_Host_Library/Core/Src/usbh_ctlreq.c **** 
 973:Middlewares/ST/STM32_USB_Host_Library/Core/Src/usbh_ctlreq.c ****       phost->Control.timer = (uint16_t)phost->Timer;
 974:Middlewares/ST/STM32_USB_Host_Library/Core/Src/usbh_ctlreq.c ****       phost->Control.state = CTRL_STATUS_IN_WAIT;
 975:Middlewares/ST/STM32_USB_Host_Library/Core/Src/usbh_ctlreq.c **** 
 976:Middlewares/ST/STM32_USB_Host_Library/Core/Src/usbh_ctlreq.c ****       break;
 977:Middlewares/ST/STM32_USB_Host_Library/Core/Src/usbh_ctlreq.c **** 
 978:Middlewares/ST/STM32_USB_Host_Library/Core/Src/usbh_ctlreq.c ****     case CTRL_STATUS_IN_WAIT:
 979:Middlewares/ST/STM32_USB_Host_Library/Core/Src/usbh_ctlreq.c **** 
 980:Middlewares/ST/STM32_USB_Host_Library/Core/Src/usbh_ctlreq.c ****       URB_Status = USBH_LL_GetURBState(phost, phost->Control.pipe_in);
 981:Middlewares/ST/STM32_USB_Host_Library/Core/Src/usbh_ctlreq.c **** 
ARM GAS  /tmp/ccapfRJn.s 			page 28


 982:Middlewares/ST/STM32_USB_Host_Library/Core/Src/usbh_ctlreq.c ****       if (URB_Status == USBH_URB_DONE)
 983:Middlewares/ST/STM32_USB_Host_Library/Core/Src/usbh_ctlreq.c ****       {
 984:Middlewares/ST/STM32_USB_Host_Library/Core/Src/usbh_ctlreq.c ****         /* Control transfers completed, Exit the State Machine */
 985:Middlewares/ST/STM32_USB_Host_Library/Core/Src/usbh_ctlreq.c ****         phost->Control.state = CTRL_COMPLETE;
 986:Middlewares/ST/STM32_USB_Host_Library/Core/Src/usbh_ctlreq.c ****         status = USBH_OK;
 987:Middlewares/ST/STM32_USB_Host_Library/Core/Src/usbh_ctlreq.c **** 
 988:Middlewares/ST/STM32_USB_Host_Library/Core/Src/usbh_ctlreq.c **** #if (USBH_USE_OS == 1U)
 989:Middlewares/ST/STM32_USB_Host_Library/Core/Src/usbh_ctlreq.c ****         phost->os_msg = (uint32_t)USBH_CONTROL_EVENT;
 990:Middlewares/ST/STM32_USB_Host_Library/Core/Src/usbh_ctlreq.c **** #if (osCMSIS < 0x20000U)
 991:Middlewares/ST/STM32_USB_Host_Library/Core/Src/usbh_ctlreq.c ****         (void)osMessagePut(phost->os_event, phost->os_msg, 0U);
 992:Middlewares/ST/STM32_USB_Host_Library/Core/Src/usbh_ctlreq.c **** #else
 993:Middlewares/ST/STM32_USB_Host_Library/Core/Src/usbh_ctlreq.c ****         (void)osMessageQueuePut(phost->os_event, &phost->os_msg, 0U, 0U);
 994:Middlewares/ST/STM32_USB_Host_Library/Core/Src/usbh_ctlreq.c **** #endif
 995:Middlewares/ST/STM32_USB_Host_Library/Core/Src/usbh_ctlreq.c **** #endif
 996:Middlewares/ST/STM32_USB_Host_Library/Core/Src/usbh_ctlreq.c ****       }
 997:Middlewares/ST/STM32_USB_Host_Library/Core/Src/usbh_ctlreq.c ****       else if (URB_Status == USBH_URB_ERROR)
 998:Middlewares/ST/STM32_USB_Host_Library/Core/Src/usbh_ctlreq.c ****       {
 999:Middlewares/ST/STM32_USB_Host_Library/Core/Src/usbh_ctlreq.c ****         phost->Control.state = CTRL_ERROR;
1000:Middlewares/ST/STM32_USB_Host_Library/Core/Src/usbh_ctlreq.c **** 
1001:Middlewares/ST/STM32_USB_Host_Library/Core/Src/usbh_ctlreq.c **** #if (USBH_USE_OS == 1U)
1002:Middlewares/ST/STM32_USB_Host_Library/Core/Src/usbh_ctlreq.c ****         phost->os_msg = (uint32_t)USBH_CONTROL_EVENT;
1003:Middlewares/ST/STM32_USB_Host_Library/Core/Src/usbh_ctlreq.c **** #if (osCMSIS < 0x20000U)
1004:Middlewares/ST/STM32_USB_Host_Library/Core/Src/usbh_ctlreq.c ****         (void)osMessagePut(phost->os_event, phost->os_msg, 0U);
1005:Middlewares/ST/STM32_USB_Host_Library/Core/Src/usbh_ctlreq.c **** #else
1006:Middlewares/ST/STM32_USB_Host_Library/Core/Src/usbh_ctlreq.c ****         (void)osMessageQueuePut(phost->os_event, &phost->os_msg, 0U, 0U);
1007:Middlewares/ST/STM32_USB_Host_Library/Core/Src/usbh_ctlreq.c **** #endif
1008:Middlewares/ST/STM32_USB_Host_Library/Core/Src/usbh_ctlreq.c **** #endif
1009:Middlewares/ST/STM32_USB_Host_Library/Core/Src/usbh_ctlreq.c ****       }
1010:Middlewares/ST/STM32_USB_Host_Library/Core/Src/usbh_ctlreq.c ****       else
1011:Middlewares/ST/STM32_USB_Host_Library/Core/Src/usbh_ctlreq.c ****       {
1012:Middlewares/ST/STM32_USB_Host_Library/Core/Src/usbh_ctlreq.c ****         if (URB_Status == USBH_URB_STALL)
1013:Middlewares/ST/STM32_USB_Host_Library/Core/Src/usbh_ctlreq.c ****         {
1014:Middlewares/ST/STM32_USB_Host_Library/Core/Src/usbh_ctlreq.c ****           /* Control transfers completed, Exit the State Machine */
1015:Middlewares/ST/STM32_USB_Host_Library/Core/Src/usbh_ctlreq.c ****           status = USBH_NOT_SUPPORTED;
1016:Middlewares/ST/STM32_USB_Host_Library/Core/Src/usbh_ctlreq.c **** 
1017:Middlewares/ST/STM32_USB_Host_Library/Core/Src/usbh_ctlreq.c **** #if (USBH_USE_OS == 1U)
1018:Middlewares/ST/STM32_USB_Host_Library/Core/Src/usbh_ctlreq.c ****           phost->os_msg = (uint32_t)USBH_CONTROL_EVENT;
1019:Middlewares/ST/STM32_USB_Host_Library/Core/Src/usbh_ctlreq.c **** #if (osCMSIS < 0x20000U)
1020:Middlewares/ST/STM32_USB_Host_Library/Core/Src/usbh_ctlreq.c ****           (void)osMessagePut(phost->os_event, phost->os_msg, 0U);
1021:Middlewares/ST/STM32_USB_Host_Library/Core/Src/usbh_ctlreq.c **** #else
1022:Middlewares/ST/STM32_USB_Host_Library/Core/Src/usbh_ctlreq.c ****           (void)osMessageQueuePut(phost->os_event, &phost->os_msg, 0U, 0U);
1023:Middlewares/ST/STM32_USB_Host_Library/Core/Src/usbh_ctlreq.c **** #endif
1024:Middlewares/ST/STM32_USB_Host_Library/Core/Src/usbh_ctlreq.c **** #endif
1025:Middlewares/ST/STM32_USB_Host_Library/Core/Src/usbh_ctlreq.c ****         }
1026:Middlewares/ST/STM32_USB_Host_Library/Core/Src/usbh_ctlreq.c ****       }
1027:Middlewares/ST/STM32_USB_Host_Library/Core/Src/usbh_ctlreq.c ****       break;
1028:Middlewares/ST/STM32_USB_Host_Library/Core/Src/usbh_ctlreq.c **** 
1029:Middlewares/ST/STM32_USB_Host_Library/Core/Src/usbh_ctlreq.c ****     case CTRL_STATUS_OUT:
1030:Middlewares/ST/STM32_USB_Host_Library/Core/Src/usbh_ctlreq.c ****       (void)USBH_CtlSendData(phost, NULL, 0U, phost->Control.pipe_out, 1U);
1031:Middlewares/ST/STM32_USB_Host_Library/Core/Src/usbh_ctlreq.c **** 
1032:Middlewares/ST/STM32_USB_Host_Library/Core/Src/usbh_ctlreq.c ****       phost->Control.timer = (uint16_t)phost->Timer;
1033:Middlewares/ST/STM32_USB_Host_Library/Core/Src/usbh_ctlreq.c ****       phost->Control.state = CTRL_STATUS_OUT_WAIT;
1034:Middlewares/ST/STM32_USB_Host_Library/Core/Src/usbh_ctlreq.c ****       break;
1035:Middlewares/ST/STM32_USB_Host_Library/Core/Src/usbh_ctlreq.c **** 
1036:Middlewares/ST/STM32_USB_Host_Library/Core/Src/usbh_ctlreq.c ****     case CTRL_STATUS_OUT_WAIT:
1037:Middlewares/ST/STM32_USB_Host_Library/Core/Src/usbh_ctlreq.c ****       URB_Status = USBH_LL_GetURBState(phost, phost->Control.pipe_out);
1038:Middlewares/ST/STM32_USB_Host_Library/Core/Src/usbh_ctlreq.c ****       if (URB_Status == USBH_URB_DONE)
ARM GAS  /tmp/ccapfRJn.s 			page 29


1039:Middlewares/ST/STM32_USB_Host_Library/Core/Src/usbh_ctlreq.c ****       {
1040:Middlewares/ST/STM32_USB_Host_Library/Core/Src/usbh_ctlreq.c ****         status = USBH_OK;
1041:Middlewares/ST/STM32_USB_Host_Library/Core/Src/usbh_ctlreq.c ****         phost->Control.state = CTRL_COMPLETE;
1042:Middlewares/ST/STM32_USB_Host_Library/Core/Src/usbh_ctlreq.c **** 
1043:Middlewares/ST/STM32_USB_Host_Library/Core/Src/usbh_ctlreq.c **** #if (USBH_USE_OS == 1U)
1044:Middlewares/ST/STM32_USB_Host_Library/Core/Src/usbh_ctlreq.c ****         phost->os_msg = (uint32_t)USBH_CONTROL_EVENT;
1045:Middlewares/ST/STM32_USB_Host_Library/Core/Src/usbh_ctlreq.c **** #if (osCMSIS < 0x20000U)
1046:Middlewares/ST/STM32_USB_Host_Library/Core/Src/usbh_ctlreq.c ****         (void)osMessagePut(phost->os_event, phost->os_msg, 0U);
1047:Middlewares/ST/STM32_USB_Host_Library/Core/Src/usbh_ctlreq.c **** #else
1048:Middlewares/ST/STM32_USB_Host_Library/Core/Src/usbh_ctlreq.c ****         (void)osMessageQueuePut(phost->os_event, &phost->os_msg, 0U, 0U);
1049:Middlewares/ST/STM32_USB_Host_Library/Core/Src/usbh_ctlreq.c **** #endif
1050:Middlewares/ST/STM32_USB_Host_Library/Core/Src/usbh_ctlreq.c **** #endif
1051:Middlewares/ST/STM32_USB_Host_Library/Core/Src/usbh_ctlreq.c ****       }
1052:Middlewares/ST/STM32_USB_Host_Library/Core/Src/usbh_ctlreq.c ****       else if (URB_Status == USBH_URB_NOTREADY)
1053:Middlewares/ST/STM32_USB_Host_Library/Core/Src/usbh_ctlreq.c ****       {
1054:Middlewares/ST/STM32_USB_Host_Library/Core/Src/usbh_ctlreq.c ****         phost->Control.state = CTRL_STATUS_OUT;
1055:Middlewares/ST/STM32_USB_Host_Library/Core/Src/usbh_ctlreq.c **** 
1056:Middlewares/ST/STM32_USB_Host_Library/Core/Src/usbh_ctlreq.c **** #if (USBH_USE_OS == 1U)
1057:Middlewares/ST/STM32_USB_Host_Library/Core/Src/usbh_ctlreq.c ****         phost->os_msg = (uint32_t)USBH_CONTROL_EVENT;
1058:Middlewares/ST/STM32_USB_Host_Library/Core/Src/usbh_ctlreq.c **** #if (osCMSIS < 0x20000U)
1059:Middlewares/ST/STM32_USB_Host_Library/Core/Src/usbh_ctlreq.c ****         (void)osMessagePut(phost->os_event, phost->os_msg, 0U);
1060:Middlewares/ST/STM32_USB_Host_Library/Core/Src/usbh_ctlreq.c **** #else
1061:Middlewares/ST/STM32_USB_Host_Library/Core/Src/usbh_ctlreq.c ****         (void)osMessageQueuePut(phost->os_event, &phost->os_msg, 0U, 0U);
1062:Middlewares/ST/STM32_USB_Host_Library/Core/Src/usbh_ctlreq.c **** #endif
1063:Middlewares/ST/STM32_USB_Host_Library/Core/Src/usbh_ctlreq.c **** #endif
1064:Middlewares/ST/STM32_USB_Host_Library/Core/Src/usbh_ctlreq.c ****       }
1065:Middlewares/ST/STM32_USB_Host_Library/Core/Src/usbh_ctlreq.c ****       else
1066:Middlewares/ST/STM32_USB_Host_Library/Core/Src/usbh_ctlreq.c ****       {
1067:Middlewares/ST/STM32_USB_Host_Library/Core/Src/usbh_ctlreq.c ****         if (URB_Status == USBH_URB_ERROR)
1068:Middlewares/ST/STM32_USB_Host_Library/Core/Src/usbh_ctlreq.c ****         {
1069:Middlewares/ST/STM32_USB_Host_Library/Core/Src/usbh_ctlreq.c ****           phost->Control.state = CTRL_ERROR;
1070:Middlewares/ST/STM32_USB_Host_Library/Core/Src/usbh_ctlreq.c **** 
1071:Middlewares/ST/STM32_USB_Host_Library/Core/Src/usbh_ctlreq.c **** #if (USBH_USE_OS == 1U)
1072:Middlewares/ST/STM32_USB_Host_Library/Core/Src/usbh_ctlreq.c ****           phost->os_msg = (uint32_t)USBH_CONTROL_EVENT;
1073:Middlewares/ST/STM32_USB_Host_Library/Core/Src/usbh_ctlreq.c **** #if (osCMSIS < 0x20000U)
1074:Middlewares/ST/STM32_USB_Host_Library/Core/Src/usbh_ctlreq.c ****           (void)osMessagePut(phost->os_event, phost->os_msg, 0U);
1075:Middlewares/ST/STM32_USB_Host_Library/Core/Src/usbh_ctlreq.c **** #else
1076:Middlewares/ST/STM32_USB_Host_Library/Core/Src/usbh_ctlreq.c ****           (void)osMessageQueuePut(phost->os_event, &phost->os_msg, 0U, 0U);
1077:Middlewares/ST/STM32_USB_Host_Library/Core/Src/usbh_ctlreq.c **** #endif
1078:Middlewares/ST/STM32_USB_Host_Library/Core/Src/usbh_ctlreq.c **** #endif
1079:Middlewares/ST/STM32_USB_Host_Library/Core/Src/usbh_ctlreq.c ****         }
1080:Middlewares/ST/STM32_USB_Host_Library/Core/Src/usbh_ctlreq.c ****       }
1081:Middlewares/ST/STM32_USB_Host_Library/Core/Src/usbh_ctlreq.c ****       break;
1082:Middlewares/ST/STM32_USB_Host_Library/Core/Src/usbh_ctlreq.c **** 
1083:Middlewares/ST/STM32_USB_Host_Library/Core/Src/usbh_ctlreq.c ****     case CTRL_ERROR:
1084:Middlewares/ST/STM32_USB_Host_Library/Core/Src/usbh_ctlreq.c ****       /*
1085:Middlewares/ST/STM32_USB_Host_Library/Core/Src/usbh_ctlreq.c ****       After a halt condition is encountered or an error is detected by the
1086:Middlewares/ST/STM32_USB_Host_Library/Core/Src/usbh_ctlreq.c ****       host, a control endpoint is allowed to recover by accepting the next Setup
1087:Middlewares/ST/STM32_USB_Host_Library/Core/Src/usbh_ctlreq.c ****       PID; i.e., recovery actions via some other pipe are not required for control
1088:Middlewares/ST/STM32_USB_Host_Library/Core/Src/usbh_ctlreq.c ****       endpoints. For the Default Control Pipe, a device reset will ultimately be
1089:Middlewares/ST/STM32_USB_Host_Library/Core/Src/usbh_ctlreq.c ****       required to clear the halt or error condition if the next Setup PID is not
1090:Middlewares/ST/STM32_USB_Host_Library/Core/Src/usbh_ctlreq.c ****       accepted.
1091:Middlewares/ST/STM32_USB_Host_Library/Core/Src/usbh_ctlreq.c ****       */
1092:Middlewares/ST/STM32_USB_Host_Library/Core/Src/usbh_ctlreq.c ****       if (++phost->Control.errorcount <= USBH_MAX_ERROR_COUNT)
1093:Middlewares/ST/STM32_USB_Host_Library/Core/Src/usbh_ctlreq.c ****       {
1094:Middlewares/ST/STM32_USB_Host_Library/Core/Src/usbh_ctlreq.c ****         /* Do the transmission again, starting from SETUP Packet */
1095:Middlewares/ST/STM32_USB_Host_Library/Core/Src/usbh_ctlreq.c ****         phost->Control.state = CTRL_SETUP;
ARM GAS  /tmp/ccapfRJn.s 			page 30


1096:Middlewares/ST/STM32_USB_Host_Library/Core/Src/usbh_ctlreq.c ****         phost->RequestState = CMD_SEND;
1097:Middlewares/ST/STM32_USB_Host_Library/Core/Src/usbh_ctlreq.c ****       }
1098:Middlewares/ST/STM32_USB_Host_Library/Core/Src/usbh_ctlreq.c ****       else
1099:Middlewares/ST/STM32_USB_Host_Library/Core/Src/usbh_ctlreq.c ****       {
1100:Middlewares/ST/STM32_USB_Host_Library/Core/Src/usbh_ctlreq.c ****         phost->pUser(phost, HOST_USER_UNRECOVERED_ERROR);
1101:Middlewares/ST/STM32_USB_Host_Library/Core/Src/usbh_ctlreq.c ****         phost->Control.errorcount = 0U;
1102:Middlewares/ST/STM32_USB_Host_Library/Core/Src/usbh_ctlreq.c ****         USBH_ErrLog("Control error: Device not responding");
1103:Middlewares/ST/STM32_USB_Host_Library/Core/Src/usbh_ctlreq.c **** 
1104:Middlewares/ST/STM32_USB_Host_Library/Core/Src/usbh_ctlreq.c ****         /* Free control pipes */
1105:Middlewares/ST/STM32_USB_Host_Library/Core/Src/usbh_ctlreq.c ****         (void)USBH_FreePipe(phost, phost->Control.pipe_out);
1106:Middlewares/ST/STM32_USB_Host_Library/Core/Src/usbh_ctlreq.c ****         (void)USBH_FreePipe(phost, phost->Control.pipe_in);
1107:Middlewares/ST/STM32_USB_Host_Library/Core/Src/usbh_ctlreq.c **** 
1108:Middlewares/ST/STM32_USB_Host_Library/Core/Src/usbh_ctlreq.c ****         phost->gState = HOST_IDLE;
1109:Middlewares/ST/STM32_USB_Host_Library/Core/Src/usbh_ctlreq.c ****         status = USBH_FAIL;
1110:Middlewares/ST/STM32_USB_Host_Library/Core/Src/usbh_ctlreq.c ****       }
1111:Middlewares/ST/STM32_USB_Host_Library/Core/Src/usbh_ctlreq.c ****       break;
1112:Middlewares/ST/STM32_USB_Host_Library/Core/Src/usbh_ctlreq.c **** 
1113:Middlewares/ST/STM32_USB_Host_Library/Core/Src/usbh_ctlreq.c ****     default:
1114:Middlewares/ST/STM32_USB_Host_Library/Core/Src/usbh_ctlreq.c ****       break;
1115:Middlewares/ST/STM32_USB_Host_Library/Core/Src/usbh_ctlreq.c ****   }
1116:Middlewares/ST/STM32_USB_Host_Library/Core/Src/usbh_ctlreq.c **** 
1117:Middlewares/ST/STM32_USB_Host_Library/Core/Src/usbh_ctlreq.c ****   return status;
 539              		.loc 1 1117 3 view .LVU172
1118:Middlewares/ST/STM32_USB_Host_Library/Core/Src/usbh_ctlreq.c **** }
 540              		.loc 1 1118 1 is_stmt 0 view .LVU173
 541 0038 2846     		mov	r0, r5
 542 003a 03B0     		add	sp, sp, #12
 543              	.LCFI9:
 544              		.cfi_remember_state
 545              		.cfi_def_cfa_offset 12
 546              		@ sp needed
 547 003c 30BD     		pop	{r4, r5, pc}
 548              	.LVL30:
 549              	.L46:
 550              	.LCFI10:
 551              		.cfi_restore_state
 766:Middlewares/ST/STM32_USB_Host_Library/Core/Src/usbh_ctlreq.c ****       /* case SETUP packet sent successfully */
 552              		.loc 1 766 7 is_stmt 1 view .LVU174
 766:Middlewares/ST/STM32_USB_Host_Library/Core/Src/usbh_ctlreq.c ****       /* case SETUP packet sent successfully */
 553              		.loc 1 766 20 is_stmt 0 view .LVU175
 554 003e 4179     		ldrb	r1, [r0, #5]	@ zero_extendqisi2
 555 0040 FFF7FEFF 		bl	USBH_LL_GetURBState
 556              	.LVL31:
 766:Middlewares/ST/STM32_USB_Host_Library/Core/Src/usbh_ctlreq.c ****       /* case SETUP packet sent successfully */
 557              		.loc 1 766 20 view .LVU176
 558 0044 0546     		mov	r5, r0
 559              	.LVL32:
 768:Middlewares/ST/STM32_USB_Host_Library/Core/Src/usbh_ctlreq.c ****       {
 560              		.loc 1 768 7 is_stmt 1 view .LVU177
 768:Middlewares/ST/STM32_USB_Host_Library/Core/Src/usbh_ctlreq.c ****       {
 561              		.loc 1 768 10 is_stmt 0 view .LVU178
 562 0046 0128     		cmp	r0, #1
 563 0048 05D0     		beq	.L71
 813:Middlewares/ST/STM32_USB_Host_Library/Core/Src/usbh_ctlreq.c ****         {
 564              		.loc 1 813 9 is_stmt 1 view .LVU179
 813:Middlewares/ST/STM32_USB_Host_Library/Core/Src/usbh_ctlreq.c ****         {
 565              		.loc 1 813 12 is_stmt 0 view .LVU180
ARM GAS  /tmp/ccapfRJn.s 			page 31


 566 004a 0428     		cmp	r0, #4
 567 004c 23D0     		beq	.L53
 813:Middlewares/ST/STM32_USB_Host_Library/Core/Src/usbh_ctlreq.c ****         {
 568              		.loc 1 813 44 discriminator 1 view .LVU181
 569 004e 0228     		cmp	r0, #2
 570 0050 21D0     		beq	.L53
 751:Middlewares/ST/STM32_USB_Host_Library/Core/Src/usbh_ctlreq.c ****   USBH_URBStateTypeDef URB_Status = USBH_URB_IDLE;
 571              		.loc 1 751 22 view .LVU182
 572 0052 0125     		movs	r5, #1
 573 0054 F0E7     		b	.L35
 574              	.L71:
 770:Middlewares/ST/STM32_USB_Host_Library/Core/Src/usbh_ctlreq.c **** 
 575              		.loc 1 770 9 is_stmt 1 view .LVU183
 770:Middlewares/ST/STM32_USB_Host_Library/Core/Src/usbh_ctlreq.c **** 
 576              		.loc 1 770 44 is_stmt 0 view .LVU184
 577 0056 237C     		ldrb	r3, [r4, #16]	@ zero_extendqisi2
 578              	.LVL33:
 773:Middlewares/ST/STM32_USB_Host_Library/Core/Src/usbh_ctlreq.c ****         {
 579              		.loc 1 773 9 is_stmt 1 view .LVU185
 773:Middlewares/ST/STM32_USB_Host_Library/Core/Src/usbh_ctlreq.c ****         {
 580              		.loc 1 773 43 is_stmt 0 view .LVU186
 581 0058 E28A     		ldrh	r2, [r4, #22]
 773:Middlewares/ST/STM32_USB_Host_Library/Core/Src/usbh_ctlreq.c ****         {
 582              		.loc 1 773 12 view .LVU187
 583 005a 9AB1     		cbz	r2, .L49
 775:Middlewares/ST/STM32_USB_Host_Library/Core/Src/usbh_ctlreq.c ****           {
 584              		.loc 1 775 11 is_stmt 1 view .LVU188
 775:Middlewares/ST/STM32_USB_Host_Library/Core/Src/usbh_ctlreq.c ****           {
 585              		.loc 1 775 14 is_stmt 0 view .LVU189
 586 005c 13F0800F 		tst	r3, #128
 587 0060 0DD1     		bne	.L72
 783:Middlewares/ST/STM32_USB_Host_Library/Core/Src/usbh_ctlreq.c ****           }
 588              		.loc 1 783 13 is_stmt 1 view .LVU190
 783:Middlewares/ST/STM32_USB_Host_Library/Core/Src/usbh_ctlreq.c ****           }
 589              		.loc 1 783 34 is_stmt 0 view .LVU191
 590 0062 0523     		movs	r3, #5
 591              	.LVL34:
 783:Middlewares/ST/STM32_USB_Host_Library/Core/Src/usbh_ctlreq.c ****           }
 592              		.loc 1 783 34 view .LVU192
 593 0064 2376     		strb	r3, [r4, #24]
 594              	.L51:
 803:Middlewares/ST/STM32_USB_Host_Library/Core/Src/usbh_ctlreq.c **** #if (osCMSIS < 0x20000U)
 595              		.loc 1 803 9 is_stmt 1 view .LVU193
 803:Middlewares/ST/STM32_USB_Host_Library/Core/Src/usbh_ctlreq.c **** #if (osCMSIS < 0x20000U)
 596              		.loc 1 803 23 is_stmt 0 view .LVU194
 597 0066 0323     		movs	r3, #3
 598 0068 C4F8E033 		str	r3, [r4, #992]
 807:Middlewares/ST/STM32_USB_Host_Library/Core/Src/usbh_ctlreq.c **** #endif
 599              		.loc 1 807 9 is_stmt 1 view .LVU195
 807:Middlewares/ST/STM32_USB_Host_Library/Core/Src/usbh_ctlreq.c **** #endif
 600              		.loc 1 807 15 is_stmt 0 view .LVU196
 601 006c 0023     		movs	r3, #0
 602 006e 1A46     		mov	r2, r3
 603 0070 04F57871 		add	r1, r4, #992
 604 0074 D4F8D803 		ldr	r0, [r4, #984]
 605              	.LVL35:
 807:Middlewares/ST/STM32_USB_Host_Library/Core/Src/usbh_ctlreq.c **** #endif
ARM GAS  /tmp/ccapfRJn.s 			page 32


 606              		.loc 1 807 15 view .LVU197
 607 0078 FFF7FEFF 		bl	osMessageQueuePut
 608              	.LVL36:
 807:Middlewares/ST/STM32_USB_Host_Library/Core/Src/usbh_ctlreq.c **** #endif
 609              		.loc 1 807 15 view .LVU198
 610 007c DCE7     		b	.L35
 611              	.LVL37:
 612              	.L72:
 778:Middlewares/ST/STM32_USB_Host_Library/Core/Src/usbh_ctlreq.c ****           }
 613              		.loc 1 778 13 is_stmt 1 view .LVU199
 778:Middlewares/ST/STM32_USB_Host_Library/Core/Src/usbh_ctlreq.c ****           }
 614              		.loc 1 778 34 is_stmt 0 view .LVU200
 615 007e 0323     		movs	r3, #3
 616              	.LVL38:
 778:Middlewares/ST/STM32_USB_Host_Library/Core/Src/usbh_ctlreq.c ****           }
 617              		.loc 1 778 34 view .LVU201
 618 0080 2376     		strb	r3, [r4, #24]
 619 0082 F0E7     		b	.L51
 620              	.LVL39:
 621              	.L49:
 790:Middlewares/ST/STM32_USB_Host_Library/Core/Src/usbh_ctlreq.c ****           {
 622              		.loc 1 790 11 is_stmt 1 view .LVU202
 790:Middlewares/ST/STM32_USB_Host_Library/Core/Src/usbh_ctlreq.c ****           {
 623              		.loc 1 790 14 is_stmt 0 view .LVU203
 624 0084 13F0800F 		tst	r3, #128
 625 0088 02D1     		bne	.L73
 798:Middlewares/ST/STM32_USB_Host_Library/Core/Src/usbh_ctlreq.c ****           }
 626              		.loc 1 798 13 is_stmt 1 view .LVU204
 798:Middlewares/ST/STM32_USB_Host_Library/Core/Src/usbh_ctlreq.c ****           }
 627              		.loc 1 798 34 is_stmt 0 view .LVU205
 628 008a 0723     		movs	r3, #7
 629              	.LVL40:
 798:Middlewares/ST/STM32_USB_Host_Library/Core/Src/usbh_ctlreq.c ****           }
 630              		.loc 1 798 34 view .LVU206
 631 008c 2376     		strb	r3, [r4, #24]
 632 008e EAE7     		b	.L51
 633              	.LVL41:
 634              	.L73:
 793:Middlewares/ST/STM32_USB_Host_Library/Core/Src/usbh_ctlreq.c ****           }
 635              		.loc 1 793 13 is_stmt 1 view .LVU207
 793:Middlewares/ST/STM32_USB_Host_Library/Core/Src/usbh_ctlreq.c ****           }
 636              		.loc 1 793 34 is_stmt 0 view .LVU208
 637 0090 0923     		movs	r3, #9
 638              	.LVL42:
 793:Middlewares/ST/STM32_USB_Host_Library/Core/Src/usbh_ctlreq.c ****           }
 639              		.loc 1 793 34 view .LVU209
 640 0092 2376     		strb	r3, [r4, #24]
 641 0094 E7E7     		b	.L51
 642              	.LVL43:
 643              	.L53:
 815:Middlewares/ST/STM32_USB_Host_Library/Core/Src/usbh_ctlreq.c **** 
 644              		.loc 1 815 11 is_stmt 1 view .LVU210
 815:Middlewares/ST/STM32_USB_Host_Library/Core/Src/usbh_ctlreq.c **** 
 645              		.loc 1 815 32 is_stmt 0 view .LVU211
 646 0096 0B23     		movs	r3, #11
 647 0098 2376     		strb	r3, [r4, #24]
 818:Middlewares/ST/STM32_USB_Host_Library/Core/Src/usbh_ctlreq.c **** #if (osCMSIS < 0x20000U)
ARM GAS  /tmp/ccapfRJn.s 			page 33


 648              		.loc 1 818 11 is_stmt 1 view .LVU212
 818:Middlewares/ST/STM32_USB_Host_Library/Core/Src/usbh_ctlreq.c **** #if (osCMSIS < 0x20000U)
 649              		.loc 1 818 25 is_stmt 0 view .LVU213
 650 009a 0323     		movs	r3, #3
 651 009c C4F8E033 		str	r3, [r4, #992]
 822:Middlewares/ST/STM32_USB_Host_Library/Core/Src/usbh_ctlreq.c **** #endif
 652              		.loc 1 822 11 is_stmt 1 view .LVU214
 822:Middlewares/ST/STM32_USB_Host_Library/Core/Src/usbh_ctlreq.c **** #endif
 653              		.loc 1 822 17 is_stmt 0 view .LVU215
 654 00a0 0023     		movs	r3, #0
 655 00a2 1A46     		mov	r2, r3
 656 00a4 04F57871 		add	r1, r4, #992
 657 00a8 D4F8D803 		ldr	r0, [r4, #984]
 658              	.LVL44:
 822:Middlewares/ST/STM32_USB_Host_Library/Core/Src/usbh_ctlreq.c **** #endif
 659              		.loc 1 822 17 view .LVU216
 660 00ac FFF7FEFF 		bl	osMessageQueuePut
 661              	.LVL45:
 751:Middlewares/ST/STM32_USB_Host_Library/Core/Src/usbh_ctlreq.c ****   USBH_URBStateTypeDef URB_Status = USBH_URB_IDLE;
 662              		.loc 1 751 22 view .LVU217
 663 00b0 0125     		movs	r5, #1
 664 00b2 C1E7     		b	.L35
 665              	.LVL46:
 666              	.L45:
 831:Middlewares/ST/STM32_USB_Host_Library/Core/Src/usbh_ctlreq.c ****       (void)USBH_CtlReceiveData(phost, phost->Control.buff,
 667              		.loc 1 831 7 is_stmt 1 view .LVU218
 831:Middlewares/ST/STM32_USB_Host_Library/Core/Src/usbh_ctlreq.c ****       (void)USBH_CtlReceiveData(phost, phost->Control.buff,
 668              		.loc 1 831 45 is_stmt 0 view .LVU219
 669 00b4 D0F8C433 		ldr	r3, [r0, #964]
 831:Middlewares/ST/STM32_USB_Host_Library/Core/Src/usbh_ctlreq.c ****       (void)USBH_CtlReceiveData(phost, phost->Control.buff,
 670              		.loc 1 831 28 view .LVU220
 671 00b8 C381     		strh	r3, [r0, #14]	@ movhi
 832:Middlewares/ST/STM32_USB_Host_Library/Core/Src/usbh_ctlreq.c ****                                 phost->Control.length, phost->Control.pipe_in);
 672              		.loc 1 832 7 is_stmt 1 view .LVU221
 832:Middlewares/ST/STM32_USB_Host_Library/Core/Src/usbh_ctlreq.c ****                                 phost->Control.length, phost->Control.pipe_in);
 673              		.loc 1 832 13 is_stmt 0 view .LVU222
 674 00ba 0379     		ldrb	r3, [r0, #4]	@ zero_extendqisi2
 675 00bc 8289     		ldrh	r2, [r0, #12]
 676 00be 8168     		ldr	r1, [r0, #8]
 677 00c0 FFF7FEFF 		bl	USBH_CtlReceiveData
 678              	.LVL47:
 835:Middlewares/ST/STM32_USB_Host_Library/Core/Src/usbh_ctlreq.c ****       break;
 679              		.loc 1 835 7 is_stmt 1 view .LVU223
 835:Middlewares/ST/STM32_USB_Host_Library/Core/Src/usbh_ctlreq.c ****       break;
 680              		.loc 1 835 28 is_stmt 0 view .LVU224
 681 00c4 0423     		movs	r3, #4
 682 00c6 2376     		strb	r3, [r4, #24]
 836:Middlewares/ST/STM32_USB_Host_Library/Core/Src/usbh_ctlreq.c **** 
 683              		.loc 1 836 7 is_stmt 1 view .LVU225
 751:Middlewares/ST/STM32_USB_Host_Library/Core/Src/usbh_ctlreq.c ****   USBH_URBStateTypeDef URB_Status = USBH_URB_IDLE;
 684              		.loc 1 751 22 is_stmt 0 view .LVU226
 685 00c8 0125     		movs	r5, #1
 836:Middlewares/ST/STM32_USB_Host_Library/Core/Src/usbh_ctlreq.c **** 
 686              		.loc 1 836 7 view .LVU227
 687 00ca B5E7     		b	.L35
 688              	.LVL48:
 689              	.L44:
ARM GAS  /tmp/ccapfRJn.s 			page 34


 840:Middlewares/ST/STM32_USB_Host_Library/Core/Src/usbh_ctlreq.c **** 
 690              		.loc 1 840 7 is_stmt 1 view .LVU228
 840:Middlewares/ST/STM32_USB_Host_Library/Core/Src/usbh_ctlreq.c **** 
 691              		.loc 1 840 20 is_stmt 0 view .LVU229
 692 00cc 0179     		ldrb	r1, [r0, #4]	@ zero_extendqisi2
 693 00ce FFF7FEFF 		bl	USBH_LL_GetURBState
 694              	.LVL49:
 840:Middlewares/ST/STM32_USB_Host_Library/Core/Src/usbh_ctlreq.c **** 
 695              		.loc 1 840 20 view .LVU230
 696 00d2 0546     		mov	r5, r0
 697              	.LVL50:
 843:Middlewares/ST/STM32_USB_Host_Library/Core/Src/usbh_ctlreq.c ****       {
 698              		.loc 1 843 7 is_stmt 1 view .LVU231
 843:Middlewares/ST/STM32_USB_Host_Library/Core/Src/usbh_ctlreq.c ****       {
 699              		.loc 1 843 10 is_stmt 0 view .LVU232
 700 00d4 0128     		cmp	r0, #1
 701 00d6 05D0     		beq	.L74
 702              	.LVL51:
 703              	.L54:
 858:Middlewares/ST/STM32_USB_Host_Library/Core/Src/usbh_ctlreq.c ****       {
 704              		.loc 1 858 7 is_stmt 1 view .LVU233
 858:Middlewares/ST/STM32_USB_Host_Library/Core/Src/usbh_ctlreq.c ****       {
 705              		.loc 1 858 10 is_stmt 0 view .LVU234
 706 00d8 052D     		cmp	r5, #5
 707 00da 11D0     		beq	.L75
 874:Middlewares/ST/STM32_USB_Host_Library/Core/Src/usbh_ctlreq.c ****         {
 708              		.loc 1 874 9 is_stmt 1 view .LVU235
 874:Middlewares/ST/STM32_USB_Host_Library/Core/Src/usbh_ctlreq.c ****         {
 709              		.loc 1 874 12 is_stmt 0 view .LVU236
 710 00dc 042D     		cmp	r5, #4
 711 00de 1BD0     		beq	.L76
 751:Middlewares/ST/STM32_USB_Host_Library/Core/Src/usbh_ctlreq.c ****   USBH_URBStateTypeDef URB_Status = USBH_URB_IDLE;
 712              		.loc 1 751 22 view .LVU237
 713 00e0 0125     		movs	r5, #1
 714 00e2 A9E7     		b	.L35
 715              	.LVL52:
 716              	.L74:
 845:Middlewares/ST/STM32_USB_Host_Library/Core/Src/usbh_ctlreq.c **** 
 717              		.loc 1 845 9 is_stmt 1 view .LVU238
 845:Middlewares/ST/STM32_USB_Host_Library/Core/Src/usbh_ctlreq.c **** 
 718              		.loc 1 845 30 is_stmt 0 view .LVU239
 719 00e4 0923     		movs	r3, #9
 720 00e6 2376     		strb	r3, [r4, #24]
 848:Middlewares/ST/STM32_USB_Host_Library/Core/Src/usbh_ctlreq.c **** #if (osCMSIS < 0x20000U)
 721              		.loc 1 848 9 is_stmt 1 view .LVU240
 848:Middlewares/ST/STM32_USB_Host_Library/Core/Src/usbh_ctlreq.c **** #if (osCMSIS < 0x20000U)
 722              		.loc 1 848 23 is_stmt 0 view .LVU241
 723 00e8 0323     		movs	r3, #3
 724 00ea C4F8E033 		str	r3, [r4, #992]
 852:Middlewares/ST/STM32_USB_Host_Library/Core/Src/usbh_ctlreq.c **** #endif
 725              		.loc 1 852 9 is_stmt 1 view .LVU242
 852:Middlewares/ST/STM32_USB_Host_Library/Core/Src/usbh_ctlreq.c **** #endif
 726              		.loc 1 852 15 is_stmt 0 view .LVU243
 727 00ee 0023     		movs	r3, #0
 728 00f0 1A46     		mov	r2, r3
 729 00f2 04F57871 		add	r1, r4, #992
 730 00f6 D4F8D803 		ldr	r0, [r4, #984]
ARM GAS  /tmp/ccapfRJn.s 			page 35


 731              	.LVL53:
 852:Middlewares/ST/STM32_USB_Host_Library/Core/Src/usbh_ctlreq.c **** #endif
 732              		.loc 1 852 15 view .LVU244
 733 00fa FFF7FEFF 		bl	osMessageQueuePut
 734              	.LVL54:
 735 00fe EBE7     		b	.L54
 736              	.L75:
 861:Middlewares/ST/STM32_USB_Host_Library/Core/Src/usbh_ctlreq.c **** 
 737              		.loc 1 861 9 is_stmt 1 view .LVU245
 738              	.LVL55:
 864:Middlewares/ST/STM32_USB_Host_Library/Core/Src/usbh_ctlreq.c **** #if (osCMSIS < 0x20000U)
 739              		.loc 1 864 9 view .LVU246
 864:Middlewares/ST/STM32_USB_Host_Library/Core/Src/usbh_ctlreq.c **** #if (osCMSIS < 0x20000U)
 740              		.loc 1 864 23 is_stmt 0 view .LVU247
 741 0100 0325     		movs	r5, #3
 742 0102 C4F8E053 		str	r5, [r4, #992]
 868:Middlewares/ST/STM32_USB_Host_Library/Core/Src/usbh_ctlreq.c **** #endif
 743              		.loc 1 868 9 is_stmt 1 view .LVU248
 868:Middlewares/ST/STM32_USB_Host_Library/Core/Src/usbh_ctlreq.c **** #endif
 744              		.loc 1 868 15 is_stmt 0 view .LVU249
 745 0106 0023     		movs	r3, #0
 746 0108 1A46     		mov	r2, r3
 747 010a 04F57871 		add	r1, r4, #992
 748 010e D4F8D803 		ldr	r0, [r4, #984]
 749 0112 FFF7FEFF 		bl	osMessageQueuePut
 750              	.LVL56:
 751 0116 8FE7     		b	.L35
 752              	.LVL57:
 753              	.L76:
 877:Middlewares/ST/STM32_USB_Host_Library/Core/Src/usbh_ctlreq.c **** 
 754              		.loc 1 877 11 is_stmt 1 view .LVU250
 877:Middlewares/ST/STM32_USB_Host_Library/Core/Src/usbh_ctlreq.c **** 
 755              		.loc 1 877 32 is_stmt 0 view .LVU251
 756 0118 0B23     		movs	r3, #11
 757 011a 2376     		strb	r3, [r4, #24]
 880:Middlewares/ST/STM32_USB_Host_Library/Core/Src/usbh_ctlreq.c **** #if (osCMSIS < 0x20000U)
 758              		.loc 1 880 11 is_stmt 1 view .LVU252
 880:Middlewares/ST/STM32_USB_Host_Library/Core/Src/usbh_ctlreq.c **** #if (osCMSIS < 0x20000U)
 759              		.loc 1 880 25 is_stmt 0 view .LVU253
 760 011c 0323     		movs	r3, #3
 761 011e C4F8E033 		str	r3, [r4, #992]
 884:Middlewares/ST/STM32_USB_Host_Library/Core/Src/usbh_ctlreq.c **** #endif
 762              		.loc 1 884 11 is_stmt 1 view .LVU254
 884:Middlewares/ST/STM32_USB_Host_Library/Core/Src/usbh_ctlreq.c **** #endif
 763              		.loc 1 884 17 is_stmt 0 view .LVU255
 764 0122 0023     		movs	r3, #0
 765 0124 1A46     		mov	r2, r3
 766 0126 04F57871 		add	r1, r4, #992
 767 012a D4F8D803 		ldr	r0, [r4, #984]
 768 012e FFF7FEFF 		bl	osMessageQueuePut
 769              	.LVL58:
 751:Middlewares/ST/STM32_USB_Host_Library/Core/Src/usbh_ctlreq.c ****   USBH_URBStateTypeDef URB_Status = USBH_URB_IDLE;
 770              		.loc 1 751 22 view .LVU256
 771 0132 0125     		movs	r5, #1
 772 0134 80E7     		b	.L35
 773              	.LVL59:
 774              	.L43:
ARM GAS  /tmp/ccapfRJn.s 			page 36


 893:Middlewares/ST/STM32_USB_Host_Library/Core/Src/usbh_ctlreq.c ****                              phost->Control.pipe_out, 1U);
 775              		.loc 1 893 7 is_stmt 1 view .LVU257
 893:Middlewares/ST/STM32_USB_Host_Library/Core/Src/usbh_ctlreq.c ****                              phost->Control.pipe_out, 1U);
 776              		.loc 1 893 13 is_stmt 0 view .LVU258
 777 0136 0125     		movs	r5, #1
 778 0138 0095     		str	r5, [sp]
 779 013a 4379     		ldrb	r3, [r0, #5]	@ zero_extendqisi2
 780 013c 8289     		ldrh	r2, [r0, #12]
 781 013e 8168     		ldr	r1, [r0, #8]
 782 0140 FFF7FEFF 		bl	USBH_CtlSendData
 783              	.LVL60:
 896:Middlewares/ST/STM32_USB_Host_Library/Core/Src/usbh_ctlreq.c ****       phost->Control.state = CTRL_DATA_OUT_WAIT;
 784              		.loc 1 896 7 is_stmt 1 view .LVU259
 896:Middlewares/ST/STM32_USB_Host_Library/Core/Src/usbh_ctlreq.c ****       phost->Control.state = CTRL_DATA_OUT_WAIT;
 785              		.loc 1 896 45 is_stmt 0 view .LVU260
 786 0144 D4F8C433 		ldr	r3, [r4, #964]
 896:Middlewares/ST/STM32_USB_Host_Library/Core/Src/usbh_ctlreq.c ****       phost->Control.state = CTRL_DATA_OUT_WAIT;
 787              		.loc 1 896 28 view .LVU261
 788 0148 E381     		strh	r3, [r4, #14]	@ movhi
 897:Middlewares/ST/STM32_USB_Host_Library/Core/Src/usbh_ctlreq.c ****       break;
 789              		.loc 1 897 7 is_stmt 1 view .LVU262
 897:Middlewares/ST/STM32_USB_Host_Library/Core/Src/usbh_ctlreq.c ****       break;
 790              		.loc 1 897 28 is_stmt 0 view .LVU263
 791 014a 0623     		movs	r3, #6
 792 014c 2376     		strb	r3, [r4, #24]
 898:Middlewares/ST/STM32_USB_Host_Library/Core/Src/usbh_ctlreq.c **** 
 793              		.loc 1 898 7 is_stmt 1 view .LVU264
 794 014e 73E7     		b	.L35
 795              	.LVL61:
 796              	.L42:
 902:Middlewares/ST/STM32_USB_Host_Library/Core/Src/usbh_ctlreq.c **** 
 797              		.loc 1 902 7 view .LVU265
 902:Middlewares/ST/STM32_USB_Host_Library/Core/Src/usbh_ctlreq.c **** 
 798              		.loc 1 902 20 is_stmt 0 view .LVU266
 799 0150 4179     		ldrb	r1, [r0, #5]	@ zero_extendqisi2
 800 0152 FFF7FEFF 		bl	USBH_LL_GetURBState
 801              	.LVL62:
 902:Middlewares/ST/STM32_USB_Host_Library/Core/Src/usbh_ctlreq.c **** 
 802              		.loc 1 902 20 view .LVU267
 803 0156 0546     		mov	r5, r0
 804              	.LVL63:
 904:Middlewares/ST/STM32_USB_Host_Library/Core/Src/usbh_ctlreq.c ****       {
 805              		.loc 1 904 7 is_stmt 1 view .LVU268
 904:Middlewares/ST/STM32_USB_Host_Library/Core/Src/usbh_ctlreq.c ****       {
 806              		.loc 1 904 10 is_stmt 0 view .LVU269
 807 0158 0128     		cmp	r0, #1
 808 015a 07D0     		beq	.L77
 920:Middlewares/ST/STM32_USB_Host_Library/Core/Src/usbh_ctlreq.c ****       {
 809              		.loc 1 920 12 is_stmt 1 view .LVU270
 920:Middlewares/ST/STM32_USB_Host_Library/Core/Src/usbh_ctlreq.c ****       {
 810              		.loc 1 920 15 is_stmt 0 view .LVU271
 811 015c 0528     		cmp	r0, #5
 812 015e 13D0     		beq	.L78
 935:Middlewares/ST/STM32_USB_Host_Library/Core/Src/usbh_ctlreq.c ****       {
 813              		.loc 1 935 12 is_stmt 1 view .LVU272
 935:Middlewares/ST/STM32_USB_Host_Library/Core/Src/usbh_ctlreq.c ****       {
 814              		.loc 1 935 15 is_stmt 0 view .LVU273
ARM GAS  /tmp/ccapfRJn.s 			page 37


 815 0160 0228     		cmp	r0, #2
 816 0162 1FD0     		beq	.L79
 951:Middlewares/ST/STM32_USB_Host_Library/Core/Src/usbh_ctlreq.c ****         {
 817              		.loc 1 951 9 is_stmt 1 view .LVU274
 951:Middlewares/ST/STM32_USB_Host_Library/Core/Src/usbh_ctlreq.c ****         {
 818              		.loc 1 951 12 is_stmt 0 view .LVU275
 819 0164 0428     		cmp	r0, #4
 820 0166 2CD0     		beq	.L80
 751:Middlewares/ST/STM32_USB_Host_Library/Core/Src/usbh_ctlreq.c ****   USBH_URBStateTypeDef URB_Status = USBH_URB_IDLE;
 821              		.loc 1 751 22 view .LVU276
 822 0168 0125     		movs	r5, #1
 823 016a 65E7     		b	.L35
 824              	.L77:
 907:Middlewares/ST/STM32_USB_Host_Library/Core/Src/usbh_ctlreq.c **** 
 825              		.loc 1 907 9 is_stmt 1 view .LVU277
 907:Middlewares/ST/STM32_USB_Host_Library/Core/Src/usbh_ctlreq.c **** 
 826              		.loc 1 907 30 is_stmt 0 view .LVU278
 827 016c 0723     		movs	r3, #7
 828 016e 2376     		strb	r3, [r4, #24]
 910:Middlewares/ST/STM32_USB_Host_Library/Core/Src/usbh_ctlreq.c **** #if (osCMSIS < 0x20000U)
 829              		.loc 1 910 9 is_stmt 1 view .LVU279
 910:Middlewares/ST/STM32_USB_Host_Library/Core/Src/usbh_ctlreq.c **** #if (osCMSIS < 0x20000U)
 830              		.loc 1 910 23 is_stmt 0 view .LVU280
 831 0170 0323     		movs	r3, #3
 832 0172 C4F8E033 		str	r3, [r4, #992]
 914:Middlewares/ST/STM32_USB_Host_Library/Core/Src/usbh_ctlreq.c **** #endif
 833              		.loc 1 914 9 is_stmt 1 view .LVU281
 914:Middlewares/ST/STM32_USB_Host_Library/Core/Src/usbh_ctlreq.c **** #endif
 834              		.loc 1 914 15 is_stmt 0 view .LVU282
 835 0176 0023     		movs	r3, #0
 836 0178 1A46     		mov	r2, r3
 837 017a 04F57871 		add	r1, r4, #992
 838 017e D4F8D803 		ldr	r0, [r4, #984]
 839              	.LVL64:
 914:Middlewares/ST/STM32_USB_Host_Library/Core/Src/usbh_ctlreq.c **** #endif
 840              		.loc 1 914 15 view .LVU283
 841 0182 FFF7FEFF 		bl	osMessageQueuePut
 842              	.LVL65:
 843 0186 57E7     		b	.L35
 844              	.LVL66:
 845              	.L78:
 923:Middlewares/ST/STM32_USB_Host_Library/Core/Src/usbh_ctlreq.c ****         status = USBH_NOT_SUPPORTED;
 846              		.loc 1 923 9 is_stmt 1 view .LVU284
 923:Middlewares/ST/STM32_USB_Host_Library/Core/Src/usbh_ctlreq.c ****         status = USBH_NOT_SUPPORTED;
 847              		.loc 1 923 30 is_stmt 0 view .LVU285
 848 0188 0C23     		movs	r3, #12
 849 018a 2376     		strb	r3, [r4, #24]
 924:Middlewares/ST/STM32_USB_Host_Library/Core/Src/usbh_ctlreq.c **** 
 850              		.loc 1 924 9 is_stmt 1 view .LVU286
 851              	.LVL67:
 927:Middlewares/ST/STM32_USB_Host_Library/Core/Src/usbh_ctlreq.c **** #if (osCMSIS < 0x20000U)
 852              		.loc 1 927 9 view .LVU287
 927:Middlewares/ST/STM32_USB_Host_Library/Core/Src/usbh_ctlreq.c **** #if (osCMSIS < 0x20000U)
 853              		.loc 1 927 23 is_stmt 0 view .LVU288
 854 018c 0325     		movs	r5, #3
 855 018e C4F8E053 		str	r5, [r4, #992]
 931:Middlewares/ST/STM32_USB_Host_Library/Core/Src/usbh_ctlreq.c **** #endif
ARM GAS  /tmp/ccapfRJn.s 			page 38


 856              		.loc 1 931 9 is_stmt 1 view .LVU289
 931:Middlewares/ST/STM32_USB_Host_Library/Core/Src/usbh_ctlreq.c **** #endif
 857              		.loc 1 931 15 is_stmt 0 view .LVU290
 858 0192 0023     		movs	r3, #0
 859 0194 1A46     		mov	r2, r3
 860 0196 04F57871 		add	r1, r4, #992
 861 019a D4F8D803 		ldr	r0, [r4, #984]
 862              	.LVL68:
 931:Middlewares/ST/STM32_USB_Host_Library/Core/Src/usbh_ctlreq.c **** #endif
 863              		.loc 1 931 15 view .LVU291
 864 019e FFF7FEFF 		bl	osMessageQueuePut
 865              	.LVL69:
 866 01a2 49E7     		b	.L35
 867              	.LVL70:
 868              	.L79:
 938:Middlewares/ST/STM32_USB_Host_Library/Core/Src/usbh_ctlreq.c **** 
 869              		.loc 1 938 9 is_stmt 1 view .LVU292
 938:Middlewares/ST/STM32_USB_Host_Library/Core/Src/usbh_ctlreq.c **** 
 870              		.loc 1 938 30 is_stmt 0 view .LVU293
 871 01a4 0523     		movs	r3, #5
 872 01a6 2376     		strb	r3, [r4, #24]
 941:Middlewares/ST/STM32_USB_Host_Library/Core/Src/usbh_ctlreq.c **** #if (osCMSIS < 0x20000U)
 873              		.loc 1 941 9 is_stmt 1 view .LVU294
 941:Middlewares/ST/STM32_USB_Host_Library/Core/Src/usbh_ctlreq.c **** #if (osCMSIS < 0x20000U)
 874              		.loc 1 941 23 is_stmt 0 view .LVU295
 875 01a8 0323     		movs	r3, #3
 876 01aa C4F8E033 		str	r3, [r4, #992]
 945:Middlewares/ST/STM32_USB_Host_Library/Core/Src/usbh_ctlreq.c **** #endif
 877              		.loc 1 945 9 is_stmt 1 view .LVU296
 945:Middlewares/ST/STM32_USB_Host_Library/Core/Src/usbh_ctlreq.c **** #endif
 878              		.loc 1 945 15 is_stmt 0 view .LVU297
 879 01ae 0023     		movs	r3, #0
 880 01b0 1A46     		mov	r2, r3
 881 01b2 04F57871 		add	r1, r4, #992
 882 01b6 D4F8D803 		ldr	r0, [r4, #984]
 883              	.LVL71:
 945:Middlewares/ST/STM32_USB_Host_Library/Core/Src/usbh_ctlreq.c **** #endif
 884              		.loc 1 945 15 view .LVU298
 885 01ba FFF7FEFF 		bl	osMessageQueuePut
 886              	.LVL72:
 751:Middlewares/ST/STM32_USB_Host_Library/Core/Src/usbh_ctlreq.c ****   USBH_URBStateTypeDef URB_Status = USBH_URB_IDLE;
 887              		.loc 1 751 22 view .LVU299
 888 01be 0125     		movs	r5, #1
 889 01c0 3AE7     		b	.L35
 890              	.LVL73:
 891              	.L80:
 954:Middlewares/ST/STM32_USB_Host_Library/Core/Src/usbh_ctlreq.c ****           status = USBH_FAIL;
 892              		.loc 1 954 11 is_stmt 1 view .LVU300
 954:Middlewares/ST/STM32_USB_Host_Library/Core/Src/usbh_ctlreq.c ****           status = USBH_FAIL;
 893              		.loc 1 954 32 is_stmt 0 view .LVU301
 894 01c2 0B23     		movs	r3, #11
 895 01c4 2376     		strb	r3, [r4, #24]
 955:Middlewares/ST/STM32_USB_Host_Library/Core/Src/usbh_ctlreq.c **** 
 896              		.loc 1 955 11 is_stmt 1 view .LVU302
 897              	.LVL74:
 958:Middlewares/ST/STM32_USB_Host_Library/Core/Src/usbh_ctlreq.c **** #if (osCMSIS < 0x20000U)
 898              		.loc 1 958 11 view .LVU303
ARM GAS  /tmp/ccapfRJn.s 			page 39


 958:Middlewares/ST/STM32_USB_Host_Library/Core/Src/usbh_ctlreq.c **** #if (osCMSIS < 0x20000U)
 899              		.loc 1 958 25 is_stmt 0 view .LVU304
 900 01c6 0323     		movs	r3, #3
 901 01c8 C4F8E033 		str	r3, [r4, #992]
 962:Middlewares/ST/STM32_USB_Host_Library/Core/Src/usbh_ctlreq.c **** #endif
 902              		.loc 1 962 11 is_stmt 1 view .LVU305
 962:Middlewares/ST/STM32_USB_Host_Library/Core/Src/usbh_ctlreq.c **** #endif
 903              		.loc 1 962 17 is_stmt 0 view .LVU306
 904 01cc 0023     		movs	r3, #0
 905 01ce 1A46     		mov	r2, r3
 906 01d0 04F57871 		add	r1, r4, #992
 907 01d4 D4F8D803 		ldr	r0, [r4, #984]
 908              	.LVL75:
 962:Middlewares/ST/STM32_USB_Host_Library/Core/Src/usbh_ctlreq.c **** #endif
 909              		.loc 1 962 17 view .LVU307
 910 01d8 FFF7FEFF 		bl	osMessageQueuePut
 911              	.LVL76:
 955:Middlewares/ST/STM32_USB_Host_Library/Core/Src/usbh_ctlreq.c **** 
 912              		.loc 1 955 18 view .LVU308
 913 01dc 0225     		movs	r5, #2
 914 01de 2BE7     		b	.L35
 915              	.LVL77:
 916              	.L41:
 971:Middlewares/ST/STM32_USB_Host_Library/Core/Src/usbh_ctlreq.c **** 
 917              		.loc 1 971 7 is_stmt 1 view .LVU309
 971:Middlewares/ST/STM32_USB_Host_Library/Core/Src/usbh_ctlreq.c **** 
 918              		.loc 1 971 13 is_stmt 0 view .LVU310
 919 01e0 0379     		ldrb	r3, [r0, #4]	@ zero_extendqisi2
 920 01e2 0022     		movs	r2, #0
 921 01e4 1146     		mov	r1, r2
 922 01e6 FFF7FEFF 		bl	USBH_CtlReceiveData
 923              	.LVL78:
 973:Middlewares/ST/STM32_USB_Host_Library/Core/Src/usbh_ctlreq.c ****       phost->Control.state = CTRL_STATUS_IN_WAIT;
 924              		.loc 1 973 7 is_stmt 1 view .LVU311
 973:Middlewares/ST/STM32_USB_Host_Library/Core/Src/usbh_ctlreq.c ****       phost->Control.state = CTRL_STATUS_IN_WAIT;
 925              		.loc 1 973 45 is_stmt 0 view .LVU312
 926 01ea D4F8C433 		ldr	r3, [r4, #964]
 973:Middlewares/ST/STM32_USB_Host_Library/Core/Src/usbh_ctlreq.c ****       phost->Control.state = CTRL_STATUS_IN_WAIT;
 927              		.loc 1 973 28 view .LVU313
 928 01ee E381     		strh	r3, [r4, #14]	@ movhi
 974:Middlewares/ST/STM32_USB_Host_Library/Core/Src/usbh_ctlreq.c **** 
 929              		.loc 1 974 7 is_stmt 1 view .LVU314
 974:Middlewares/ST/STM32_USB_Host_Library/Core/Src/usbh_ctlreq.c **** 
 930              		.loc 1 974 28 is_stmt 0 view .LVU315
 931 01f0 0823     		movs	r3, #8
 932 01f2 2376     		strb	r3, [r4, #24]
 976:Middlewares/ST/STM32_USB_Host_Library/Core/Src/usbh_ctlreq.c **** 
 933              		.loc 1 976 7 is_stmt 1 view .LVU316
 751:Middlewares/ST/STM32_USB_Host_Library/Core/Src/usbh_ctlreq.c ****   USBH_URBStateTypeDef URB_Status = USBH_URB_IDLE;
 934              		.loc 1 751 22 is_stmt 0 view .LVU317
 935 01f4 0125     		movs	r5, #1
 976:Middlewares/ST/STM32_USB_Host_Library/Core/Src/usbh_ctlreq.c **** 
 936              		.loc 1 976 7 view .LVU318
 937 01f6 1FE7     		b	.L35
 938              	.LVL79:
 939              	.L40:
 980:Middlewares/ST/STM32_USB_Host_Library/Core/Src/usbh_ctlreq.c **** 
ARM GAS  /tmp/ccapfRJn.s 			page 40


 940              		.loc 1 980 7 is_stmt 1 view .LVU319
 980:Middlewares/ST/STM32_USB_Host_Library/Core/Src/usbh_ctlreq.c **** 
 941              		.loc 1 980 20 is_stmt 0 view .LVU320
 942 01f8 0179     		ldrb	r1, [r0, #4]	@ zero_extendqisi2
 943 01fa FFF7FEFF 		bl	USBH_LL_GetURBState
 944              	.LVL80:
 982:Middlewares/ST/STM32_USB_Host_Library/Core/Src/usbh_ctlreq.c ****       {
 945              		.loc 1 982 7 is_stmt 1 view .LVU321
 982:Middlewares/ST/STM32_USB_Host_Library/Core/Src/usbh_ctlreq.c ****       {
 946              		.loc 1 982 10 is_stmt 0 view .LVU322
 947 01fe 0128     		cmp	r0, #1
 948 0200 05D0     		beq	.L81
 997:Middlewares/ST/STM32_USB_Host_Library/Core/Src/usbh_ctlreq.c ****       {
 949              		.loc 1 997 12 is_stmt 1 view .LVU323
 997:Middlewares/ST/STM32_USB_Host_Library/Core/Src/usbh_ctlreq.c ****       {
 950              		.loc 1 997 15 is_stmt 0 view .LVU324
 951 0202 0428     		cmp	r0, #4
 952 0204 12D0     		beq	.L82
1012:Middlewares/ST/STM32_USB_Host_Library/Core/Src/usbh_ctlreq.c ****         {
 953              		.loc 1 1012 9 is_stmt 1 view .LVU325
1012:Middlewares/ST/STM32_USB_Host_Library/Core/Src/usbh_ctlreq.c ****         {
 954              		.loc 1 1012 12 is_stmt 0 view .LVU326
 955 0206 0528     		cmp	r0, #5
 956 0208 1FD0     		beq	.L83
 751:Middlewares/ST/STM32_USB_Host_Library/Core/Src/usbh_ctlreq.c ****   USBH_URBStateTypeDef URB_Status = USBH_URB_IDLE;
 957              		.loc 1 751 22 view .LVU327
 958 020a 0125     		movs	r5, #1
 959 020c 14E7     		b	.L35
 960              	.L81:
 985:Middlewares/ST/STM32_USB_Host_Library/Core/Src/usbh_ctlreq.c ****         status = USBH_OK;
 961              		.loc 1 985 9 is_stmt 1 view .LVU328
 985:Middlewares/ST/STM32_USB_Host_Library/Core/Src/usbh_ctlreq.c ****         status = USBH_OK;
 962              		.loc 1 985 30 is_stmt 0 view .LVU329
 963 020e 0D23     		movs	r3, #13
 964 0210 2376     		strb	r3, [r4, #24]
 986:Middlewares/ST/STM32_USB_Host_Library/Core/Src/usbh_ctlreq.c **** 
 965              		.loc 1 986 9 is_stmt 1 view .LVU330
 966              	.LVL81:
 989:Middlewares/ST/STM32_USB_Host_Library/Core/Src/usbh_ctlreq.c **** #if (osCMSIS < 0x20000U)
 967              		.loc 1 989 9 view .LVU331
 989:Middlewares/ST/STM32_USB_Host_Library/Core/Src/usbh_ctlreq.c **** #if (osCMSIS < 0x20000U)
 968              		.loc 1 989 23 is_stmt 0 view .LVU332
 969 0212 0323     		movs	r3, #3
 970 0214 C4F8E033 		str	r3, [r4, #992]
 993:Middlewares/ST/STM32_USB_Host_Library/Core/Src/usbh_ctlreq.c **** #endif
 971              		.loc 1 993 9 is_stmt 1 view .LVU333
 993:Middlewares/ST/STM32_USB_Host_Library/Core/Src/usbh_ctlreq.c **** #endif
 972              		.loc 1 993 15 is_stmt 0 view .LVU334
 973 0218 0023     		movs	r3, #0
 974 021a 1A46     		mov	r2, r3
 975 021c 04F57871 		add	r1, r4, #992
 976 0220 D4F8D803 		ldr	r0, [r4, #984]
 977              	.LVL82:
 993:Middlewares/ST/STM32_USB_Host_Library/Core/Src/usbh_ctlreq.c **** #endif
 978              		.loc 1 993 15 view .LVU335
 979 0224 FFF7FEFF 		bl	osMessageQueuePut
 980              	.LVL83:
ARM GAS  /tmp/ccapfRJn.s 			page 41


 986:Middlewares/ST/STM32_USB_Host_Library/Core/Src/usbh_ctlreq.c **** 
 981              		.loc 1 986 16 view .LVU336
 982 0228 0025     		movs	r5, #0
 983 022a 05E7     		b	.L35
 984              	.LVL84:
 985              	.L82:
 999:Middlewares/ST/STM32_USB_Host_Library/Core/Src/usbh_ctlreq.c **** 
 986              		.loc 1 999 9 is_stmt 1 view .LVU337
 999:Middlewares/ST/STM32_USB_Host_Library/Core/Src/usbh_ctlreq.c **** 
 987              		.loc 1 999 30 is_stmt 0 view .LVU338
 988 022c 0B23     		movs	r3, #11
 989 022e 2376     		strb	r3, [r4, #24]
1002:Middlewares/ST/STM32_USB_Host_Library/Core/Src/usbh_ctlreq.c **** #if (osCMSIS < 0x20000U)
 990              		.loc 1 1002 9 is_stmt 1 view .LVU339
1002:Middlewares/ST/STM32_USB_Host_Library/Core/Src/usbh_ctlreq.c **** #if (osCMSIS < 0x20000U)
 991              		.loc 1 1002 23 is_stmt 0 view .LVU340
 992 0230 0323     		movs	r3, #3
 993 0232 C4F8E033 		str	r3, [r4, #992]
1006:Middlewares/ST/STM32_USB_Host_Library/Core/Src/usbh_ctlreq.c **** #endif
 994              		.loc 1 1006 9 is_stmt 1 view .LVU341
1006:Middlewares/ST/STM32_USB_Host_Library/Core/Src/usbh_ctlreq.c **** #endif
 995              		.loc 1 1006 15 is_stmt 0 view .LVU342
 996 0236 0023     		movs	r3, #0
 997 0238 1A46     		mov	r2, r3
 998 023a 04F57871 		add	r1, r4, #992
 999 023e D4F8D803 		ldr	r0, [r4, #984]
 1000              	.LVL85:
1006:Middlewares/ST/STM32_USB_Host_Library/Core/Src/usbh_ctlreq.c **** #endif
 1001              		.loc 1 1006 15 view .LVU343
 1002 0242 FFF7FEFF 		bl	osMessageQueuePut
 1003              	.LVL86:
 751:Middlewares/ST/STM32_USB_Host_Library/Core/Src/usbh_ctlreq.c ****   USBH_URBStateTypeDef URB_Status = USBH_URB_IDLE;
 1004              		.loc 1 751 22 view .LVU344
 1005 0246 0125     		movs	r5, #1
 1006 0248 F6E6     		b	.L35
 1007              	.LVL87:
 1008              	.L83:
1015:Middlewares/ST/STM32_USB_Host_Library/Core/Src/usbh_ctlreq.c **** 
 1009              		.loc 1 1015 11 is_stmt 1 view .LVU345
1018:Middlewares/ST/STM32_USB_Host_Library/Core/Src/usbh_ctlreq.c **** #if (osCMSIS < 0x20000U)
 1010              		.loc 1 1018 11 view .LVU346
1018:Middlewares/ST/STM32_USB_Host_Library/Core/Src/usbh_ctlreq.c **** #if (osCMSIS < 0x20000U)
 1011              		.loc 1 1018 25 is_stmt 0 view .LVU347
 1012 024a 0325     		movs	r5, #3
 1013 024c C4F8E053 		str	r5, [r4, #992]
1022:Middlewares/ST/STM32_USB_Host_Library/Core/Src/usbh_ctlreq.c **** #endif
 1014              		.loc 1 1022 11 is_stmt 1 view .LVU348
1022:Middlewares/ST/STM32_USB_Host_Library/Core/Src/usbh_ctlreq.c **** #endif
 1015              		.loc 1 1022 17 is_stmt 0 view .LVU349
 1016 0250 0023     		movs	r3, #0
 1017 0252 1A46     		mov	r2, r3
 1018 0254 04F57871 		add	r1, r4, #992
 1019 0258 D4F8D803 		ldr	r0, [r4, #984]
 1020              	.LVL88:
1022:Middlewares/ST/STM32_USB_Host_Library/Core/Src/usbh_ctlreq.c **** #endif
 1021              		.loc 1 1022 17 view .LVU350
 1022 025c FFF7FEFF 		bl	osMessageQueuePut
ARM GAS  /tmp/ccapfRJn.s 			page 42


 1023              	.LVL89:
 1024 0260 EAE6     		b	.L35
 1025              	.LVL90:
 1026              	.L39:
1030:Middlewares/ST/STM32_USB_Host_Library/Core/Src/usbh_ctlreq.c **** 
 1027              		.loc 1 1030 7 is_stmt 1 view .LVU351
1030:Middlewares/ST/STM32_USB_Host_Library/Core/Src/usbh_ctlreq.c **** 
 1028              		.loc 1 1030 13 is_stmt 0 view .LVU352
 1029 0262 0125     		movs	r5, #1
 1030 0264 0095     		str	r5, [sp]
 1031 0266 4379     		ldrb	r3, [r0, #5]	@ zero_extendqisi2
 1032 0268 0022     		movs	r2, #0
 1033 026a 1146     		mov	r1, r2
 1034 026c FFF7FEFF 		bl	USBH_CtlSendData
 1035              	.LVL91:
1032:Middlewares/ST/STM32_USB_Host_Library/Core/Src/usbh_ctlreq.c ****       phost->Control.state = CTRL_STATUS_OUT_WAIT;
 1036              		.loc 1 1032 7 is_stmt 1 view .LVU353
1032:Middlewares/ST/STM32_USB_Host_Library/Core/Src/usbh_ctlreq.c ****       phost->Control.state = CTRL_STATUS_OUT_WAIT;
 1037              		.loc 1 1032 45 is_stmt 0 view .LVU354
 1038 0270 D4F8C433 		ldr	r3, [r4, #964]
1032:Middlewares/ST/STM32_USB_Host_Library/Core/Src/usbh_ctlreq.c ****       phost->Control.state = CTRL_STATUS_OUT_WAIT;
 1039              		.loc 1 1032 28 view .LVU355
 1040 0274 E381     		strh	r3, [r4, #14]	@ movhi
1033:Middlewares/ST/STM32_USB_Host_Library/Core/Src/usbh_ctlreq.c ****       break;
 1041              		.loc 1 1033 7 is_stmt 1 view .LVU356
1033:Middlewares/ST/STM32_USB_Host_Library/Core/Src/usbh_ctlreq.c ****       break;
 1042              		.loc 1 1033 28 is_stmt 0 view .LVU357
 1043 0276 0A23     		movs	r3, #10
 1044 0278 2376     		strb	r3, [r4, #24]
1034:Middlewares/ST/STM32_USB_Host_Library/Core/Src/usbh_ctlreq.c **** 
 1045              		.loc 1 1034 7 is_stmt 1 view .LVU358
 1046 027a DDE6     		b	.L35
 1047              	.LVL92:
 1048              	.L38:
1037:Middlewares/ST/STM32_USB_Host_Library/Core/Src/usbh_ctlreq.c ****       if (URB_Status == USBH_URB_DONE)
 1049              		.loc 1 1037 7 view .LVU359
1037:Middlewares/ST/STM32_USB_Host_Library/Core/Src/usbh_ctlreq.c ****       if (URB_Status == USBH_URB_DONE)
 1050              		.loc 1 1037 20 is_stmt 0 view .LVU360
 1051 027c 4179     		ldrb	r1, [r0, #5]	@ zero_extendqisi2
 1052 027e FFF7FEFF 		bl	USBH_LL_GetURBState
 1053              	.LVL93:
1038:Middlewares/ST/STM32_USB_Host_Library/Core/Src/usbh_ctlreq.c ****       {
 1054              		.loc 1 1038 7 is_stmt 1 view .LVU361
1038:Middlewares/ST/STM32_USB_Host_Library/Core/Src/usbh_ctlreq.c ****       {
 1055              		.loc 1 1038 10 is_stmt 0 view .LVU362
 1056 0282 0128     		cmp	r0, #1
 1057 0284 05D0     		beq	.L84
1052:Middlewares/ST/STM32_USB_Host_Library/Core/Src/usbh_ctlreq.c ****       {
 1058              		.loc 1 1052 12 is_stmt 1 view .LVU363
1052:Middlewares/ST/STM32_USB_Host_Library/Core/Src/usbh_ctlreq.c ****       {
 1059              		.loc 1 1052 15 is_stmt 0 view .LVU364
 1060 0286 0228     		cmp	r0, #2
 1061 0288 12D0     		beq	.L85
1067:Middlewares/ST/STM32_USB_Host_Library/Core/Src/usbh_ctlreq.c ****         {
 1062              		.loc 1 1067 9 is_stmt 1 view .LVU365
1067:Middlewares/ST/STM32_USB_Host_Library/Core/Src/usbh_ctlreq.c ****         {
 1063              		.loc 1 1067 12 is_stmt 0 view .LVU366
ARM GAS  /tmp/ccapfRJn.s 			page 43


 1064 028a 0428     		cmp	r0, #4
 1065 028c 1FD0     		beq	.L86
 751:Middlewares/ST/STM32_USB_Host_Library/Core/Src/usbh_ctlreq.c ****   USBH_URBStateTypeDef URB_Status = USBH_URB_IDLE;
 1066              		.loc 1 751 22 view .LVU367
 1067 028e 0125     		movs	r5, #1
 1068 0290 D2E6     		b	.L35
 1069              	.L84:
1040:Middlewares/ST/STM32_USB_Host_Library/Core/Src/usbh_ctlreq.c ****         phost->Control.state = CTRL_COMPLETE;
 1070              		.loc 1 1040 9 is_stmt 1 view .LVU368
 1071              	.LVL94:
1041:Middlewares/ST/STM32_USB_Host_Library/Core/Src/usbh_ctlreq.c **** 
 1072              		.loc 1 1041 9 view .LVU369
1041:Middlewares/ST/STM32_USB_Host_Library/Core/Src/usbh_ctlreq.c **** 
 1073              		.loc 1 1041 30 is_stmt 0 view .LVU370
 1074 0292 0D23     		movs	r3, #13
 1075 0294 2376     		strb	r3, [r4, #24]
1044:Middlewares/ST/STM32_USB_Host_Library/Core/Src/usbh_ctlreq.c **** #if (osCMSIS < 0x20000U)
 1076              		.loc 1 1044 9 is_stmt 1 view .LVU371
1044:Middlewares/ST/STM32_USB_Host_Library/Core/Src/usbh_ctlreq.c **** #if (osCMSIS < 0x20000U)
 1077              		.loc 1 1044 23 is_stmt 0 view .LVU372
 1078 0296 0323     		movs	r3, #3
 1079 0298 C4F8E033 		str	r3, [r4, #992]
1048:Middlewares/ST/STM32_USB_Host_Library/Core/Src/usbh_ctlreq.c **** #endif
 1080              		.loc 1 1048 9 is_stmt 1 view .LVU373
1048:Middlewares/ST/STM32_USB_Host_Library/Core/Src/usbh_ctlreq.c **** #endif
 1081              		.loc 1 1048 15 is_stmt 0 view .LVU374
 1082 029c 0023     		movs	r3, #0
 1083 029e 1A46     		mov	r2, r3
 1084 02a0 04F57871 		add	r1, r4, #992
 1085 02a4 D4F8D803 		ldr	r0, [r4, #984]
 1086              	.LVL95:
1048:Middlewares/ST/STM32_USB_Host_Library/Core/Src/usbh_ctlreq.c **** #endif
 1087              		.loc 1 1048 15 view .LVU375
 1088 02a8 FFF7FEFF 		bl	osMessageQueuePut
 1089              	.LVL96:
1040:Middlewares/ST/STM32_USB_Host_Library/Core/Src/usbh_ctlreq.c ****         phost->Control.state = CTRL_COMPLETE;
 1090              		.loc 1 1040 16 view .LVU376
 1091 02ac 0025     		movs	r5, #0
 1092 02ae C3E6     		b	.L35
 1093              	.LVL97:
 1094              	.L85:
1054:Middlewares/ST/STM32_USB_Host_Library/Core/Src/usbh_ctlreq.c **** 
 1095              		.loc 1 1054 9 is_stmt 1 view .LVU377
1054:Middlewares/ST/STM32_USB_Host_Library/Core/Src/usbh_ctlreq.c **** 
 1096              		.loc 1 1054 30 is_stmt 0 view .LVU378
 1097 02b0 0923     		movs	r3, #9
 1098 02b2 2376     		strb	r3, [r4, #24]
1057:Middlewares/ST/STM32_USB_Host_Library/Core/Src/usbh_ctlreq.c **** #if (osCMSIS < 0x20000U)
 1099              		.loc 1 1057 9 is_stmt 1 view .LVU379
1057:Middlewares/ST/STM32_USB_Host_Library/Core/Src/usbh_ctlreq.c **** #if (osCMSIS < 0x20000U)
 1100              		.loc 1 1057 23 is_stmt 0 view .LVU380
 1101 02b4 0323     		movs	r3, #3
 1102 02b6 C4F8E033 		str	r3, [r4, #992]
1061:Middlewares/ST/STM32_USB_Host_Library/Core/Src/usbh_ctlreq.c **** #endif
 1103              		.loc 1 1061 9 is_stmt 1 view .LVU381
1061:Middlewares/ST/STM32_USB_Host_Library/Core/Src/usbh_ctlreq.c **** #endif
 1104              		.loc 1 1061 15 is_stmt 0 view .LVU382
ARM GAS  /tmp/ccapfRJn.s 			page 44


 1105 02ba 0023     		movs	r3, #0
 1106 02bc 1A46     		mov	r2, r3
 1107 02be 04F57871 		add	r1, r4, #992
 1108 02c2 D4F8D803 		ldr	r0, [r4, #984]
 1109              	.LVL98:
1061:Middlewares/ST/STM32_USB_Host_Library/Core/Src/usbh_ctlreq.c **** #endif
 1110              		.loc 1 1061 15 view .LVU383
 1111 02c6 FFF7FEFF 		bl	osMessageQueuePut
 1112              	.LVL99:
 751:Middlewares/ST/STM32_USB_Host_Library/Core/Src/usbh_ctlreq.c ****   USBH_URBStateTypeDef URB_Status = USBH_URB_IDLE;
 1113              		.loc 1 751 22 view .LVU384
 1114 02ca 0125     		movs	r5, #1
 1115 02cc B4E6     		b	.L35
 1116              	.LVL100:
 1117              	.L86:
1069:Middlewares/ST/STM32_USB_Host_Library/Core/Src/usbh_ctlreq.c **** 
 1118              		.loc 1 1069 11 is_stmt 1 view .LVU385
1069:Middlewares/ST/STM32_USB_Host_Library/Core/Src/usbh_ctlreq.c **** 
 1119              		.loc 1 1069 32 is_stmt 0 view .LVU386
 1120 02ce 0B23     		movs	r3, #11
 1121 02d0 2376     		strb	r3, [r4, #24]
1072:Middlewares/ST/STM32_USB_Host_Library/Core/Src/usbh_ctlreq.c **** #if (osCMSIS < 0x20000U)
 1122              		.loc 1 1072 11 is_stmt 1 view .LVU387
1072:Middlewares/ST/STM32_USB_Host_Library/Core/Src/usbh_ctlreq.c **** #if (osCMSIS < 0x20000U)
 1123              		.loc 1 1072 25 is_stmt 0 view .LVU388
 1124 02d2 0323     		movs	r3, #3
 1125 02d4 C4F8E033 		str	r3, [r4, #992]
1076:Middlewares/ST/STM32_USB_Host_Library/Core/Src/usbh_ctlreq.c **** #endif
 1126              		.loc 1 1076 11 is_stmt 1 view .LVU389
1076:Middlewares/ST/STM32_USB_Host_Library/Core/Src/usbh_ctlreq.c **** #endif
 1127              		.loc 1 1076 17 is_stmt 0 view .LVU390
 1128 02d8 0023     		movs	r3, #0
 1129 02da 1A46     		mov	r2, r3
 1130 02dc 04F57871 		add	r1, r4, #992
 1131 02e0 D4F8D803 		ldr	r0, [r4, #984]
 1132              	.LVL101:
1076:Middlewares/ST/STM32_USB_Host_Library/Core/Src/usbh_ctlreq.c **** #endif
 1133              		.loc 1 1076 17 view .LVU391
 1134 02e4 FFF7FEFF 		bl	osMessageQueuePut
 1135              	.LVL102:
 751:Middlewares/ST/STM32_USB_Host_Library/Core/Src/usbh_ctlreq.c ****   USBH_URBStateTypeDef URB_Status = USBH_URB_IDLE;
 1136              		.loc 1 751 22 view .LVU392
 1137 02e8 0125     		movs	r5, #1
 1138 02ea A5E6     		b	.L35
 1139              	.LVL103:
 1140              	.L36:
1092:Middlewares/ST/STM32_USB_Host_Library/Core/Src/usbh_ctlreq.c ****       {
 1141              		.loc 1 1092 7 is_stmt 1 view .LVU393
1092:Middlewares/ST/STM32_USB_Host_Library/Core/Src/usbh_ctlreq.c ****       {
 1142              		.loc 1 1092 27 is_stmt 0 view .LVU394
 1143 02ec 437E     		ldrb	r3, [r0, #25]	@ zero_extendqisi2
1092:Middlewares/ST/STM32_USB_Host_Library/Core/Src/usbh_ctlreq.c ****       {
 1144              		.loc 1 1092 11 view .LVU395
 1145 02ee 0133     		adds	r3, r3, #1
 1146 02f0 DBB2     		uxtb	r3, r3
1092:Middlewares/ST/STM32_USB_Host_Library/Core/Src/usbh_ctlreq.c ****       {
 1147              		.loc 1 1092 10 view .LVU396
ARM GAS  /tmp/ccapfRJn.s 			page 45


 1148 02f2 4376     		strb	r3, [r0, #25]
 1149 02f4 022B     		cmp	r3, #2
 1150 02f6 03D8     		bhi	.L63
1095:Middlewares/ST/STM32_USB_Host_Library/Core/Src/usbh_ctlreq.c ****         phost->RequestState = CMD_SEND;
 1151              		.loc 1 1095 9 is_stmt 1 view .LVU397
1095:Middlewares/ST/STM32_USB_Host_Library/Core/Src/usbh_ctlreq.c ****         phost->RequestState = CMD_SEND;
 1152              		.loc 1 1095 30 is_stmt 0 view .LVU398
 1153 02f8 0125     		movs	r5, #1
 1154 02fa 0576     		strb	r5, [r0, #24]
1096:Middlewares/ST/STM32_USB_Host_Library/Core/Src/usbh_ctlreq.c ****       }
 1155              		.loc 1 1096 9 is_stmt 1 view .LVU399
1096:Middlewares/ST/STM32_USB_Host_Library/Core/Src/usbh_ctlreq.c ****       }
 1156              		.loc 1 1096 29 is_stmt 0 view .LVU400
 1157 02fc 8570     		strb	r5, [r0, #2]
 1158 02fe 9BE6     		b	.L35
 1159              	.L63:
1100:Middlewares/ST/STM32_USB_Host_Library/Core/Src/usbh_ctlreq.c ****         phost->Control.errorcount = 0U;
 1160              		.loc 1 1100 9 is_stmt 1 view .LVU401
1100:Middlewares/ST/STM32_USB_Host_Library/Core/Src/usbh_ctlreq.c ****         phost->Control.errorcount = 0U;
 1161              		.loc 1 1100 14 is_stmt 0 view .LVU402
 1162 0300 D0F8D433 		ldr	r3, [r0, #980]
1100:Middlewares/ST/STM32_USB_Host_Library/Core/Src/usbh_ctlreq.c ****         phost->Control.errorcount = 0U;
 1163              		.loc 1 1100 9 view .LVU403
 1164 0304 0621     		movs	r1, #6
 1165 0306 9847     		blx	r3
 1166              	.LVL104:
1101:Middlewares/ST/STM32_USB_Host_Library/Core/Src/usbh_ctlreq.c ****         USBH_ErrLog("Control error: Device not responding");
 1167              		.loc 1 1101 9 is_stmt 1 view .LVU404
1101:Middlewares/ST/STM32_USB_Host_Library/Core/Src/usbh_ctlreq.c ****         USBH_ErrLog("Control error: Device not responding");
 1168              		.loc 1 1101 35 is_stmt 0 view .LVU405
 1169 0308 0025     		movs	r5, #0
 1170 030a 6576     		strb	r5, [r4, #25]
1102:Middlewares/ST/STM32_USB_Host_Library/Core/Src/usbh_ctlreq.c **** 
 1171              		.loc 1 1102 9 is_stmt 1 view .LVU406
1102:Middlewares/ST/STM32_USB_Host_Library/Core/Src/usbh_ctlreq.c **** 
 1172              		.loc 1 1102 9 view .LVU407
1102:Middlewares/ST/STM32_USB_Host_Library/Core/Src/usbh_ctlreq.c **** 
 1173              		.loc 1 1102 9 view .LVU408
1105:Middlewares/ST/STM32_USB_Host_Library/Core/Src/usbh_ctlreq.c ****         (void)USBH_FreePipe(phost, phost->Control.pipe_in);
 1174              		.loc 1 1105 9 view .LVU409
1105:Middlewares/ST/STM32_USB_Host_Library/Core/Src/usbh_ctlreq.c ****         (void)USBH_FreePipe(phost, phost->Control.pipe_in);
 1175              		.loc 1 1105 15 is_stmt 0 view .LVU410
 1176 030c 6179     		ldrb	r1, [r4, #5]	@ zero_extendqisi2
 1177 030e 2046     		mov	r0, r4
 1178 0310 FFF7FEFF 		bl	USBH_FreePipe
 1179              	.LVL105:
1106:Middlewares/ST/STM32_USB_Host_Library/Core/Src/usbh_ctlreq.c **** 
 1180              		.loc 1 1106 9 is_stmt 1 view .LVU411
1106:Middlewares/ST/STM32_USB_Host_Library/Core/Src/usbh_ctlreq.c **** 
 1181              		.loc 1 1106 15 is_stmt 0 view .LVU412
 1182 0314 2179     		ldrb	r1, [r4, #4]	@ zero_extendqisi2
 1183 0316 2046     		mov	r0, r4
 1184 0318 FFF7FEFF 		bl	USBH_FreePipe
 1185              	.LVL106:
1108:Middlewares/ST/STM32_USB_Host_Library/Core/Src/usbh_ctlreq.c ****         status = USBH_FAIL;
 1186              		.loc 1 1108 9 is_stmt 1 view .LVU413
1108:Middlewares/ST/STM32_USB_Host_Library/Core/Src/usbh_ctlreq.c ****         status = USBH_FAIL;
ARM GAS  /tmp/ccapfRJn.s 			page 46


 1187              		.loc 1 1108 23 is_stmt 0 view .LVU414
 1188 031c 2570     		strb	r5, [r4]
1109:Middlewares/ST/STM32_USB_Host_Library/Core/Src/usbh_ctlreq.c ****       }
 1189              		.loc 1 1109 9 is_stmt 1 view .LVU415
 1190              	.LVL107:
1109:Middlewares/ST/STM32_USB_Host_Library/Core/Src/usbh_ctlreq.c ****       }
 1191              		.loc 1 1109 16 is_stmt 0 view .LVU416
 1192 031e 0225     		movs	r5, #2
 1193 0320 8AE6     		b	.L35
 1194              	.LVL108:
 1195              	.L64:
 754:Middlewares/ST/STM32_USB_Host_Library/Core/Src/usbh_ctlreq.c ****   {
 1196              		.loc 1 754 25 view .LVU417
 1197 0322 0125     		movs	r5, #1
 1198 0324 88E6     		b	.L35
 1199              		.cfi_endproc
 1200              	.LFE258:
 1202              		.section	.text.USBH_GetNextDesc,"ax",%progbits
 1203              		.align	1
 1204              		.global	USBH_GetNextDesc
 1205              		.syntax unified
 1206              		.thumb
 1207              		.thumb_func
 1208              		.fpu fpv4-sp-d16
 1210              	USBH_GetNextDesc:
 1211              	.LVL109:
 1212              	.LFB256:
 661:Middlewares/ST/STM32_USB_Host_Library/Core/Src/usbh_ctlreq.c ****   USBH_DescHeader_t  *pnext;
 1213              		.loc 1 661 1 is_stmt 1 view -0
 1214              		.cfi_startproc
 1215              		@ args = 0, pretend = 0, frame = 0
 1216              		@ frame_needed = 0, uses_anonymous_args = 0
 1217              		@ link register save eliminated.
 662:Middlewares/ST/STM32_USB_Host_Library/Core/Src/usbh_ctlreq.c **** 
 1218              		.loc 1 662 3 view .LVU419
 664:Middlewares/ST/STM32_USB_Host_Library/Core/Src/usbh_ctlreq.c ****   pnext = (USBH_DescHeader_t *)(void *)((uint8_t *)(void *)pbuf + \
 1219              		.loc 1 664 3 view .LVU420
 664:Middlewares/ST/STM32_USB_Host_Library/Core/Src/usbh_ctlreq.c ****   pnext = (USBH_DescHeader_t *)(void *)((uint8_t *)(void *)pbuf + \
 1220              		.loc 1 664 46 is_stmt 0 view .LVU421
 1221 0000 0378     		ldrb	r3, [r0]	@ zero_extendqisi2
 664:Middlewares/ST/STM32_USB_Host_Library/Core/Src/usbh_ctlreq.c ****   pnext = (USBH_DescHeader_t *)(void *)((uint8_t *)(void *)pbuf + \
 1222              		.loc 1 664 8 view .LVU422
 1223 0002 0A88     		ldrh	r2, [r1]
 1224 0004 1344     		add	r3, r3, r2
 1225 0006 0B80     		strh	r3, [r1]	@ movhi
 665:Middlewares/ST/STM32_USB_Host_Library/Core/Src/usbh_ctlreq.c ****                                         ((USBH_DescHeader_t *)(void *)pbuf)->bLength);
 1226              		.loc 1 665 3 is_stmt 1 view .LVU423
 666:Middlewares/ST/STM32_USB_Host_Library/Core/Src/usbh_ctlreq.c **** 
 1227              		.loc 1 666 76 is_stmt 0 view .LVU424
 1228 0008 0378     		ldrb	r3, [r0]	@ zero_extendqisi2
 1229              	.LVL110:
 668:Middlewares/ST/STM32_USB_Host_Library/Core/Src/usbh_ctlreq.c **** }
 1230              		.loc 1 668 3 is_stmt 1 view .LVU425
 669:Middlewares/ST/STM32_USB_Host_Library/Core/Src/usbh_ctlreq.c **** 
 1231              		.loc 1 669 1 is_stmt 0 view .LVU426
 1232 000a 1844     		add	r0, r0, r3
 1233              	.LVL111:
ARM GAS  /tmp/ccapfRJn.s 			page 47


 669:Middlewares/ST/STM32_USB_Host_Library/Core/Src/usbh_ctlreq.c **** 
 1234              		.loc 1 669 1 view .LVU427
 1235 000c 7047     		bx	lr
 1236              		.cfi_endproc
 1237              	.LFE256:
 1239              		.section	.text.USBH_ParseCfgDesc,"ax",%progbits
 1240              		.align	1
 1241              		.syntax unified
 1242              		.thumb
 1243              		.thumb_func
 1244              		.fpu fpv4-sp-d16
 1246              	USBH_ParseCfgDesc:
 1247              	.LVL112:
 1248              	.LFB252:
 403:Middlewares/ST/STM32_USB_Host_Library/Core/Src/usbh_ctlreq.c ****   USBH_CfgDescTypeDef *cfg_desc = &phost->device.CfgDesc;
 1249              		.loc 1 403 1 is_stmt 1 view -0
 1250              		.cfi_startproc
 1251              		@ args = 0, pretend = 0, frame = 8
 1252              		@ frame_needed = 0, uses_anonymous_args = 0
 403:Middlewares/ST/STM32_USB_Host_Library/Core/Src/usbh_ctlreq.c ****   USBH_CfgDescTypeDef *cfg_desc = &phost->device.CfgDesc;
 1253              		.loc 1 403 1 is_stmt 0 view .LVU429
 1254 0000 2DE9F043 		push	{r4, r5, r6, r7, r8, r9, lr}
 1255              	.LCFI11:
 1256              		.cfi_def_cfa_offset 28
 1257              		.cfi_offset 4, -28
 1258              		.cfi_offset 5, -24
 1259              		.cfi_offset 6, -20
 1260              		.cfi_offset 7, -16
 1261              		.cfi_offset 8, -12
 1262              		.cfi_offset 9, -8
 1263              		.cfi_offset 14, -4
 1264 0004 83B0     		sub	sp, sp, #12
 1265              	.LCFI12:
 1266              		.cfi_def_cfa_offset 40
 1267 0006 0546     		mov	r5, r0
 1268 0008 0C46     		mov	r4, r1
 404:Middlewares/ST/STM32_USB_Host_Library/Core/Src/usbh_ctlreq.c ****   USBH_StatusTypeDef           status = USBH_OK;
 1269              		.loc 1 404 3 is_stmt 1 view .LVU430
 1270              	.LVL113:
 405:Middlewares/ST/STM32_USB_Host_Library/Core/Src/usbh_ctlreq.c ****   USBH_InterfaceDescTypeDef    *pif ;
 1271              		.loc 1 405 3 view .LVU431
 406:Middlewares/ST/STM32_USB_Host_Library/Core/Src/usbh_ctlreq.c ****   USBH_EpDescTypeDef           *pep;
 1272              		.loc 1 406 3 view .LVU432
 407:Middlewares/ST/STM32_USB_Host_Library/Core/Src/usbh_ctlreq.c ****   USBH_DescHeader_t            *pdesc = (USBH_DescHeader_t *)(void *)buf;
 1273              		.loc 1 407 3 view .LVU433
 408:Middlewares/ST/STM32_USB_Host_Library/Core/Src/usbh_ctlreq.c ****   uint16_t                     ptr;
 1274              		.loc 1 408 3 view .LVU434
 409:Middlewares/ST/STM32_USB_Host_Library/Core/Src/usbh_ctlreq.c ****   uint8_t                      if_ix = 0U;
 1275              		.loc 1 409 3 view .LVU435
 410:Middlewares/ST/STM32_USB_Host_Library/Core/Src/usbh_ctlreq.c ****   uint8_t                      ep_ix = 0U;
 1276              		.loc 1 410 3 view .LVU436
 411:Middlewares/ST/STM32_USB_Host_Library/Core/Src/usbh_ctlreq.c **** 
 1277              		.loc 1 411 3 view .LVU437
 413:Middlewares/ST/STM32_USB_Host_Library/Core/Src/usbh_ctlreq.c **** 
 1278              		.loc 1 413 3 view .LVU438
 416:Middlewares/ST/STM32_USB_Host_Library/Core/Src/usbh_ctlreq.c ****   cfg_desc->bDescriptorType     = *(uint8_t *)(buf + 1);
 1279              		.loc 1 416 3 view .LVU439
ARM GAS  /tmp/ccapfRJn.s 			page 48


 416:Middlewares/ST/STM32_USB_Host_Library/Core/Src/usbh_ctlreq.c ****   cfg_desc->bDescriptorType     = *(uint8_t *)(buf + 1);
 1280              		.loc 1 416 35 is_stmt 0 view .LVU440
 1281 000a 0978     		ldrb	r1, [r1]	@ zero_extendqisi2
 1282              	.LVL114:
 416:Middlewares/ST/STM32_USB_Host_Library/Core/Src/usbh_ctlreq.c ****   cfg_desc->bDescriptorType     = *(uint8_t *)(buf + 1);
 1283              		.loc 1 416 33 view .LVU441
 1284 000c 80F83813 		strb	r1, [r0, #824]
 417:Middlewares/ST/STM32_USB_Host_Library/Core/Src/usbh_ctlreq.c ****   cfg_desc->wTotalLength        = MIN(((uint16_t) LE16(buf + 2)), ((uint16_t)USBH_MAX_SIZE_CONFIGUR
 1285              		.loc 1 417 3 is_stmt 1 view .LVU442
 417:Middlewares/ST/STM32_USB_Host_Library/Core/Src/usbh_ctlreq.c ****   cfg_desc->wTotalLength        = MIN(((uint16_t) LE16(buf + 2)), ((uint16_t)USBH_MAX_SIZE_CONFIGUR
 1286              		.loc 1 417 33 is_stmt 0 view .LVU443
 1287 0010 6378     		ldrb	r3, [r4, #1]	@ zero_extendqisi2
 1288 0012 80F83933 		strb	r3, [r0, #825]
 418:Middlewares/ST/STM32_USB_Host_Library/Core/Src/usbh_ctlreq.c ****   cfg_desc->bNumInterfaces      = *(uint8_t *)(buf + 4);
 1289              		.loc 1 418 3 is_stmt 1 view .LVU444
 418:Middlewares/ST/STM32_USB_Host_Library/Core/Src/usbh_ctlreq.c ****   cfg_desc->bNumInterfaces      = *(uint8_t *)(buf + 4);
 1290              		.loc 1 418 35 is_stmt 0 view .LVU445
 1291 0016 A378     		ldrb	r3, [r4, #2]	@ zero_extendqisi2
 1292 0018 E078     		ldrb	r0, [r4, #3]	@ zero_extendqisi2
 1293              	.LVL115:
 418:Middlewares/ST/STM32_USB_Host_Library/Core/Src/usbh_ctlreq.c ****   cfg_desc->bNumInterfaces      = *(uint8_t *)(buf + 4);
 1294              		.loc 1 418 35 view .LVU446
 1295 001a 43EA0023 		orr	r3, r3, r0, lsl #8
 1296 001e B3F5807F 		cmp	r3, #256
 1297 0022 28BF     		it	cs
 1298 0024 4FF48073 		movcs	r3, #256
 418:Middlewares/ST/STM32_USB_Host_Library/Core/Src/usbh_ctlreq.c ****   cfg_desc->bNumInterfaces      = *(uint8_t *)(buf + 4);
 1299              		.loc 1 418 33 view .LVU447
 1300 0028 A5F83A33 		strh	r3, [r5, #826]	@ movhi
 419:Middlewares/ST/STM32_USB_Host_Library/Core/Src/usbh_ctlreq.c ****   cfg_desc->bConfigurationValue = *(uint8_t *)(buf + 5);
 1301              		.loc 1 419 3 is_stmt 1 view .LVU448
 419:Middlewares/ST/STM32_USB_Host_Library/Core/Src/usbh_ctlreq.c ****   cfg_desc->bConfigurationValue = *(uint8_t *)(buf + 5);
 1302              		.loc 1 419 33 is_stmt 0 view .LVU449
 1303 002c 2379     		ldrb	r3, [r4, #4]	@ zero_extendqisi2
 1304 002e 85F83C33 		strb	r3, [r5, #828]
 420:Middlewares/ST/STM32_USB_Host_Library/Core/Src/usbh_ctlreq.c ****   cfg_desc->iConfiguration      = *(uint8_t *)(buf + 6);
 1305              		.loc 1 420 3 is_stmt 1 view .LVU450
 420:Middlewares/ST/STM32_USB_Host_Library/Core/Src/usbh_ctlreq.c ****   cfg_desc->iConfiguration      = *(uint8_t *)(buf + 6);
 1306              		.loc 1 420 33 is_stmt 0 view .LVU451
 1307 0032 6379     		ldrb	r3, [r4, #5]	@ zero_extendqisi2
 1308 0034 85F83D33 		strb	r3, [r5, #829]
 421:Middlewares/ST/STM32_USB_Host_Library/Core/Src/usbh_ctlreq.c ****   cfg_desc->bmAttributes        = *(uint8_t *)(buf + 7);
 1309              		.loc 1 421 3 is_stmt 1 view .LVU452
 421:Middlewares/ST/STM32_USB_Host_Library/Core/Src/usbh_ctlreq.c ****   cfg_desc->bmAttributes        = *(uint8_t *)(buf + 7);
 1310              		.loc 1 421 33 is_stmt 0 view .LVU453
 1311 0038 A379     		ldrb	r3, [r4, #6]	@ zero_extendqisi2
 1312 003a 85F83E33 		strb	r3, [r5, #830]
 422:Middlewares/ST/STM32_USB_Host_Library/Core/Src/usbh_ctlreq.c ****   cfg_desc->bMaxPower           = *(uint8_t *)(buf + 8);
 1313              		.loc 1 422 3 is_stmt 1 view .LVU454
 422:Middlewares/ST/STM32_USB_Host_Library/Core/Src/usbh_ctlreq.c ****   cfg_desc->bMaxPower           = *(uint8_t *)(buf + 8);
 1314              		.loc 1 422 33 is_stmt 0 view .LVU455
 1315 003e E379     		ldrb	r3, [r4, #7]	@ zero_extendqisi2
 1316 0040 85F83F33 		strb	r3, [r5, #831]
 423:Middlewares/ST/STM32_USB_Host_Library/Core/Src/usbh_ctlreq.c **** 
 1317              		.loc 1 423 3 is_stmt 1 view .LVU456
 423:Middlewares/ST/STM32_USB_Host_Library/Core/Src/usbh_ctlreq.c **** 
 1318              		.loc 1 423 33 is_stmt 0 view .LVU457
ARM GAS  /tmp/ccapfRJn.s 			page 49


 1319 0044 237A     		ldrb	r3, [r4, #8]	@ zero_extendqisi2
 1320 0046 85F84033 		strb	r3, [r5, #832]
 426:Middlewares/ST/STM32_USB_Host_Library/Core/Src/usbh_ctlreq.c ****   {
 1321              		.loc 1 426 3 is_stmt 1 view .LVU458
 426:Middlewares/ST/STM32_USB_Host_Library/Core/Src/usbh_ctlreq.c ****   {
 1322              		.loc 1 426 6 is_stmt 0 view .LVU459
 1323 004a 0929     		cmp	r1, #9
 1324 004c 02D0     		beq	.L89
 428:Middlewares/ST/STM32_USB_Host_Library/Core/Src/usbh_ctlreq.c ****   }
 1325              		.loc 1 428 5 is_stmt 1 view .LVU460
 428:Middlewares/ST/STM32_USB_Host_Library/Core/Src/usbh_ctlreq.c ****   }
 1326              		.loc 1 428 23 is_stmt 0 view .LVU461
 1327 004e 0923     		movs	r3, #9
 1328 0050 85F83833 		strb	r3, [r5, #824]
 1329              	.L89:
 431:Middlewares/ST/STM32_USB_Host_Library/Core/Src/usbh_ctlreq.c ****   {
 1330              		.loc 1 431 3 is_stmt 1 view .LVU462
 431:Middlewares/ST/STM32_USB_Host_Library/Core/Src/usbh_ctlreq.c ****   {
 1331              		.loc 1 431 6 is_stmt 0 view .LVU463
 1332 0054 092A     		cmp	r2, #9
 1333 0056 40F28180 		bls	.L102
 433:Middlewares/ST/STM32_USB_Host_Library/Core/Src/usbh_ctlreq.c ****     pif = (USBH_InterfaceDescTypeDef *)NULL;
 1334              		.loc 1 433 5 is_stmt 1 view .LVU464
 433:Middlewares/ST/STM32_USB_Host_Library/Core/Src/usbh_ctlreq.c ****     pif = (USBH_InterfaceDescTypeDef *)NULL;
 1335              		.loc 1 433 9 is_stmt 0 view .LVU465
 1336 005a 0923     		movs	r3, #9
 1337 005c ADF80630 		strh	r3, [sp, #6]	@ movhi
 434:Middlewares/ST/STM32_USB_Host_Library/Core/Src/usbh_ctlreq.c **** 
 1338              		.loc 1 434 5 is_stmt 1 view .LVU466
 1339              	.LVL116:
 436:Middlewares/ST/STM32_USB_Host_Library/Core/Src/usbh_ctlreq.c ****     {
 1340              		.loc 1 436 5 view .LVU467
 410:Middlewares/ST/STM32_USB_Host_Library/Core/Src/usbh_ctlreq.c ****   uint8_t                      ep_ix = 0U;
 1341              		.loc 1 410 32 is_stmt 0 view .LVU468
 1342 0060 0026     		movs	r6, #0
 405:Middlewares/ST/STM32_USB_Host_Library/Core/Src/usbh_ctlreq.c ****   USBH_InterfaceDescTypeDef    *pif ;
 1343              		.loc 1 405 32 view .LVU469
 1344 0062 3746     		mov	r7, r6
 1345              	.LVL117:
 1346              	.L92:
 436:Middlewares/ST/STM32_USB_Host_Library/Core/Src/usbh_ctlreq.c ****     {
 1347              		.loc 1 436 11 is_stmt 1 view .LVU470
 1348 0064 012E     		cmp	r6, #1
 1349 0066 70D8     		bhi	.L100
 436:Middlewares/ST/STM32_USB_Host_Library/Core/Src/usbh_ctlreq.c ****     {
 1350              		.loc 1 436 64 is_stmt 0 discriminator 1 view .LVU471
 1351 0068 B5F83A23 		ldrh	r2, [r5, #826]
 436:Middlewares/ST/STM32_USB_Host_Library/Core/Src/usbh_ctlreq.c ****     {
 1352              		.loc 1 436 54 discriminator 1 view .LVU472
 1353 006c BDF80630 		ldrh	r3, [sp, #6]
 436:Middlewares/ST/STM32_USB_Host_Library/Core/Src/usbh_ctlreq.c ****     {
 1354              		.loc 1 436 46 discriminator 1 view .LVU473
 1355 0070 9A42     		cmp	r2, r3
 1356 0072 6AD9     		bls	.L100
 438:Middlewares/ST/STM32_USB_Host_Library/Core/Src/usbh_ctlreq.c ****       if (pdesc->bDescriptorType == USB_DESC_TYPE_INTERFACE)
 1357              		.loc 1 438 7 is_stmt 1 view .LVU474
 438:Middlewares/ST/STM32_USB_Host_Library/Core/Src/usbh_ctlreq.c ****       if (pdesc->bDescriptorType == USB_DESC_TYPE_INTERFACE)
ARM GAS  /tmp/ccapfRJn.s 			page 50


 1358              		.loc 1 438 15 is_stmt 0 view .LVU475
 1359 0074 0DF10601 		add	r1, sp, #6
 1360 0078 2046     		mov	r0, r4
 1361 007a FFF7FEFF 		bl	USBH_GetNextDesc
 1362              	.LVL118:
 1363 007e 0446     		mov	r4, r0
 1364              	.LVL119:
 439:Middlewares/ST/STM32_USB_Host_Library/Core/Src/usbh_ctlreq.c ****       {
 1365              		.loc 1 439 7 is_stmt 1 view .LVU476
 439:Middlewares/ST/STM32_USB_Host_Library/Core/Src/usbh_ctlreq.c ****       {
 1366              		.loc 1 439 16 is_stmt 0 view .LVU477
 1367 0080 4378     		ldrb	r3, [r0, #1]	@ zero_extendqisi2
 439:Middlewares/ST/STM32_USB_Host_Library/Core/Src/usbh_ctlreq.c ****       {
 1368              		.loc 1 439 10 view .LVU478
 1369 0082 042B     		cmp	r3, #4
 1370 0084 EED1     		bne	.L92
 442:Middlewares/ST/STM32_USB_Host_Library/Core/Src/usbh_ctlreq.c ****         {
 1371              		.loc 1 442 9 is_stmt 1 view .LVU479
 442:Middlewares/ST/STM32_USB_Host_Library/Core/Src/usbh_ctlreq.c ****         {
 1372              		.loc 1 442 18 is_stmt 0 view .LVU480
 1373 0086 0378     		ldrb	r3, [r0]	@ zero_extendqisi2
 442:Middlewares/ST/STM32_USB_Host_Library/Core/Src/usbh_ctlreq.c ****         {
 1374              		.loc 1 442 12 view .LVU481
 1375 0088 092B     		cmp	r3, #9
 1376 008a 01D0     		beq	.L93
 444:Middlewares/ST/STM32_USB_Host_Library/Core/Src/usbh_ctlreq.c ****         }
 1377              		.loc 1 444 11 is_stmt 1 view .LVU482
 444:Middlewares/ST/STM32_USB_Host_Library/Core/Src/usbh_ctlreq.c ****         }
 1378              		.loc 1 444 26 is_stmt 0 view .LVU483
 1379 008c 0923     		movs	r3, #9
 1380 008e 0370     		strb	r3, [r0]
 1381              	.L93:
 447:Middlewares/ST/STM32_USB_Host_Library/Core/Src/usbh_ctlreq.c ****         USBH_ParseInterfaceDesc(pif, (uint8_t *)(void *)pdesc);
 1382              		.loc 1 447 9 is_stmt 1 view .LVU484
 447:Middlewares/ST/STM32_USB_Host_Library/Core/Src/usbh_ctlreq.c ****         USBH_ParseInterfaceDesc(pif, (uint8_t *)(void *)pdesc);
 1383              		.loc 1 447 34 is_stmt 0 view .LVU485
 1384 0090 B146     		mov	r9, r6
 447:Middlewares/ST/STM32_USB_Host_Library/Core/Src/usbh_ctlreq.c ****         USBH_ParseInterfaceDesc(pif, (uint8_t *)(void *)pdesc);
 1385              		.loc 1 447 13 view .LVU486
 1386 0092 05F54E70 		add	r0, r5, #824
 1387              	.LVL120:
 447:Middlewares/ST/STM32_USB_Host_Library/Core/Src/usbh_ctlreq.c ****         USBH_ParseInterfaceDesc(pif, (uint8_t *)(void *)pdesc);
 1388              		.loc 1 447 13 view .LVU487
 1389 0096 1A23     		movs	r3, #26
 1390 0098 03FB06F3 		mul	r3, r3, r6
 1391 009c 0833     		adds	r3, r3, #8
 1392 009e 1844     		add	r0, r0, r3
 1393              	.LVL121:
 448:Middlewares/ST/STM32_USB_Host_Library/Core/Src/usbh_ctlreq.c **** 
 1394              		.loc 1 448 9 is_stmt 1 view .LVU488
 1395 00a0 2146     		mov	r1, r4
 1396 00a2 0230     		adds	r0, r0, #2
 1397              	.LVL122:
 448:Middlewares/ST/STM32_USB_Host_Library/Core/Src/usbh_ctlreq.c **** 
 1398              		.loc 1 448 9 is_stmt 0 view .LVU489
 1399 00a4 FFF7FEFF 		bl	USBH_ParseInterfaceDesc
 1400              	.LVL123:
ARM GAS  /tmp/ccapfRJn.s 			page 51


 450:Middlewares/ST/STM32_USB_Host_Library/Core/Src/usbh_ctlreq.c ****         pep = (USBH_EpDescTypeDef *)NULL;
 1401              		.loc 1 450 9 is_stmt 1 view .LVU490
 451:Middlewares/ST/STM32_USB_Host_Library/Core/Src/usbh_ctlreq.c **** 
 1402              		.loc 1 451 9 view .LVU491
 453:Middlewares/ST/STM32_USB_Host_Library/Core/Src/usbh_ctlreq.c ****         {
 1403              		.loc 1 453 9 view .LVU492
 450:Middlewares/ST/STM32_USB_Host_Library/Core/Src/usbh_ctlreq.c ****         pep = (USBH_EpDescTypeDef *)NULL;
 1404              		.loc 1 450 15 is_stmt 0 view .LVU493
 1405 00a8 4FF00008 		mov	r8, #0
 453:Middlewares/ST/STM32_USB_Host_Library/Core/Src/usbh_ctlreq.c ****         {
 1406              		.loc 1 453 15 view .LVU494
 1407 00ac 27E0     		b	.L94
 1408              	.LVL124:
 1409              	.L106:
 460:Middlewares/ST/STM32_USB_Host_Library/Core/Src/usbh_ctlreq.c ****             {
 1410              		.loc 1 460 56 discriminator 1 view .LVU495
 1411 00ae 1A23     		movs	r3, #26
 1412              	.LVL125:
 460:Middlewares/ST/STM32_USB_Host_Library/Core/Src/usbh_ctlreq.c ****             {
 1413              		.loc 1 460 56 discriminator 1 view .LVU496
 1414 00b0 03FB0953 		mla	r3, r3, r9, r5
 1415              	.LVL126:
 460:Middlewares/ST/STM32_USB_Host_Library/Core/Src/usbh_ctlreq.c ****             {
 1416              		.loc 1 460 56 discriminator 1 view .LVU497
 1417 00b4 93F84833 		ldrb	r3, [r3, #840]	@ zero_extendqisi2
 460:Middlewares/ST/STM32_USB_Host_Library/Core/Src/usbh_ctlreq.c ****             {
 1418              		.loc 1 460 49 discriminator 1 view .LVU498
 1419 00b8 022B     		cmp	r3, #2
 1420 00ba 3DD1     		bne	.L96
 463:Middlewares/ST/STM32_USB_Host_Library/Core/Src/usbh_ctlreq.c ****               {
 1421              		.loc 1 463 15 is_stmt 1 view .LVU499
 463:Middlewares/ST/STM32_USB_Host_Library/Core/Src/usbh_ctlreq.c ****               {
 1422              		.loc 1 463 23 is_stmt 0 view .LVU500
 1423 00bc 1A23     		movs	r3, #26
 1424              	.LVL127:
 463:Middlewares/ST/STM32_USB_Host_Library/Core/Src/usbh_ctlreq.c ****               {
 1425              		.loc 1 463 23 view .LVU501
 1426 00be 03FB0953 		mla	r3, r3, r9, r5
 1427              	.LVL128:
 463:Middlewares/ST/STM32_USB_Host_Library/Core/Src/usbh_ctlreq.c ****               {
 1428              		.loc 1 463 23 view .LVU502
 1429 00c2 93F84933 		ldrb	r3, [r3, #841]	@ zero_extendqisi2
 463:Middlewares/ST/STM32_USB_Host_Library/Core/Src/usbh_ctlreq.c ****               {
 1430              		.loc 1 463 18 view .LVU503
 1431 00c6 3BB9     		cbnz	r3, .L97
 463:Middlewares/ST/STM32_USB_Host_Library/Core/Src/usbh_ctlreq.c ****               {
 1432              		.loc 1 463 63 discriminator 1 view .LVU504
 1433 00c8 0378     		ldrb	r3, [r0]	@ zero_extendqisi2
 463:Middlewares/ST/STM32_USB_Host_Library/Core/Src/usbh_ctlreq.c ****               {
 1434              		.loc 1 463 54 discriminator 1 view .LVU505
 1435 00ca 092B     		cmp	r3, #9
 1436 00cc 04D0     		beq	.L97
 465:Middlewares/ST/STM32_USB_Host_Library/Core/Src/usbh_ctlreq.c ****               }
 1437              		.loc 1 465 17 is_stmt 1 view .LVU506
 465:Middlewares/ST/STM32_USB_Host_Library/Core/Src/usbh_ctlreq.c ****               }
 1438              		.loc 1 465 32 is_stmt 0 view .LVU507
 1439 00ce 0923     		movs	r3, #9
ARM GAS  /tmp/ccapfRJn.s 			page 52


 1440 00d0 0370     		strb	r3, [r0]
 1441 00d2 01E0     		b	.L97
 1442              	.L107:
 472:Middlewares/ST/STM32_USB_Host_Library/Core/Src/usbh_ctlreq.c ****             }
 1443              		.loc 1 472 15 is_stmt 1 view .LVU508
 472:Middlewares/ST/STM32_USB_Host_Library/Core/Src/usbh_ctlreq.c ****             }
 1444              		.loc 1 472 30 is_stmt 0 view .LVU509
 1445 00d4 0723     		movs	r3, #7
 1446 00d6 2370     		strb	r3, [r4]
 1447              	.L97:
 477:Middlewares/ST/STM32_USB_Host_Library/Core/Src/usbh_ctlreq.c **** 
 1448              		.loc 1 477 13 is_stmt 1 view .LVU510
 479:Middlewares/ST/STM32_USB_Host_Library/Core/Src/usbh_ctlreq.c **** 
 1449              		.loc 1 479 13 view .LVU511
 479:Middlewares/ST/STM32_USB_Host_Library/Core/Src/usbh_ctlreq.c **** 
 1450              		.loc 1 479 17 is_stmt 0 view .LVU512
 1451 00d8 05F54E73 		add	r3, r5, #824
 1452 00dc 08F10108 		add	r8, r8, #1
 1453              	.LVL129:
 479:Middlewares/ST/STM32_USB_Host_Library/Core/Src/usbh_ctlreq.c **** 
 1454              		.loc 1 479 17 view .LVU513
 1455 00e0 1A21     		movs	r1, #26
 1456              	.LVL130:
 479:Middlewares/ST/STM32_USB_Host_Library/Core/Src/usbh_ctlreq.c **** 
 1457              		.loc 1 479 17 view .LVU514
 1458 00e2 01FB09F1 		mul	r1, r1, r9
 1459              	.LVL131:
 479:Middlewares/ST/STM32_USB_Host_Library/Core/Src/usbh_ctlreq.c **** 
 1460              		.loc 1 479 17 view .LVU515
 1461 00e6 01EBC801 		add	r1, r1, r8, lsl #3
 1462 00ea 0831     		adds	r1, r1, #8
 1463 00ec 1944     		add	r1, r1, r3
 1464              	.LVL132:
 481:Middlewares/ST/STM32_USB_Host_Library/Core/Src/usbh_ctlreq.c **** 
 1465              		.loc 1 481 13 is_stmt 1 view .LVU516
 481:Middlewares/ST/STM32_USB_Host_Library/Core/Src/usbh_ctlreq.c **** 
 1466              		.loc 1 481 22 is_stmt 0 view .LVU517
 1467 00ee 2246     		mov	r2, r4
 1468 00f0 0431     		adds	r1, r1, #4
 1469              	.LVL133:
 481:Middlewares/ST/STM32_USB_Host_Library/Core/Src/usbh_ctlreq.c **** 
 1470              		.loc 1 481 22 view .LVU518
 1471 00f2 2846     		mov	r0, r5
 1472              	.LVL134:
 481:Middlewares/ST/STM32_USB_Host_Library/Core/Src/usbh_ctlreq.c **** 
 1473              		.loc 1 481 22 view .LVU519
 1474 00f4 FFF7FEFF 		bl	USBH_ParseEPDesc
 1475              	.LVL135:
 481:Middlewares/ST/STM32_USB_Host_Library/Core/Src/usbh_ctlreq.c **** 
 1476              		.loc 1 481 22 view .LVU520
 1477 00f8 0746     		mov	r7, r0
 1478              	.LVL136:
 483:Middlewares/ST/STM32_USB_Host_Library/Core/Src/usbh_ctlreq.c ****           }
 1479              		.loc 1 483 13 is_stmt 1 view .LVU521
 483:Middlewares/ST/STM32_USB_Host_Library/Core/Src/usbh_ctlreq.c ****           }
 1480              		.loc 1 483 18 is_stmt 0 view .LVU522
 1481 00fa 5FFA88F8 		uxtb	r8, r8
ARM GAS  /tmp/ccapfRJn.s 			page 53


 1482              	.LVL137:
 1483              	.L94:
 453:Middlewares/ST/STM32_USB_Host_Library/Core/Src/usbh_ctlreq.c ****         {
 1484              		.loc 1 453 15 is_stmt 1 view .LVU523
 453:Middlewares/ST/STM32_USB_Host_Library/Core/Src/usbh_ctlreq.c ****         {
 1485              		.loc 1 453 28 is_stmt 0 view .LVU524
 1486 00fe 1A23     		movs	r3, #26
 1487              	.LVL138:
 453:Middlewares/ST/STM32_USB_Host_Library/Core/Src/usbh_ctlreq.c ****         {
 1488              		.loc 1 453 28 view .LVU525
 1489 0100 03FB0953 		mla	r3, r3, r9, r5
 1490              	.LVL139:
 453:Middlewares/ST/STM32_USB_Host_Library/Core/Src/usbh_ctlreq.c ****         {
 1491              		.loc 1 453 28 view .LVU526
 1492 0104 93F84633 		ldrb	r3, [r3, #838]	@ zero_extendqisi2
 453:Middlewares/ST/STM32_USB_Host_Library/Core/Src/usbh_ctlreq.c ****         {
 1493              		.loc 1 453 15 view .LVU527
 1494 0108 4345     		cmp	r3, r8
 1495 010a 19D9     		bls	.L98
 453:Middlewares/ST/STM32_USB_Host_Library/Core/Src/usbh_ctlreq.c ****         {
 1496              		.loc 1 453 63 discriminator 1 view .LVU528
 1497 010c B5F83A13 		ldrh	r1, [r5, #826]
 453:Middlewares/ST/STM32_USB_Host_Library/Core/Src/usbh_ctlreq.c ****         {
 1498              		.loc 1 453 53 discriminator 1 view .LVU529
 1499 0110 BDF80620 		ldrh	r2, [sp, #6]
 453:Middlewares/ST/STM32_USB_Host_Library/Core/Src/usbh_ctlreq.c ****         {
 1500              		.loc 1 453 45 discriminator 1 view .LVU530
 1501 0114 9142     		cmp	r1, r2
 1502 0116 13D9     		bls	.L98
 455:Middlewares/ST/STM32_USB_Host_Library/Core/Src/usbh_ctlreq.c **** 
 1503              		.loc 1 455 11 is_stmt 1 view .LVU531
 455:Middlewares/ST/STM32_USB_Host_Library/Core/Src/usbh_ctlreq.c **** 
 1504              		.loc 1 455 19 is_stmt 0 view .LVU532
 1505 0118 0DF10601 		add	r1, sp, #6
 1506 011c 2046     		mov	r0, r4
 1507 011e FFF7FEFF 		bl	USBH_GetNextDesc
 1508              	.LVL140:
 1509 0122 0446     		mov	r4, r0
 1510              	.LVL141:
 457:Middlewares/ST/STM32_USB_Host_Library/Core/Src/usbh_ctlreq.c ****           {
 1511              		.loc 1 457 11 is_stmt 1 view .LVU533
 457:Middlewares/ST/STM32_USB_Host_Library/Core/Src/usbh_ctlreq.c ****           {
 1512              		.loc 1 457 20 is_stmt 0 view .LVU534
 1513 0124 4378     		ldrb	r3, [r0, #1]	@ zero_extendqisi2
 457:Middlewares/ST/STM32_USB_Host_Library/Core/Src/usbh_ctlreq.c ****           {
 1514              		.loc 1 457 14 view .LVU535
 1515 0126 052B     		cmp	r3, #5
 1516 0128 E9D1     		bne	.L94
 460:Middlewares/ST/STM32_USB_Host_Library/Core/Src/usbh_ctlreq.c ****             {
 1517              		.loc 1 460 13 is_stmt 1 view .LVU536
 460:Middlewares/ST/STM32_USB_Host_Library/Core/Src/usbh_ctlreq.c ****             {
 1518              		.loc 1 460 21 is_stmt 0 view .LVU537
 1519 012a 1A23     		movs	r3, #26
 1520              	.LVL142:
 460:Middlewares/ST/STM32_USB_Host_Library/Core/Src/usbh_ctlreq.c ****             {
 1521              		.loc 1 460 21 view .LVU538
 1522 012c 03FB0953 		mla	r3, r3, r9, r5
ARM GAS  /tmp/ccapfRJn.s 			page 54


 1523              	.LVL143:
 460:Middlewares/ST/STM32_USB_Host_Library/Core/Src/usbh_ctlreq.c ****             {
 1524              		.loc 1 460 21 view .LVU539
 1525 0130 93F84733 		ldrb	r3, [r3, #839]	@ zero_extendqisi2
 460:Middlewares/ST/STM32_USB_Host_Library/Core/Src/usbh_ctlreq.c ****             {
 1526              		.loc 1 460 16 view .LVU540
 1527 0134 012B     		cmp	r3, #1
 1528 0136 BAD0     		beq	.L106
 1529              	.L96:
 470:Middlewares/ST/STM32_USB_Host_Library/Core/Src/usbh_ctlreq.c ****             {
 1530              		.loc 1 470 18 is_stmt 1 view .LVU541
 470:Middlewares/ST/STM32_USB_Host_Library/Core/Src/usbh_ctlreq.c ****             {
 1531              		.loc 1 470 27 is_stmt 0 view .LVU542
 1532 0138 2378     		ldrb	r3, [r4]	@ zero_extendqisi2
 470:Middlewares/ST/STM32_USB_Host_Library/Core/Src/usbh_ctlreq.c ****             {
 1533              		.loc 1 470 21 view .LVU543
 1534 013a 072B     		cmp	r3, #7
 1535 013c CAD1     		bne	.L107
 1536 013e CBE7     		b	.L97
 1537              	.LVL144:
 1538              	.L98:
 488:Middlewares/ST/STM32_USB_Host_Library/Core/Src/usbh_ctlreq.c ****         {
 1539              		.loc 1 488 9 is_stmt 1 view .LVU544
 488:Middlewares/ST/STM32_USB_Host_Library/Core/Src/usbh_ctlreq.c ****         {
 1540              		.loc 1 488 12 is_stmt 0 view .LVU545
 1541 0140 4345     		cmp	r3, r8
 1542 0142 10D8     		bhi	.L103
 493:Middlewares/ST/STM32_USB_Host_Library/Core/Src/usbh_ctlreq.c ****       }
 1543              		.loc 1 493 9 is_stmt 1 view .LVU546
 493:Middlewares/ST/STM32_USB_Host_Library/Core/Src/usbh_ctlreq.c ****       }
 1544              		.loc 1 493 14 is_stmt 0 view .LVU547
 1545 0144 0136     		adds	r6, r6, #1
 1546              	.LVL145:
 493:Middlewares/ST/STM32_USB_Host_Library/Core/Src/usbh_ctlreq.c ****       }
 1547              		.loc 1 493 14 view .LVU548
 1548 0146 F6B2     		uxtb	r6, r6
 1549              	.LVL146:
 493:Middlewares/ST/STM32_USB_Host_Library/Core/Src/usbh_ctlreq.c ****       }
 1550              		.loc 1 493 14 view .LVU549
 1551 0148 8CE7     		b	.L92
 1552              	.LVL147:
 1553              	.L100:
 498:Middlewares/ST/STM32_USB_Host_Library/Core/Src/usbh_ctlreq.c ****     {
 1554              		.loc 1 498 5 is_stmt 1 view .LVU550
 498:Middlewares/ST/STM32_USB_Host_Library/Core/Src/usbh_ctlreq.c ****     {
 1555              		.loc 1 498 17 is_stmt 0 view .LVU551
 1556 014a 95F83C33 		ldrb	r3, [r5, #828]	@ zero_extendqisi2
 1557 014e 022B     		cmp	r3, #2
 1558 0150 28BF     		it	cs
 1559 0152 0223     		movcs	r3, #2
 498:Middlewares/ST/STM32_USB_Host_Library/Core/Src/usbh_ctlreq.c ****     {
 1560              		.loc 1 498 8 view .LVU552
 1561 0154 B342     		cmp	r3, r6
 1562 0156 02D9     		bls	.L90
 500:Middlewares/ST/STM32_USB_Host_Library/Core/Src/usbh_ctlreq.c ****     }
 1563              		.loc 1 500 14 view .LVU553
 1564 0158 0327     		movs	r7, #3
ARM GAS  /tmp/ccapfRJn.s 			page 55


 1565              	.LVL148:
 500:Middlewares/ST/STM32_USB_Host_Library/Core/Src/usbh_ctlreq.c ****     }
 1566              		.loc 1 500 14 view .LVU554
 1567 015a 00E0     		b	.L90
 1568              	.LVL149:
 1569              	.L102:
 405:Middlewares/ST/STM32_USB_Host_Library/Core/Src/usbh_ctlreq.c ****   USBH_InterfaceDescTypeDef    *pif ;
 1570              		.loc 1 405 32 view .LVU555
 1571 015c 0027     		movs	r7, #0
 1572              	.LVL150:
 1573              	.L90:
 505:Middlewares/ST/STM32_USB_Host_Library/Core/Src/usbh_ctlreq.c **** 
 1574              		.loc 1 505 1 view .LVU556
 1575 015e 3846     		mov	r0, r7
 1576 0160 03B0     		add	sp, sp, #12
 1577              	.LCFI13:
 1578              		.cfi_remember_state
 1579              		.cfi_def_cfa_offset 28
 1580              		@ sp needed
 1581 0162 BDE8F083 		pop	{r4, r5, r6, r7, r8, r9, pc}
 1582              	.LVL151:
 1583              	.L103:
 1584              	.LCFI14:
 1585              		.cfi_restore_state
 490:Middlewares/ST/STM32_USB_Host_Library/Core/Src/usbh_ctlreq.c ****         }
 1586              		.loc 1 490 18 view .LVU557
 1587 0166 0327     		movs	r7, #3
 1588              	.LVL152:
 490:Middlewares/ST/STM32_USB_Host_Library/Core/Src/usbh_ctlreq.c ****         }
 1589              		.loc 1 490 18 view .LVU558
 1590 0168 F9E7     		b	.L90
 1591              		.cfi_endproc
 1592              	.LFE252:
 1594              		.section	.text.USBH_CtlReq,"ax",%progbits
 1595              		.align	1
 1596              		.global	USBH_CtlReq
 1597              		.syntax unified
 1598              		.thumb
 1599              		.thumb_func
 1600              		.fpu fpv4-sp-d16
 1602              	USBH_CtlReq:
 1603              	.LVL153:
 1604              	.LFB257:
 684:Middlewares/ST/STM32_USB_Host_Library/Core/Src/usbh_ctlreq.c ****   USBH_StatusTypeDef status;
 1605              		.loc 1 684 1 is_stmt 1 view -0
 1606              		.cfi_startproc
 1607              		@ args = 0, pretend = 0, frame = 0
 1608              		@ frame_needed = 0, uses_anonymous_args = 0
 684:Middlewares/ST/STM32_USB_Host_Library/Core/Src/usbh_ctlreq.c ****   USBH_StatusTypeDef status;
 1609              		.loc 1 684 1 is_stmt 0 view .LVU560
 1610 0000 38B5     		push	{r3, r4, r5, lr}
 1611              	.LCFI15:
 1612              		.cfi_def_cfa_offset 16
 1613              		.cfi_offset 3, -16
 1614              		.cfi_offset 4, -12
 1615              		.cfi_offset 5, -8
 1616              		.cfi_offset 14, -4
ARM GAS  /tmp/ccapfRJn.s 			page 56


 1617 0002 0446     		mov	r4, r0
 685:Middlewares/ST/STM32_USB_Host_Library/Core/Src/usbh_ctlreq.c ****   status = USBH_BUSY;
 1618              		.loc 1 685 3 is_stmt 1 view .LVU561
 686:Middlewares/ST/STM32_USB_Host_Library/Core/Src/usbh_ctlreq.c **** 
 1619              		.loc 1 686 3 view .LVU562
 1620              	.LVL154:
 688:Middlewares/ST/STM32_USB_Host_Library/Core/Src/usbh_ctlreq.c ****   {
 1621              		.loc 1 688 3 view .LVU563
 688:Middlewares/ST/STM32_USB_Host_Library/Core/Src/usbh_ctlreq.c ****   {
 1622              		.loc 1 688 16 is_stmt 0 view .LVU564
 1623 0004 8578     		ldrb	r5, [r0, #2]	@ zero_extendqisi2
 688:Middlewares/ST/STM32_USB_Host_Library/Core/Src/usbh_ctlreq.c ****   {
 1624              		.loc 1 688 3 view .LVU565
 1625 0006 012D     		cmp	r5, #1
 1626 0008 04D0     		beq	.L109
 1627 000a 022D     		cmp	r5, #2
 1628 000c 14D0     		beq	.L110
 1629 000e 0125     		movs	r5, #1
 1630              	.LVL155:
 1631              	.L111:
 738:Middlewares/ST/STM32_USB_Host_Library/Core/Src/usbh_ctlreq.c **** }
 1632              		.loc 1 738 3 is_stmt 1 view .LVU566
 739:Middlewares/ST/STM32_USB_Host_Library/Core/Src/usbh_ctlreq.c **** 
 1633              		.loc 1 739 1 is_stmt 0 view .LVU567
 1634 0010 2846     		mov	r0, r5
 1635 0012 38BD     		pop	{r3, r4, r5, pc}
 1636              	.LVL156:
 1637              	.L109:
 692:Middlewares/ST/STM32_USB_Host_Library/Core/Src/usbh_ctlreq.c ****       phost->Control.length = length;
 1638              		.loc 1 692 7 is_stmt 1 view .LVU568
 692:Middlewares/ST/STM32_USB_Host_Library/Core/Src/usbh_ctlreq.c ****       phost->Control.length = length;
 1639              		.loc 1 692 27 is_stmt 0 view .LVU569
 1640 0014 8160     		str	r1, [r0, #8]
 693:Middlewares/ST/STM32_USB_Host_Library/Core/Src/usbh_ctlreq.c ****       phost->Control.state = CTRL_SETUP;
 1641              		.loc 1 693 7 is_stmt 1 view .LVU570
 693:Middlewares/ST/STM32_USB_Host_Library/Core/Src/usbh_ctlreq.c ****       phost->Control.state = CTRL_SETUP;
 1642              		.loc 1 693 29 is_stmt 0 view .LVU571
 1643 0016 8281     		strh	r2, [r0, #12]	@ movhi
 694:Middlewares/ST/STM32_USB_Host_Library/Core/Src/usbh_ctlreq.c ****       phost->RequestState = CMD_WAIT;
 1644              		.loc 1 694 7 is_stmt 1 view .LVU572
 694:Middlewares/ST/STM32_USB_Host_Library/Core/Src/usbh_ctlreq.c ****       phost->RequestState = CMD_WAIT;
 1645              		.loc 1 694 28 is_stmt 0 view .LVU573
 1646 0018 0123     		movs	r3, #1
 1647 001a 0376     		strb	r3, [r0, #24]
 695:Middlewares/ST/STM32_USB_Host_Library/Core/Src/usbh_ctlreq.c ****       status = USBH_BUSY;
 1648              		.loc 1 695 7 is_stmt 1 view .LVU574
 695:Middlewares/ST/STM32_USB_Host_Library/Core/Src/usbh_ctlreq.c ****       status = USBH_BUSY;
 1649              		.loc 1 695 27 is_stmt 0 view .LVU575
 1650 001c 0223     		movs	r3, #2
 1651 001e 8370     		strb	r3, [r0, #2]
 696:Middlewares/ST/STM32_USB_Host_Library/Core/Src/usbh_ctlreq.c **** 
 1652              		.loc 1 696 7 is_stmt 1 view .LVU576
 699:Middlewares/ST/STM32_USB_Host_Library/Core/Src/usbh_ctlreq.c **** #if (osCMSIS < 0x20000U)
 1653              		.loc 1 699 7 view .LVU577
 699:Middlewares/ST/STM32_USB_Host_Library/Core/Src/usbh_ctlreq.c **** #if (osCMSIS < 0x20000U)
 1654              		.loc 1 699 21 is_stmt 0 view .LVU578
 1655 0020 0323     		movs	r3, #3
ARM GAS  /tmp/ccapfRJn.s 			page 57


 1656 0022 C0F8E033 		str	r3, [r0, #992]
 703:Middlewares/ST/STM32_USB_Host_Library/Core/Src/usbh_ctlreq.c **** #endif
 1657              		.loc 1 703 7 is_stmt 1 view .LVU579
 703:Middlewares/ST/STM32_USB_Host_Library/Core/Src/usbh_ctlreq.c **** #endif
 1658              		.loc 1 703 13 is_stmt 0 view .LVU580
 1659 0026 0023     		movs	r3, #0
 1660 0028 1A46     		mov	r2, r3
 1661              	.LVL157:
 703:Middlewares/ST/STM32_USB_Host_Library/Core/Src/usbh_ctlreq.c **** #endif
 1662              		.loc 1 703 13 view .LVU581
 1663 002a 00F57871 		add	r1, r0, #992
 1664              	.LVL158:
 703:Middlewares/ST/STM32_USB_Host_Library/Core/Src/usbh_ctlreq.c **** #endif
 1665              		.loc 1 703 13 view .LVU582
 1666 002e D0F8D803 		ldr	r0, [r0, #984]
 1667              	.LVL159:
 703:Middlewares/ST/STM32_USB_Host_Library/Core/Src/usbh_ctlreq.c **** #endif
 1668              		.loc 1 703 13 view .LVU583
 1669 0032 FFF7FEFF 		bl	osMessageQueuePut
 1670              	.LVL160:
 706:Middlewares/ST/STM32_USB_Host_Library/Core/Src/usbh_ctlreq.c **** 
 1671              		.loc 1 706 7 is_stmt 1 view .LVU584
 1672 0036 EBE7     		b	.L111
 1673              	.LVL161:
 1674              	.L110:
 709:Middlewares/ST/STM32_USB_Host_Library/Core/Src/usbh_ctlreq.c ****       if ((status == USBH_OK) || (status == USBH_NOT_SUPPORTED))
 1675              		.loc 1 709 7 view .LVU585
 709:Middlewares/ST/STM32_USB_Host_Library/Core/Src/usbh_ctlreq.c ****       if ((status == USBH_OK) || (status == USBH_NOT_SUPPORTED))
 1676              		.loc 1 709 16 is_stmt 0 view .LVU586
 1677 0038 FFF7FEFF 		bl	USBH_HandleControl
 1678              	.LVL162:
 710:Middlewares/ST/STM32_USB_Host_Library/Core/Src/usbh_ctlreq.c ****       {
 1679              		.loc 1 710 7 is_stmt 1 view .LVU587
 710:Middlewares/ST/STM32_USB_Host_Library/Core/Src/usbh_ctlreq.c ****       {
 1680              		.loc 1 710 10 is_stmt 0 view .LVU588
 1681 003c 0546     		mov	r5, r0
 1682 003e 30B1     		cbz	r0, .L112
 710:Middlewares/ST/STM32_USB_Host_Library/Core/Src/usbh_ctlreq.c ****       {
 1683              		.loc 1 710 31 discriminator 1 view .LVU589
 1684 0040 0328     		cmp	r0, #3
 1685 0042 04D0     		beq	.L112
 716:Middlewares/ST/STM32_USB_Host_Library/Core/Src/usbh_ctlreq.c ****       {
 1686              		.loc 1 716 12 is_stmt 1 view .LVU590
 716:Middlewares/ST/STM32_USB_Host_Library/Core/Src/usbh_ctlreq.c ****       {
 1687              		.loc 1 716 15 is_stmt 0 view .LVU591
 1688 0044 0228     		cmp	r0, #2
 1689 0046 06D1     		bne	.L114
 719:Middlewares/ST/STM32_USB_Host_Library/Core/Src/usbh_ctlreq.c ****       }
 1690              		.loc 1 719 9 is_stmt 1 view .LVU592
 719:Middlewares/ST/STM32_USB_Host_Library/Core/Src/usbh_ctlreq.c ****       }
 1691              		.loc 1 719 29 is_stmt 0 view .LVU593
 1692 0048 0123     		movs	r3, #1
 1693 004a A370     		strb	r3, [r4, #2]
 1694 004c 03E0     		b	.L114
 1695              	.L112:
 713:Middlewares/ST/STM32_USB_Host_Library/Core/Src/usbh_ctlreq.c ****         phost->Control.state = CTRL_IDLE;
 1696              		.loc 1 713 9 is_stmt 1 view .LVU594
ARM GAS  /tmp/ccapfRJn.s 			page 58


 713:Middlewares/ST/STM32_USB_Host_Library/Core/Src/usbh_ctlreq.c ****         phost->Control.state = CTRL_IDLE;
 1697              		.loc 1 713 29 is_stmt 0 view .LVU595
 1698 004e 0123     		movs	r3, #1
 1699 0050 A370     		strb	r3, [r4, #2]
 714:Middlewares/ST/STM32_USB_Host_Library/Core/Src/usbh_ctlreq.c ****       }
 1700              		.loc 1 714 9 is_stmt 1 view .LVU596
 714:Middlewares/ST/STM32_USB_Host_Library/Core/Src/usbh_ctlreq.c ****       }
 1701              		.loc 1 714 30 is_stmt 0 view .LVU597
 1702 0052 0023     		movs	r3, #0
 1703 0054 2376     		strb	r3, [r4, #24]
 1704              	.L114:
 724:Middlewares/ST/STM32_USB_Host_Library/Core/Src/usbh_ctlreq.c **** #if (USBH_USE_OS == 1U)
 1705              		.loc 1 724 7 is_stmt 1 view .LVU598
 726:Middlewares/ST/STM32_USB_Host_Library/Core/Src/usbh_ctlreq.c **** #if (osCMSIS < 0x20000U)
 1706              		.loc 1 726 7 view .LVU599
 726:Middlewares/ST/STM32_USB_Host_Library/Core/Src/usbh_ctlreq.c **** #if (osCMSIS < 0x20000U)
 1707              		.loc 1 726 21 is_stmt 0 view .LVU600
 1708 0056 0323     		movs	r3, #3
 1709 0058 C4F8E033 		str	r3, [r4, #992]
 730:Middlewares/ST/STM32_USB_Host_Library/Core/Src/usbh_ctlreq.c **** #endif
 1710              		.loc 1 730 7 is_stmt 1 view .LVU601
 730:Middlewares/ST/STM32_USB_Host_Library/Core/Src/usbh_ctlreq.c **** #endif
 1711              		.loc 1 730 13 is_stmt 0 view .LVU602
 1712 005c 0023     		movs	r3, #0
 1713 005e 1A46     		mov	r2, r3
 1714 0060 04F57871 		add	r1, r4, #992
 1715 0064 D4F8D803 		ldr	r0, [r4, #984]
 1716              	.LVL163:
 730:Middlewares/ST/STM32_USB_Host_Library/Core/Src/usbh_ctlreq.c **** #endif
 1717              		.loc 1 730 13 view .LVU603
 1718 0068 FFF7FEFF 		bl	osMessageQueuePut
 1719              	.LVL164:
 733:Middlewares/ST/STM32_USB_Host_Library/Core/Src/usbh_ctlreq.c **** 
 1720              		.loc 1 733 7 is_stmt 1 view .LVU604
 1721 006c D0E7     		b	.L111
 1722              		.cfi_endproc
 1723              	.LFE257:
 1725              		.section	.text.USBH_GetDescriptor,"ax",%progbits
 1726              		.align	1
 1727              		.global	USBH_GetDescriptor
 1728              		.syntax unified
 1729              		.thumb
 1730              		.thumb_func
 1731              		.fpu fpv4-sp-d16
 1733              	USBH_GetDescriptor:
 1734              	.LVL165:
 1735              	.LFB245:
 199:Middlewares/ST/STM32_USB_Host_Library/Core/Src/usbh_ctlreq.c ****   if (phost->RequestState == CMD_SEND)
 1736              		.loc 1 199 1 view -0
 1737              		.cfi_startproc
 1738              		@ args = 4, pretend = 0, frame = 0
 1739              		@ frame_needed = 0, uses_anonymous_args = 0
 199:Middlewares/ST/STM32_USB_Host_Library/Core/Src/usbh_ctlreq.c ****   if (phost->RequestState == CMD_SEND)
 1740              		.loc 1 199 1 is_stmt 0 view .LVU606
 1741 0000 38B5     		push	{r3, r4, r5, lr}
 1742              	.LCFI16:
 1743              		.cfi_def_cfa_offset 16
ARM GAS  /tmp/ccapfRJn.s 			page 59


 1744              		.cfi_offset 3, -16
 1745              		.cfi_offset 4, -12
 1746              		.cfi_offset 5, -8
 1747              		.cfi_offset 14, -4
 1748 0002 0D46     		mov	r5, r1
 1749 0004 1446     		mov	r4, r2
 1750 0006 1946     		mov	r1, r3
 1751              	.LVL166:
 199:Middlewares/ST/STM32_USB_Host_Library/Core/Src/usbh_ctlreq.c ****   if (phost->RequestState == CMD_SEND)
 1752              		.loc 1 199 1 view .LVU607
 1753 0008 BDF81020 		ldrh	r2, [sp, #16]
 1754              	.LVL167:
 200:Middlewares/ST/STM32_USB_Host_Library/Core/Src/usbh_ctlreq.c ****   {
 1755              		.loc 1 200 3 is_stmt 1 view .LVU608
 200:Middlewares/ST/STM32_USB_Host_Library/Core/Src/usbh_ctlreq.c ****   {
 1756              		.loc 1 200 12 is_stmt 0 view .LVU609
 1757 000c 8378     		ldrb	r3, [r0, #2]	@ zero_extendqisi2
 1758              	.LVL168:
 200:Middlewares/ST/STM32_USB_Host_Library/Core/Src/usbh_ctlreq.c ****   {
 1759              		.loc 1 200 6 view .LVU610
 1760 000e 012B     		cmp	r3, #1
 1761 0010 02D0     		beq	.L121
 1762              	.L117:
 217:Middlewares/ST/STM32_USB_Host_Library/Core/Src/usbh_ctlreq.c **** }
 1763              		.loc 1 217 3 is_stmt 1 view .LVU611
 217:Middlewares/ST/STM32_USB_Host_Library/Core/Src/usbh_ctlreq.c **** }
 1764              		.loc 1 217 10 is_stmt 0 view .LVU612
 1765 0012 FFF7FEFF 		bl	USBH_CtlReq
 1766              	.LVL169:
 218:Middlewares/ST/STM32_USB_Host_Library/Core/Src/usbh_ctlreq.c **** 
 1767              		.loc 1 218 1 view .LVU613
 1768 0016 38BD     		pop	{r3, r4, r5, pc}
 1769              	.LVL170:
 1770              	.L121:
 202:Middlewares/ST/STM32_USB_Host_Library/Core/Src/usbh_ctlreq.c ****     phost->Control.setup.b.bRequest = USB_REQ_GET_DESCRIPTOR;
 1771              		.loc 1 202 5 is_stmt 1 view .LVU614
 202:Middlewares/ST/STM32_USB_Host_Library/Core/Src/usbh_ctlreq.c ****     phost->Control.setup.b.bRequest = USB_REQ_GET_DESCRIPTOR;
 1772              		.loc 1 202 42 is_stmt 0 view .LVU615
 1773 0018 65F07F05 		orn	r5, r5, #127
 1774 001c 0574     		strb	r5, [r0, #16]
 203:Middlewares/ST/STM32_USB_Host_Library/Core/Src/usbh_ctlreq.c ****     phost->Control.setup.b.wValue.w = value_idx;
 1775              		.loc 1 203 5 is_stmt 1 view .LVU616
 203:Middlewares/ST/STM32_USB_Host_Library/Core/Src/usbh_ctlreq.c ****     phost->Control.setup.b.wValue.w = value_idx;
 1776              		.loc 1 203 37 is_stmt 0 view .LVU617
 1777 001e 0623     		movs	r3, #6
 1778 0020 4374     		strb	r3, [r0, #17]
 204:Middlewares/ST/STM32_USB_Host_Library/Core/Src/usbh_ctlreq.c **** 
 1779              		.loc 1 204 5 is_stmt 1 view .LVU618
 204:Middlewares/ST/STM32_USB_Host_Library/Core/Src/usbh_ctlreq.c **** 
 1780              		.loc 1 204 37 is_stmt 0 view .LVU619
 1781 0022 4482     		strh	r4, [r0, #18]	@ movhi
 206:Middlewares/ST/STM32_USB_Host_Library/Core/Src/usbh_ctlreq.c ****     {
 1782              		.loc 1 206 5 is_stmt 1 view .LVU620
 206:Middlewares/ST/STM32_USB_Host_Library/Core/Src/usbh_ctlreq.c ****     {
 1783              		.loc 1 206 8 is_stmt 0 view .LVU621
 1784 0024 04F47F44 		and	r4, r4, #65280
 1785 0028 B4F5407F 		cmp	r4, #768
ARM GAS  /tmp/ccapfRJn.s 			page 60


 1786 002c 03D0     		beq	.L122
 212:Middlewares/ST/STM32_USB_Host_Library/Core/Src/usbh_ctlreq.c ****     }
 1787              		.loc 1 212 7 is_stmt 1 view .LVU622
 212:Middlewares/ST/STM32_USB_Host_Library/Core/Src/usbh_ctlreq.c ****     }
 1788              		.loc 1 212 39 is_stmt 0 view .LVU623
 1789 002e 0023     		movs	r3, #0
 1790 0030 8382     		strh	r3, [r0, #20]	@ movhi
 1791              	.L119:
 214:Middlewares/ST/STM32_USB_Host_Library/Core/Src/usbh_ctlreq.c ****   }
 1792              		.loc 1 214 5 is_stmt 1 view .LVU624
 214:Middlewares/ST/STM32_USB_Host_Library/Core/Src/usbh_ctlreq.c ****   }
 1793              		.loc 1 214 38 is_stmt 0 view .LVU625
 1794 0032 C282     		strh	r2, [r0, #22]	@ movhi
 1795 0034 EDE7     		b	.L117
 1796              	.L122:
 208:Middlewares/ST/STM32_USB_Host_Library/Core/Src/usbh_ctlreq.c ****     }
 1797              		.loc 1 208 7 is_stmt 1 view .LVU626
 208:Middlewares/ST/STM32_USB_Host_Library/Core/Src/usbh_ctlreq.c ****     }
 1798              		.loc 1 208 39 is_stmt 0 view .LVU627
 1799 0036 40F20943 		movw	r3, #1033
 1800 003a 8382     		strh	r3, [r0, #20]	@ movhi
 1801 003c F9E7     		b	.L119
 1802              		.cfi_endproc
 1803              	.LFE245:
 1805              		.section	.text.USBH_Get_DevDesc,"ax",%progbits
 1806              		.align	1
 1807              		.global	USBH_Get_DevDesc
 1808              		.syntax unified
 1809              		.thumb
 1810              		.thumb_func
 1811              		.fpu fpv4-sp-d16
 1813              	USBH_Get_DevDesc:
 1814              	.LVL171:
 1815              	.LFB242:
 104:Middlewares/ST/STM32_USB_Host_Library/Core/Src/usbh_ctlreq.c ****   USBH_StatusTypeDef status;
 1816              		.loc 1 104 1 is_stmt 1 view -0
 1817              		.cfi_startproc
 1818              		@ args = 0, pretend = 0, frame = 0
 1819              		@ frame_needed = 0, uses_anonymous_args = 0
 104:Middlewares/ST/STM32_USB_Host_Library/Core/Src/usbh_ctlreq.c ****   USBH_StatusTypeDef status;
 1820              		.loc 1 104 1 is_stmt 0 view .LVU629
 1821 0000 F0B5     		push	{r4, r5, r6, r7, lr}
 1822              	.LCFI17:
 1823              		.cfi_def_cfa_offset 20
 1824              		.cfi_offset 4, -20
 1825              		.cfi_offset 5, -16
 1826              		.cfi_offset 6, -12
 1827              		.cfi_offset 7, -8
 1828              		.cfi_offset 14, -4
 1829 0002 83B0     		sub	sp, sp, #12
 1830              	.LCFI18:
 1831              		.cfi_def_cfa_offset 32
 1832 0004 0446     		mov	r4, r0
 105:Middlewares/ST/STM32_USB_Host_Library/Core/Src/usbh_ctlreq.c **** 
 1833              		.loc 1 105 3 is_stmt 1 view .LVU630
 107:Middlewares/ST/STM32_USB_Host_Library/Core/Src/usbh_ctlreq.c ****                               USB_REQ_RECIPIENT_DEVICE | USB_REQ_TYPE_STANDARD,
 1834              		.loc 1 107 3 view .LVU631
ARM GAS  /tmp/ccapfRJn.s 			page 61


 109:Middlewares/ST/STM32_USB_Host_Library/Core/Src/usbh_ctlreq.c ****                               (uint16_t)length);
 1835              		.loc 1 109 61 is_stmt 0 view .LVU632
 1836 0006 00F58E76 		add	r6, r0, #284
 107:Middlewares/ST/STM32_USB_Host_Library/Core/Src/usbh_ctlreq.c ****                               USB_REQ_RECIPIENT_DEVICE | USB_REQ_TYPE_STANDARD,
 1837              		.loc 1 107 12 view .LVU633
 1838 000a 0D46     		mov	r5, r1
 1839 000c 0091     		str	r1, [sp]
 1840 000e 3346     		mov	r3, r6
 1841 0010 4FF48072 		mov	r2, #256
 1842 0014 0021     		movs	r1, #0
 1843              	.LVL172:
 107:Middlewares/ST/STM32_USB_Host_Library/Core/Src/usbh_ctlreq.c ****                               USB_REQ_RECIPIENT_DEVICE | USB_REQ_TYPE_STANDARD,
 1844              		.loc 1 107 12 view .LVU634
 1845 0016 FFF7FEFF 		bl	USBH_GetDescriptor
 1846              	.LVL173:
 112:Middlewares/ST/STM32_USB_Host_Library/Core/Src/usbh_ctlreq.c ****   {
 1847              		.loc 1 112 3 is_stmt 1 view .LVU635
 112:Middlewares/ST/STM32_USB_Host_Library/Core/Src/usbh_ctlreq.c ****   {
 1848              		.loc 1 112 6 is_stmt 0 view .LVU636
 1849 001a 0746     		mov	r7, r0
 1850 001c 10B1     		cbz	r0, .L126
 1851              	.LVL174:
 1852              	.L124:
 119:Middlewares/ST/STM32_USB_Host_Library/Core/Src/usbh_ctlreq.c **** }
 1853              		.loc 1 119 3 is_stmt 1 view .LVU637
 120:Middlewares/ST/STM32_USB_Host_Library/Core/Src/usbh_ctlreq.c **** 
 1854              		.loc 1 120 1 is_stmt 0 view .LVU638
 1855 001e 3846     		mov	r0, r7
 1856 0020 03B0     		add	sp, sp, #12
 1857              	.LCFI19:
 1858              		.cfi_remember_state
 1859              		.cfi_def_cfa_offset 20
 1860              		@ sp needed
 1861 0022 F0BD     		pop	{r4, r5, r6, r7, pc}
 1862              	.LVL175:
 1863              	.L126:
 1864              	.LCFI20:
 1865              		.cfi_restore_state
 115:Middlewares/ST/STM32_USB_Host_Library/Core/Src/usbh_ctlreq.c ****                       (uint16_t)length);
 1866              		.loc 1 115 5 is_stmt 1 view .LVU639
 1867 0024 2A46     		mov	r2, r5
 1868 0026 3146     		mov	r1, r6
 1869 0028 04F22630 		addw	r0, r4, #806
 1870              	.LVL176:
 115:Middlewares/ST/STM32_USB_Host_Library/Core/Src/usbh_ctlreq.c ****                       (uint16_t)length);
 1871              		.loc 1 115 5 is_stmt 0 view .LVU640
 1872 002c FFF7FEFF 		bl	USBH_ParseDevDesc
 1873              	.LVL177:
 1874 0030 F5E7     		b	.L124
 1875              		.cfi_endproc
 1876              	.LFE242:
 1878              		.section	.text.USBH_Get_CfgDesc,"ax",%progbits
 1879              		.align	1
 1880              		.global	USBH_Get_CfgDesc
 1881              		.syntax unified
 1882              		.thumb
 1883              		.thumb_func
ARM GAS  /tmp/ccapfRJn.s 			page 62


 1884              		.fpu fpv4-sp-d16
 1886              	USBH_Get_CfgDesc:
 1887              	.LVL178:
 1888              	.LFB243:
 135:Middlewares/ST/STM32_USB_Host_Library/Core/Src/usbh_ctlreq.c ****   USBH_StatusTypeDef status;
 1889              		.loc 1 135 1 is_stmt 1 view -0
 1890              		.cfi_startproc
 1891              		@ args = 0, pretend = 0, frame = 0
 1892              		@ frame_needed = 0, uses_anonymous_args = 0
 135:Middlewares/ST/STM32_USB_Host_Library/Core/Src/usbh_ctlreq.c ****   USBH_StatusTypeDef status;
 1893              		.loc 1 135 1 is_stmt 0 view .LVU642
 1894 0000 70B5     		push	{r4, r5, r6, lr}
 1895              	.LCFI21:
 1896              		.cfi_def_cfa_offset 16
 1897              		.cfi_offset 4, -16
 1898              		.cfi_offset 5, -12
 1899              		.cfi_offset 6, -8
 1900              		.cfi_offset 14, -4
 1901 0002 82B0     		sub	sp, sp, #8
 1902              	.LCFI22:
 1903              		.cfi_def_cfa_offset 24
 1904 0004 0446     		mov	r4, r0
 1905 0006 0D46     		mov	r5, r1
 136:Middlewares/ST/STM32_USB_Host_Library/Core/Src/usbh_ctlreq.c ****   uint8_t *pData = phost->device.CfgDesc_Raw;
 1906              		.loc 1 136 3 is_stmt 1 view .LVU643
 137:Middlewares/ST/STM32_USB_Host_Library/Core/Src/usbh_ctlreq.c **** 
 1907              		.loc 1 137 3 view .LVU644
 137:Middlewares/ST/STM32_USB_Host_Library/Core/Src/usbh_ctlreq.c **** 
 1908              		.loc 1 137 12 is_stmt 0 view .LVU645
 1909 0008 00F11C06 		add	r6, r0, #28
 1910              	.LVL179:
 139:Middlewares/ST/STM32_USB_Host_Library/Core/Src/usbh_ctlreq.c ****                               USB_DESC_CONFIGURATION, pData, length);
 1911              		.loc 1 139 3 is_stmt 1 view .LVU646
 139:Middlewares/ST/STM32_USB_Host_Library/Core/Src/usbh_ctlreq.c ****                               USB_DESC_CONFIGURATION, pData, length);
 1912              		.loc 1 139 12 is_stmt 0 view .LVU647
 1913 000c 0091     		str	r1, [sp]
 1914 000e 3346     		mov	r3, r6
 1915 0010 4FF40072 		mov	r2, #512
 1916 0014 0021     		movs	r1, #0
 1917              	.LVL180:
 139:Middlewares/ST/STM32_USB_Host_Library/Core/Src/usbh_ctlreq.c ****                               USB_DESC_CONFIGURATION, pData, length);
 1918              		.loc 1 139 12 view .LVU648
 1919 0016 FFF7FEFF 		bl	USBH_GetDescriptor
 1920              	.LVL181:
 142:Middlewares/ST/STM32_USB_Host_Library/Core/Src/usbh_ctlreq.c ****   {
 1921              		.loc 1 142 3 is_stmt 1 view .LVU649
 142:Middlewares/ST/STM32_USB_Host_Library/Core/Src/usbh_ctlreq.c ****   {
 1922              		.loc 1 142 6 is_stmt 0 view .LVU650
 1923 001a 08B1     		cbz	r0, .L130
 1924              	.LVL182:
 1925              	.L128:
 148:Middlewares/ST/STM32_USB_Host_Library/Core/Src/usbh_ctlreq.c **** }
 1926              		.loc 1 148 3 is_stmt 1 view .LVU651
 149:Middlewares/ST/STM32_USB_Host_Library/Core/Src/usbh_ctlreq.c **** 
 1927              		.loc 1 149 1 is_stmt 0 view .LVU652
 1928 001c 02B0     		add	sp, sp, #8
 1929              	.LCFI23:
ARM GAS  /tmp/ccapfRJn.s 			page 63


 1930              		.cfi_remember_state
 1931              		.cfi_def_cfa_offset 16
 1932              		@ sp needed
 1933 001e 70BD     		pop	{r4, r5, r6, pc}
 1934              	.LVL183:
 1935              	.L130:
 1936              	.LCFI24:
 1937              		.cfi_restore_state
 145:Middlewares/ST/STM32_USB_Host_Library/Core/Src/usbh_ctlreq.c ****   }
 1938              		.loc 1 145 5 is_stmt 1 view .LVU653
 145:Middlewares/ST/STM32_USB_Host_Library/Core/Src/usbh_ctlreq.c ****   }
 1939              		.loc 1 145 14 is_stmt 0 view .LVU654
 1940 0020 2A46     		mov	r2, r5
 1941 0022 3146     		mov	r1, r6
 1942 0024 2046     		mov	r0, r4
 1943 0026 FFF7FEFF 		bl	USBH_ParseCfgDesc
 1944              	.LVL184:
 145:Middlewares/ST/STM32_USB_Host_Library/Core/Src/usbh_ctlreq.c ****   }
 1945              		.loc 1 145 14 view .LVU655
 1946 002a F7E7     		b	.L128
 1947              		.cfi_endproc
 1948              	.LFE243:
 1950              		.section	.text.USBH_Get_StringDesc,"ax",%progbits
 1951              		.align	1
 1952              		.global	USBH_Get_StringDesc
 1953              		.syntax unified
 1954              		.thumb
 1955              		.thumb_func
 1956              		.fpu fpv4-sp-d16
 1958              	USBH_Get_StringDesc:
 1959              	.LVL185:
 1960              	.LFB244:
 165:Middlewares/ST/STM32_USB_Host_Library/Core/Src/usbh_ctlreq.c ****   USBH_StatusTypeDef status;
 1961              		.loc 1 165 1 is_stmt 1 view -0
 1962              		.cfi_startproc
 1963              		@ args = 0, pretend = 0, frame = 0
 1964              		@ frame_needed = 0, uses_anonymous_args = 0
 165:Middlewares/ST/STM32_USB_Host_Library/Core/Src/usbh_ctlreq.c ****   USBH_StatusTypeDef status;
 1965              		.loc 1 165 1 is_stmt 0 view .LVU657
 1966 0000 F0B5     		push	{r4, r5, r6, r7, lr}
 1967              	.LCFI25:
 1968              		.cfi_def_cfa_offset 20
 1969              		.cfi_offset 4, -20
 1970              		.cfi_offset 5, -16
 1971              		.cfi_offset 6, -12
 1972              		.cfi_offset 7, -8
 1973              		.cfi_offset 14, -4
 1974 0002 83B0     		sub	sp, sp, #12
 1975              	.LCFI26:
 1976              		.cfi_def_cfa_offset 32
 1977 0004 1646     		mov	r6, r2
 1978 0006 1D46     		mov	r5, r3
 166:Middlewares/ST/STM32_USB_Host_Library/Core/Src/usbh_ctlreq.c **** 
 1979              		.loc 1 166 3 is_stmt 1 view .LVU658
 168:Middlewares/ST/STM32_USB_Host_Library/Core/Src/usbh_ctlreq.c ****                               USB_REQ_RECIPIENT_DEVICE | USB_REQ_TYPE_STANDARD,
 1980              		.loc 1 168 3 view .LVU659
 171:Middlewares/ST/STM32_USB_Host_Library/Core/Src/usbh_ctlreq.c **** 
ARM GAS  /tmp/ccapfRJn.s 			page 64


 1981              		.loc 1 171 44 is_stmt 0 view .LVU660
 1982 0008 00F58E74 		add	r4, r0, #284
 168:Middlewares/ST/STM32_USB_Host_Library/Core/Src/usbh_ctlreq.c ****                               USB_REQ_RECIPIENT_DEVICE | USB_REQ_TYPE_STANDARD,
 1983              		.loc 1 168 12 view .LVU661
 1984 000c 0093     		str	r3, [sp]
 1985 000e 2346     		mov	r3, r4
 1986              	.LVL186:
 168:Middlewares/ST/STM32_USB_Host_Library/Core/Src/usbh_ctlreq.c ****                               USB_REQ_RECIPIENT_DEVICE | USB_REQ_TYPE_STANDARD,
 1987              		.loc 1 168 12 view .LVU662
 1988 0010 41F44072 		orr	r2, r1, #768
 1989              	.LVL187:
 168:Middlewares/ST/STM32_USB_Host_Library/Core/Src/usbh_ctlreq.c ****                               USB_REQ_RECIPIENT_DEVICE | USB_REQ_TYPE_STANDARD,
 1990              		.loc 1 168 12 view .LVU663
 1991 0014 0021     		movs	r1, #0
 1992              	.LVL188:
 168:Middlewares/ST/STM32_USB_Host_Library/Core/Src/usbh_ctlreq.c ****                               USB_REQ_RECIPIENT_DEVICE | USB_REQ_TYPE_STANDARD,
 1993              		.loc 1 168 12 view .LVU664
 1994 0016 FFF7FEFF 		bl	USBH_GetDescriptor
 1995              	.LVL189:
 173:Middlewares/ST/STM32_USB_Host_Library/Core/Src/usbh_ctlreq.c ****   {
 1996              		.loc 1 173 3 is_stmt 1 view .LVU665
 173:Middlewares/ST/STM32_USB_Host_Library/Core/Src/usbh_ctlreq.c ****   {
 1997              		.loc 1 173 6 is_stmt 0 view .LVU666
 1998 001a 0746     		mov	r7, r0
 1999 001c 10B1     		cbz	r0, .L134
 2000              	.LVL190:
 2001              	.L132:
 179:Middlewares/ST/STM32_USB_Host_Library/Core/Src/usbh_ctlreq.c **** }
 2002              		.loc 1 179 3 is_stmt 1 view .LVU667
 180:Middlewares/ST/STM32_USB_Host_Library/Core/Src/usbh_ctlreq.c **** 
 2003              		.loc 1 180 1 is_stmt 0 view .LVU668
 2004 001e 3846     		mov	r0, r7
 2005 0020 03B0     		add	sp, sp, #12
 2006              	.LCFI27:
 2007              		.cfi_remember_state
 2008              		.cfi_def_cfa_offset 20
 2009              		@ sp needed
 2010 0022 F0BD     		pop	{r4, r5, r6, r7, pc}
 2011              	.LVL191:
 2012              	.L134:
 2013              	.LCFI28:
 2014              		.cfi_restore_state
 176:Middlewares/ST/STM32_USB_Host_Library/Core/Src/usbh_ctlreq.c ****   }
 2015              		.loc 1 176 5 is_stmt 1 view .LVU669
 2016 0024 2A46     		mov	r2, r5
 2017 0026 3146     		mov	r1, r6
 2018 0028 2046     		mov	r0, r4
 2019              	.LVL192:
 176:Middlewares/ST/STM32_USB_Host_Library/Core/Src/usbh_ctlreq.c ****   }
 2020              		.loc 1 176 5 is_stmt 0 view .LVU670
 2021 002a FFF7FEFF 		bl	USBH_ParseStringDesc
 2022              	.LVL193:
 2023 002e F6E7     		b	.L132
 2024              		.cfi_endproc
 2025              	.LFE244:
 2027              		.section	.text.USBH_SetAddress,"ax",%progbits
 2028              		.align	1
ARM GAS  /tmp/ccapfRJn.s 			page 65


 2029              		.global	USBH_SetAddress
 2030              		.syntax unified
 2031              		.thumb
 2032              		.thumb_func
 2033              		.fpu fpv4-sp-d16
 2035              	USBH_SetAddress:
 2036              	.LVL194:
 2037              	.LFB246:
 230:Middlewares/ST/STM32_USB_Host_Library/Core/Src/usbh_ctlreq.c ****   if (phost->RequestState == CMD_SEND)
 2038              		.loc 1 230 1 is_stmt 1 view -0
 2039              		.cfi_startproc
 2040              		@ args = 0, pretend = 0, frame = 0
 2041              		@ frame_needed = 0, uses_anonymous_args = 0
 230:Middlewares/ST/STM32_USB_Host_Library/Core/Src/usbh_ctlreq.c ****   if (phost->RequestState == CMD_SEND)
 2042              		.loc 1 230 1 is_stmt 0 view .LVU672
 2043 0000 08B5     		push	{r3, lr}
 2044              	.LCFI29:
 2045              		.cfi_def_cfa_offset 8
 2046              		.cfi_offset 3, -8
 2047              		.cfi_offset 14, -4
 231:Middlewares/ST/STM32_USB_Host_Library/Core/Src/usbh_ctlreq.c ****   {
 2048              		.loc 1 231 3 is_stmt 1 view .LVU673
 231:Middlewares/ST/STM32_USB_Host_Library/Core/Src/usbh_ctlreq.c ****   {
 2049              		.loc 1 231 12 is_stmt 0 view .LVU674
 2050 0002 8378     		ldrb	r3, [r0, #2]	@ zero_extendqisi2
 231:Middlewares/ST/STM32_USB_Host_Library/Core/Src/usbh_ctlreq.c ****   {
 2051              		.loc 1 231 6 view .LVU675
 2052 0004 012B     		cmp	r3, #1
 2053 0006 04D0     		beq	.L138
 2054              	.L136:
 243:Middlewares/ST/STM32_USB_Host_Library/Core/Src/usbh_ctlreq.c **** }
 2055              		.loc 1 243 3 is_stmt 1 view .LVU676
 243:Middlewares/ST/STM32_USB_Host_Library/Core/Src/usbh_ctlreq.c **** }
 2056              		.loc 1 243 10 is_stmt 0 view .LVU677
 2057 0008 0022     		movs	r2, #0
 2058 000a 1146     		mov	r1, r2
 2059              	.LVL195:
 243:Middlewares/ST/STM32_USB_Host_Library/Core/Src/usbh_ctlreq.c **** }
 2060              		.loc 1 243 10 view .LVU678
 2061 000c FFF7FEFF 		bl	USBH_CtlReq
 2062              	.LVL196:
